

Microchip MPLAB XC8 Assembler V2.31 build 20201012212115 
                                                                                               Thu Mar 11 00:58:35 2021

Microchip MPLAB XC8 C Compiler v2.31 (Free license) build 20201012212115 Og1 
     1                           	processor	16F887
     2                           	pagewidth 120
     3                           	opt	flic
     4                           	psect	strings,global,class=STRING,delta=2,noexec
     5                           	psect	cinit,global,class=CODE,merge=1,delta=2
     6                           	psect	bssBANK0,global,class=BANK0,space=1,delta=1,noexec
     7                           	psect	bssBANK1,global,class=BANK1,space=1,delta=1,noexec
     8                           	psect	clrtext,global,class=CODE,delta=2
     9                           	psect	cstackCOMMON,global,class=COMMON,space=1,delta=1,noexec
    10                           	psect	cstackBANK0,global,class=BANK0,space=1,delta=1,noexec
    11                           	psect	maintext,global,class=CODE,split=1,delta=2
    12                           	psect	text1,local,class=CODE,merge=1,delta=2
    13                           	psect	text2,local,class=CODE,merge=1,delta=2,group=3
    14                           	psect	text3,local,class=CODE,merge=1,delta=2,group=1
    15                           	psect	text4,local,class=CODE,merge=1,delta=2,group=3
    16                           	psect	text5,local,class=CODE,merge=1,delta=2,group=2
    17                           	psect	text6,local,class=CODE,merge=1,delta=2,group=2
    18                           	psect	text7,local,class=CODE,merge=1,delta=2,group=2
    19                           	psect	text8,local,class=CODE,merge=1,delta=2,group=2
    20                           	psect	text9,local,class=CODE,merge=1,delta=2,group=2
    21                           	psect	text10,local,class=CODE,merge=1,delta=2,group=2
    22                           	psect	text11,local,class=CODE,merge=1,delta=2,group=2
    23                           	psect	text12,local,class=CODE,merge=1,delta=2
    24                           	psect	text13,local,class=CODE,merge=1,delta=2
    25                           	psect	text14,local,class=CODE,merge=1,delta=2
    26                           	psect	text15,local,class=CODE,merge=1,delta=2,group=2
    27                           	psect	text16,local,class=CODE,merge=1,delta=2,group=2
    28                           	psect	text17,local,class=CODE,merge=1,delta=2,group=2
    29                           	psect	text18,local,class=CODE,merge=1,delta=2
    30                           	psect	text19,local,class=CODE,merge=1,delta=2
    31                           	psect	text20,local,class=CODE,merge=1,delta=2
    32                           	psect	text21,local,class=CODE,merge=1,delta=2,group=2
    33                           	psect	text22,local,class=CODE,merge=1,delta=2
    34                           	psect	text23,local,class=CODE,merge=1,delta=2
    35                           	psect	text24,local,class=CODE,merge=1,delta=2
    36                           	psect	text25,local,class=CODE,merge=1,delta=2
    37                           	psect	text26,local,class=CODE,merge=1,delta=2
    38                           	psect	text27,local,class=CODE,merge=1,delta=2
    39                           	psect	intentry,global,class=CODE,delta=2
    40                           	psect	config,global,abs,ovrld,class=CONFIG,space=4,delta=2,noexec
    41                           	dabs	1,0x7E,2
    42  0000                     
    43                           ; Version 2.20
    44                           ; Generated 12/02/2020 GMT
    45                           ; 
    46                           ; Copyright © 2020, Microchip Technology Inc. and its subsidiaries ("Microchip")
    47                           ; All rights reserved.
    48                           ; 
    49                           ; This software is developed by Microchip Technology Inc. and its subsidiaries ("Microch
      +                          ip").
    50                           ; 
    51                           ; Redistribution and use in source and binary forms, with or without modification, are
    52                           ; permitted provided that the following conditions are met:
    53                           ; 
    54                           ;     1. Redistributions of source code must retain the above copyright notice, this lis
      +                          t of
    55                           ;        conditions and the following disclaimer.
    56                           ; 
    57                           ;     2. Redistributions in binary form must reproduce the above copyright notice, this 
      +                          list
    58                           ;        of conditions and the following disclaimer in the documentation and/or other
    59                           ;        materials provided with the distribution.
    60                           ; 
    61                           ;     3. Microchip's name may not be used to endorse or promote products derived from th
      +                          is
    62                           ;        software without specific prior written permission.
    63                           ; 
    64                           ; THIS SOFTWARE IS PROVIDED BY MICROCHIP "AS IS" AND ANY EXPRESS OR IMPLIED WARRANTIES,
    65                           ; INCLUDING, BUT NOT LIMITED TO, THE IMPLIED WARRANTIES OF MERCHANTABILITY AND FITNESS F
      +                          OR
    66                           ; PURPOSE ARE DISCLAIMED.  IN NO EVENT SHALL MICROCHIP BE LIABLE FOR ANY DIRECT, INDIREC
      +                          T,
    67                           ; INCIDENTAL, SPECIAL, EXEMPLARY, OR CONSEQUENTIAL DAMAGES (INCLUDING BUT NOT LIMITED TO
    68                           ; PROCUREMENT OF SUBSTITUTE GOODS OR SERVICES; LOSS OF USE, DATA OR PROFITS; OR BUSINESS
    69                           ; INTERRUPTION) HOWSOEVER CAUSED AND ON ANY THEORY OF LIABILITY, WHETHER IN CONTRACT, ST
      +                          RICT
    70                           ; LIABILITY, OR TORT (INCLUDING NEGLIGENCE OR OTHERWISE) ARISING IN ANY WAY OUT OF THE U
      +                          SE OF
    71                           ; THIS SOFTWARE, EVEN IF ADVISED OF THE POSSIBILITY OF SUCH DAMAGE.
    72                           ; 
    73                           ; 
    74                           ; Code-generator required, PIC16F887 Definitions
    75                           ; 
    76                           ; SFR Addresses
    77  0000                     	;# 
    78  0001                     	;# 
    79  0002                     	;# 
    80  0003                     	;# 
    81  0004                     	;# 
    82  0005                     	;# 
    83  0006                     	;# 
    84  0007                     	;# 
    85  0008                     	;# 
    86  0009                     	;# 
    87  000A                     	;# 
    88  000B                     	;# 
    89  000C                     	;# 
    90  000D                     	;# 
    91  000E                     	;# 
    92  000E                     	;# 
    93  000F                     	;# 
    94  0010                     	;# 
    95  0011                     	;# 
    96  0012                     	;# 
    97  0013                     	;# 
    98  0014                     	;# 
    99  0015                     	;# 
   100  0015                     	;# 
   101  0016                     	;# 
   102  0017                     	;# 
   103  0018                     	;# 
   104  0019                     	;# 
   105  001A                     	;# 
   106  001B                     	;# 
   107  001B                     	;# 
   108  001C                     	;# 
   109  001D                     	;# 
   110  001E                     	;# 
   111  001F                     	;# 
   112  0081                     	;# 
   113  0085                     	;# 
   114  0086                     	;# 
   115  0087                     	;# 
   116  0088                     	;# 
   117  0089                     	;# 
   118  008C                     	;# 
   119  008D                     	;# 
   120  008E                     	;# 
   121  008F                     	;# 
   122  0090                     	;# 
   123  0091                     	;# 
   124  0092                     	;# 
   125  0093                     	;# 
   126  0093                     	;# 
   127  0093                     	;# 
   128  0094                     	;# 
   129  0095                     	;# 
   130  0096                     	;# 
   131  0097                     	;# 
   132  0098                     	;# 
   133  0099                     	;# 
   134  009A                     	;# 
   135  009B                     	;# 
   136  009C                     	;# 
   137  009D                     	;# 
   138  009E                     	;# 
   139  009F                     	;# 
   140  0105                     	;# 
   141  0107                     	;# 
   142  0108                     	;# 
   143  0109                     	;# 
   144  010C                     	;# 
   145  010C                     	;# 
   146  010D                     	;# 
   147  010E                     	;# 
   148  010F                     	;# 
   149  0185                     	;# 
   150  0187                     	;# 
   151  0188                     	;# 
   152  0189                     	;# 
   153  018C                     	;# 
   154  018D                     	;# 
   155  0000                     	;# 
   156  0001                     	;# 
   157  0002                     	;# 
   158  0003                     	;# 
   159  0004                     	;# 
   160  0005                     	;# 
   161  0006                     	;# 
   162  0007                     	;# 
   163  0008                     	;# 
   164  0009                     	;# 
   165  000A                     	;# 
   166  000B                     	;# 
   167  000C                     	;# 
   168  000D                     	;# 
   169  000E                     	;# 
   170  000E                     	;# 
   171  000F                     	;# 
   172  0010                     	;# 
   173  0011                     	;# 
   174  0012                     	;# 
   175  0013                     	;# 
   176  0014                     	;# 
   177  0015                     	;# 
   178  0015                     	;# 
   179  0016                     	;# 
   180  0017                     	;# 
   181  0018                     	;# 
   182  0019                     	;# 
   183  001A                     	;# 
   184  001B                     	;# 
   185  001B                     	;# 
   186  001C                     	;# 
   187  001D                     	;# 
   188  001E                     	;# 
   189  001F                     	;# 
   190  0081                     	;# 
   191  0085                     	;# 
   192  0086                     	;# 
   193  0087                     	;# 
   194  0088                     	;# 
   195  0089                     	;# 
   196  008C                     	;# 
   197  008D                     	;# 
   198  008E                     	;# 
   199  008F                     	;# 
   200  0090                     	;# 
   201  0091                     	;# 
   202  0092                     	;# 
   203  0093                     	;# 
   204  0093                     	;# 
   205  0093                     	;# 
   206  0094                     	;# 
   207  0095                     	;# 
   208  0096                     	;# 
   209  0097                     	;# 
   210  0098                     	;# 
   211  0099                     	;# 
   212  009A                     	;# 
   213  009B                     	;# 
   214  009C                     	;# 
   215  009D                     	;# 
   216  009E                     	;# 
   217  009F                     	;# 
   218  0105                     	;# 
   219  0107                     	;# 
   220  0108                     	;# 
   221  0109                     	;# 
   222  010C                     	;# 
   223  010C                     	;# 
   224  010D                     	;# 
   225  010E                     	;# 
   226  010F                     	;# 
   227  0185                     	;# 
   228  0187                     	;# 
   229  0188                     	;# 
   230  0189                     	;# 
   231  018C                     	;# 
   232  018D                     	;# 
   233                           
   234                           	psect	strings
   235  0800                     __pstrings:
   236  0800                     stringtab:
   237  0800                     __stringtab:
   238  0800                     stringcode:	
   239                           ;	String table - string pointers are 1 byte each
   240                           
   241  0800                     stringdir:
   242  0800  3008               	movlw	high stringdir
   243  0801  008A               	movwf	10
   244  0802  0804               	movf	4,w
   245  0803  0A84               	incf	4,f
   246  0804  0782               	addwf	2,f
   247  0805                     __stringbase:
   248  0805  3400               	retlw	0
   249  0806                     __end_of__stringtab:
   250  0806                     _dpowers:
   251  0806  3401               	retlw	1
   252  0807  3400               	retlw	0
   253  0808  3400               	retlw	0
   254  0809  3400               	retlw	0
   255  080A  340A               	retlw	10
   256  080B  3400               	retlw	0
   257  080C  3400               	retlw	0
   258  080D  3400               	retlw	0
   259  080E  3464               	retlw	100
   260  080F  3400               	retlw	0
   261  0810  3400               	retlw	0
   262  0811  3400               	retlw	0
   263  0812  34E8               	retlw	232
   264  0813  3403               	retlw	3
   265  0814  3400               	retlw	0
   266  0815  3400               	retlw	0
   267  0816  3410               	retlw	16
   268  0817  3427               	retlw	39
   269  0818  3400               	retlw	0
   270  0819  3400               	retlw	0
   271  081A  34A0               	retlw	160
   272  081B  3486               	retlw	134
   273  081C  3401               	retlw	1
   274  081D  3400               	retlw	0
   275  081E  3440               	retlw	64
   276  081F  3442               	retlw	66
   277  0820  340F               	retlw	15
   278  0821  3400               	retlw	0
   279  0822  3480               	retlw	128
   280  0823  3496               	retlw	150
   281  0824  3498               	retlw	152
   282  0825  3400               	retlw	0
   283  0826  3400               	retlw	0
   284  0827  34E1               	retlw	225
   285  0828  34F5               	retlw	245
   286  0829  3405               	retlw	5
   287  082A  3400               	retlw	0
   288  082B  34CA               	retlw	202
   289  082C  349A               	retlw	154
   290  082D  343B               	retlw	59
   291  082E                     __end_of_dpowers:
   292  0019                     _TXREG	set	25
   293  001A                     _RCREG	set	26
   294  0018                     _RCSTA	set	24
   295  000B                     _INTCON	set	11
   296  0008                     _PORTD	set	8
   297  0005                     _PORTA	set	5
   298  0006                     _PORTB	set	6
   299  0005                     _PORTAbits	set	5
   300  000C                     _PIR1bits	set	12
   301  0013                     _SSPBUF	set	19
   302  0014                     _SSPCON	set	20
   303  0063                     _SSPIF	set	99
   304  0098                     _TXSTAbits	set	152
   305  0099                     _SPBRG	set	153
   306  0098                     _TXSTA	set	152
   307  008C                     _PIE1	set	140
   308  0089                     _TRISE	set	137
   309  0088                     _TRISD	set	136
   310  0087                     _TRISC	set	135
   311  0086                     _TRISB	set	134
   312  0085                     _TRISA	set	133
   313  0094                     _SSPSTAT	set	148
   314  0093                     _SSPADD	set	147
   315  0091                     _SSPCON2	set	145
   316  048C                     _ACKEN	set	1164
   317  048D                     _ACKDT	set	1165
   318  048B                     _RCEN	set	1163
   319  048A                     _PEN	set	1162
   320  0489                     _RSEN	set	1161
   321  0488                     _SEN	set	1160
   322  043C                     _TRISC4	set	1084
   323  043B                     _TRISC3	set	1083
   324  0189                     _ANSELH	set	393
   325  0188                     _ANSEL	set	392
   326  082E                     STR_1:
   327  082E  3425               	retlw	37	;'%'
   328  082F  346C               	retlw	108	;'l'
   329  0830  3475               	retlw	117	;'u'
   330  0831  342E               	retlw	46	;'.'
   331  0832  3425               	retlw	37	;'%'
   332  0833  3436               	retlw	54	;'6'
   333  0834  342E               	retlw	46	;'.'
   334  0835  3436               	retlw	54	;'6'
   335  0836  346C               	retlw	108	;'l'
   336  0837  3475               	retlw	117	;'u'
   337  0838  3400               	retlw	0
   338                           
   339                           	psect	cinit
   340  000F                     start_initialization:	
   341                           ; #config settings
   342                           
   343  000F                     __initialization:
   344                           
   345                           ; Clear objects allocated to BANK0
   346  000F  1383               	bcf	3,7	;select IRP bank0
   347  0010  3060               	movlw	low __pbssBANK0
   348  0011  0084               	movwf	4
   349  0012  306D               	movlw	low (__pbssBANK0+13)
   350  0013  160A  118A  27B9  120A  118A  	fcall	clear_ram0
   351                           
   352                           ; Clear objects allocated to BANK1
   353  0018  30A0               	movlw	low __pbssBANK1
   354  0019  0084               	movwf	4
   355  001A  30B1               	movlw	low (__pbssBANK1+17)
   356  001B  160A  118A  27B9  120A  118A  	fcall	clear_ram0
   357  0020                     end_of_initialization:	
   358                           ;End of C runtime variable initialization code
   359                           
   360  0020                     __end_of__initialization:
   361  0020  0183               	clrf	3
   362  0021  120A  158A  2CBB   	ljmp	_main	;jump to C main() function
   363                           
   364                           	psect	bssBANK0
   365  0060                     __pbssBANK0:
   366  0060                     _ledsu:
   367  0060                     	ds	1
   368  0061                     _I2gato:
   369  0061                     	ds	12
   370                           
   371                           	psect	bssBANK1
   372  00A0                     __pbssBANK1:
   373  00A0                     ftoa@buf:
   374  00A0                     	ds	17
   375                           
   376                           	psect	clrtext
   377  17B9                     clear_ram0:	
   378                           ;	Called with FSR containing the base address, and
   379                           ;	W with the last address+1
   380                           
   381  17B9  0064               	clrwdt	;clear the watchdog before getting into this loop
   382  17BA                     clrloop0:
   383  17BA  0180               	clrf	0	;clear RAM location pointed to by FSR
   384  17BB  0A84               	incf	4,f	;increment pointer
   385  17BC  0604               	xorwf	4,w	;XOR with final address
   386  17BD  1903               	btfsc	3,2	;have we reached the end yet?
   387  17BE  3400               	retlw	0	;all done for this memory range, return
   388  17BF  0604               	xorwf	4,w	;XOR again to restore value
   389  17C0  2FBA               	goto	clrloop0	;do the next byte
   390                           
   391                           	psect	cstackCOMMON
   392  0070                     __pcstackCOMMON:
   393  0070                     ?_isdigit:
   394  0070                     ?_setup:	
   395                           ; 1 bit 
   396                           
   397  0070                     ?_UARTSendChar:	
   398                           ; 1 bytes @ 0x0
   399                           
   400  0070                     ?_I2C_Master_Wait:	
   401                           ; 1 bytes @ 0x0
   402                           
   403  0070                     ?_I2C_Master_Start:	
   404                           ; 1 bytes @ 0x0
   405                           
   406  0070                     ?_I2C_Master_RepeatedStart:	
   407                           ; 1 bytes @ 0x0
   408                           
   409  0070                     ?_I2C_Master_Stop:	
   410                           ; 1 bytes @ 0x0
   411                           
   412  0070                     ?_I2C_ConfigM:	
   413                           ; 1 bytes @ 0x0
   414                           
   415  0070                     ?_I2C_WWW:	
   416                           ; 1 bytes @ 0x0
   417                           
   418  0070                     ?_main:	
   419                           ; 1 bytes @ 0x0
   420                           
   421  0070                     ?_ISR:	
   422                           ; 1 bytes @ 0x0
   423                           
   424  0070                     ??_ISR:	
   425                           ; 1 bytes @ 0x0
   426                           
   427                           
   428                           ; 1 bytes @ 0x0
   429  0070                     	ds	3
   430  0073                     ?___flge:
   431  0073                     ??_setup:	
   432                           ; 1 bit 
   433                           
   434  0073                     ??_UARTSendChar:	
   435                           ; 1 bytes @ 0x3
   436                           
   437  0073                     ??_isdigit:	
   438                           ; 1 bytes @ 0x3
   439                           
   440  0073                     ??_I2C_Master_Wait:	
   441                           ; 1 bytes @ 0x3
   442                           
   443  0073                     ??_I2C_Master_Start:	
   444                           ; 1 bytes @ 0x3
   445                           
   446  0073                     ??_I2C_Master_RepeatedStart:	
   447                           ; 1 bytes @ 0x3
   448                           
   449  0073                     ??_I2C_Master_Stop:	
   450                           ; 1 bytes @ 0x3
   451                           
   452  0073                     ?_I2C_Master_Write:	
   453                           ; 1 bytes @ 0x3
   454                           
   455  0073                     ?__Umul8_16:	
   456                           ; 1 bytes @ 0x3
   457                           
   458  0073                     ?_I2C_Master_Read:	
   459                           ; 2 bytes @ 0x3
   460                           
   461  0073                     ?___wmul:	
   462                           ; 2 bytes @ 0x3
   463                           
   464  0073                     ?___lldiv:	
   465                           ; 2 bytes @ 0x3
   466                           
   467  0073                     ?___flneg:	
   468                           ; 4 bytes @ 0x3
   469                           
   470  0073                     ?___fladd:	
   471                           ; 4 bytes @ 0x3
   472                           
   473  0073                     ?___xxtofl:	
   474                           ; 4 bytes @ 0x3
   475                           
   476  0073                     UARTSendChar@c:	
   477                           ; 4 bytes @ 0x3
   478                           
   479  0073                     __Umul8_16@multiplicand:	
   480                           ; 1 bytes @ 0x3
   481                           
   482  0073                     _isdigit$717:	
   483                           ; 1 bytes @ 0x3
   484                           
   485  0073                     I2C_Master_Write@d:	
   486                           ; 1 bytes @ 0x3
   487                           
   488  0073                     I2C_Master_Read@a:	
   489                           ; 2 bytes @ 0x3
   490                           
   491  0073                     ___wmul@multiplier:	
   492                           ; 2 bytes @ 0x3
   493                           
   494  0073                     ___lldiv@divisor:	
   495                           ; 2 bytes @ 0x3
   496                           
   497  0073                     ___flge@ff1:	
   498                           ; 4 bytes @ 0x3
   499                           
   500  0073                     ___flneg@f1:	
   501                           ; 4 bytes @ 0x3
   502                           
   503  0073                     ___fladd@b:	
   504                           ; 4 bytes @ 0x3
   505                           
   506  0073                     ___xxtofl@val:	
   507                           ; 4 bytes @ 0x3
   508                           
   509                           
   510                           ; 4 bytes @ 0x3
   511  0073                     	ds	1
   512  0074                     ?_UARTSendString:
   513  0074                     UARTSendString@max_length:	
   514                           ; 1 bytes @ 0x4
   515                           
   516  0074                     isdigit@c:	
   517                           ; 1 bytes @ 0x4
   518                           
   519                           
   520                           ; 1 bytes @ 0x4
   521  0074                     	ds	1
   522  0075                     ??_UARTSendString:
   523  0075                     ??__Umul8_16:	
   524                           ; 1 bytes @ 0x5
   525                           
   526  0075                     ??_I2C_Master_Write:	
   527                           ; 1 bytes @ 0x5
   528                           
   529  0075                     ??_I2C_Master_Read:	
   530                           ; 1 bytes @ 0x5
   531                           
   532  0075                     ??_I2C_ConfigM:	
   533                           ; 1 bytes @ 0x5
   534                           
   535  0075                     ___wmul@multiplicand:	
   536                           ; 1 bytes @ 0x5
   537                           
   538                           
   539                           ; 2 bytes @ 0x5
   540  0075                     	ds	1
   541  0076                     UARTSendString@str:
   542                           
   543                           ; 1 bytes @ 0x6
   544  0076                     	ds	1
   545  0077                     ??___wmul:
   546  0077                     ??___flneg:	
   547                           ; 1 bytes @ 0x7
   548                           
   549  0077                     ??___xxtofl:	
   550                           ; 1 bytes @ 0x7
   551                           
   552  0077                     I2C_Master_Read@temp:	
   553                           ; 1 bytes @ 0x7
   554                           
   555  0077                     UARTSendString@i:	
   556                           ; 2 bytes @ 0x7
   557                           
   558  0077                     ___wmul@product:	
   559                           ; 2 bytes @ 0x7
   560                           
   561  0077                     ___lldiv@dividend:	
   562                           ; 2 bytes @ 0x7
   563                           
   564  0077                     ___flge@ff2:	
   565                           ; 4 bytes @ 0x7
   566                           
   567  0077                     ___fladd@a:	
   568                           ; 4 bytes @ 0x7
   569                           
   570                           
   571                           ; 4 bytes @ 0x7
   572  0077                     	ds	4
   573  007B                     ??___flsub:
   574                           
   575                           	psect	cstackBANK0
   576  0020                     __pcstackBANK0:	
   577                           ; 1 bytes @ 0xB
   578                           
   579  0020                     ??___lldiv:
   580  0020                     ??___flge:	
   581                           ; 1 bytes @ 0x0
   582                           
   583  0020                     ??___fladd:	
   584                           ; 1 bytes @ 0x0
   585                           
   586  0020                     ___xxtofl@sign:	
   587                           ; 1 bytes @ 0x0
   588                           
   589  0020                     __Umul8_16@product:	
   590                           ; 1 bytes @ 0x0
   591                           
   592                           
   593                           ; 2 bytes @ 0x0
   594  0020                     	ds	1
   595  0021                     ___xxtofl@exp:
   596  0021                     ___lldiv@quotient:	
   597                           ; 1 bytes @ 0x1
   598                           
   599                           
   600                           ; 4 bytes @ 0x1
   601  0021                     	ds	1
   602  0022                     __Umul8_16@word_mpld:
   603  0022                     ___xxtofl@arg:	
   604                           ; 2 bytes @ 0x2
   605                           
   606                           
   607                           ; 4 bytes @ 0x2
   608  0022                     	ds	2
   609  0024                     __Umul8_16@multiplier:
   610                           
   611                           ; 1 bytes @ 0x4
   612  0024                     	ds	1
   613  0025                     ___lldiv@counter:
   614                           
   615                           ; 1 bytes @ 0x5
   616  0025                     	ds	1
   617  0026                     ?_I2C_Master_Init:
   618  0026                     ?___llmod:	
   619                           ; 1 bytes @ 0x6
   620                           
   621  0026                     ?___flmul:	
   622                           ; 4 bytes @ 0x6
   623                           
   624  0026                     I2C_Master_Init@c:	
   625                           ; 4 bytes @ 0x6
   626                           
   627  0026                     ___llmod@divisor:	
   628                           ; 4 bytes @ 0x6
   629                           
   630  0026                     ___flmul@b:	
   631                           ; 4 bytes @ 0x6
   632                           
   633                           
   634                           ; 4 bytes @ 0x6
   635  0026                     	ds	2
   636  0028                     ___fladd@signs:
   637                           
   638                           ; 1 bytes @ 0x8
   639  0028                     	ds	1
   640  0029                     ___fladd@aexp:
   641                           
   642                           ; 1 bytes @ 0x9
   643  0029                     	ds	1
   644  002A                     ??_I2C_Master_Init:
   645  002A                     ___fladd@bexp:	
   646                           ; 1 bytes @ 0xA
   647                           
   648  002A                     ___llmod@dividend:	
   649                           ; 1 bytes @ 0xA
   650                           
   651  002A                     ___flmul@a:	
   652                           ; 4 bytes @ 0xA
   653                           
   654                           
   655                           ; 4 bytes @ 0xA
   656  002A                     	ds	1
   657  002B                     ___fladd@grs:
   658                           
   659                           ; 1 bytes @ 0xB
   660  002B                     	ds	1
   661  002C                     ?___flsub:
   662  002C                     ___flsub@a:	
   663                           ; 4 bytes @ 0xC
   664                           
   665                           
   666                           ; 4 bytes @ 0xC
   667  002C                     	ds	2
   668  002E                     ??___llmod:
   669  002E                     ??___flmul:	
   670                           ; 1 bytes @ 0xE
   671                           
   672                           
   673                           ; 1 bytes @ 0xE
   674  002E                     	ds	1
   675  002F                     ___llmod@counter:
   676                           
   677                           ; 1 bytes @ 0xF
   678  002F                     	ds	1
   679  0030                     ?_sprintf:
   680  0030                     sprintf@f:	
   681                           ; 2 bytes @ 0x10
   682                           
   683  0030                     ___flsub@b:	
   684                           ; 1 bytes @ 0x10
   685                           
   686                           
   687                           ; 4 bytes @ 0x10
   688  0030                     	ds	3
   689  0033                     ___flmul@sign:
   690                           
   691                           ; 1 bytes @ 0x13
   692  0033                     	ds	1
   693  0034                     ___flmul@grs:
   694                           
   695                           ; 4 bytes @ 0x14
   696  0034                     	ds	4
   697  0038                     ___flmul@aexp:
   698                           
   699                           ; 1 bytes @ 0x18
   700  0038                     	ds	1
   701  0039                     ??_sprintf:
   702  0039                     ___flmul@bexp:	
   703                           ; 1 bytes @ 0x19
   704                           
   705                           
   706                           ; 1 bytes @ 0x19
   707  0039                     	ds	1
   708  003A                     ___flmul@prod:
   709                           
   710                           ; 4 bytes @ 0x1A
   711  003A                     	ds	4
   712  003E                     sprintf@flag:
   713  003E                     ___flmul@temp:	
   714                           ; 1 bytes @ 0x1E
   715                           
   716                           
   717                           ; 2 bytes @ 0x1E
   718  003E                     	ds	1
   719  003F                     sprintf@ap:
   720                           
   721                           ; 1 bytes @ 0x1F
   722  003F                     	ds	1
   723  0040                     ??_I2C_WWW:
   724  0040                     ?___fltol:	
   725                           ; 1 bytes @ 0x20
   726                           
   727  0040                     ___fltol@f1:	
   728                           ; 4 bytes @ 0x20
   729                           
   730  0040                     sprintf@val:	
   731                           ; 4 bytes @ 0x20
   732                           
   733                           
   734                           ; 4 bytes @ 0x20
   735  0040                     	ds	4
   736  0044                     ??___fltol:
   737  0044                     sprintf@sp:	
   738                           ; 1 bytes @ 0x24
   739                           
   740  0044                     I2C_WWW@d:	
   741                           ; 1 bytes @ 0x24
   742                           
   743                           
   744                           ; 6 bytes @ 0x24
   745  0044                     	ds	1
   746  0045                     sprintf@width:
   747                           
   748                           ; 2 bytes @ 0x25
   749  0045                     	ds	2
   750  0047                     sprintf@prec:
   751                           
   752                           ; 2 bytes @ 0x27
   753  0047                     	ds	2
   754  0049                     ___fltol@sign1:
   755  0049                     sprintf@c:	
   756                           ; 1 bytes @ 0x29
   757                           
   758                           
   759                           ; 1 bytes @ 0x29
   760  0049                     	ds	1
   761  004A                     ___fltol@exp1:
   762  004A                     I2C_WWW@e:	
   763                           ; 1 bytes @ 0x2A
   764                           
   765                           
   766                           ; 6 bytes @ 0x2A
   767  004A                     	ds	1
   768  004B                     ?_ftoa:
   769  004B                     ftoa@f:	
   770                           ; 1 bytes @ 0x2B
   771                           
   772                           
   773                           ; 4 bytes @ 0x2B
   774  004B                     	ds	4
   775  004F                     ftoa@status:
   776                           
   777                           ; 1 bytes @ 0x2F
   778  004F                     	ds	1
   779  0050                     ??_ftoa:
   780  0050                     I2C_WWW@i:	
   781                           ; 1 bytes @ 0x30
   782                           
   783                           
   784                           ; 2 bytes @ 0x30
   785  0050                     	ds	1
   786  0051                     ftoa@rem:
   787                           
   788                           ; 4 bytes @ 0x31
   789  0051                     	ds	1
   790  0052                     I2C_WWW@dato:
   791                           
   792                           ; 1 bytes @ 0x32
   793  0052                     	ds	1
   794  0053                     I2C_WWW@i_187:
   795                           
   796                           ; 2 bytes @ 0x33
   797  0053                     	ds	2
   798  0055                     ftoa@l:
   799                           
   800                           ; 4 bytes @ 0x35
   801  0055                     	ds	4
   802  0059                     ftoa@cp:
   803                           
   804                           ; 1 bytes @ 0x39
   805  0059                     	ds	1
   806  005A                     ??_main:
   807                           
   808                           ; 1 bytes @ 0x3A
   809  005A                     	ds	3
   810  005D                     main@status:
   811                           
   812                           ; 2 bytes @ 0x3D
   813  005D                     	ds	2
   814  005F                     main@regs:
   815                           
   816                           ; 1 bytes @ 0x3F
   817  005F                     	ds	1
   818                           
   819                           	psect	maintext
   820  0CBB                     __pmaintext:	
   821 ;;
   822 ;;Main: autosize = 0, tempsize = 3, incstack = 0, save=0
   823 ;;
   824 ;; *************** function _main *****************
   825 ;; Defined at:
   826 ;;		line 39 in file "newmain.c"
   827 ;; Parameters:    Size  Location     Type
   828 ;;		None
   829 ;; Auto vars:     Size  Location     Type
   830 ;;  status          2   61[BANK0 ] int 
   831 ;;  regs            1   63[BANK0 ] PTR unsigned char 
   832 ;;		 -> ftoa@buf(17), 
   833 ;; Return value:  Size  Location     Type
   834 ;;                  1    wreg      void 
   835 ;; Registers used:
   836 ;;		wreg, fsr0l, fsr0h, status,2, status,0, btemp+1, pclath, cstack
   837 ;; Tracked objects:
   838 ;;		On entry : B00/0
   839 ;;		On exit  : 0/0
   840 ;;		Unchanged: 0/0
   841 ;; Data sizes:     COMMON   BANK0   BANK1   BANK3   BANK2
   842 ;;      Params:         0       0       0       0       0
   843 ;;      Locals:         0       3       0       0       0
   844 ;;      Temps:          0       3       0       0       0
   845 ;;      Totals:         0       6       0       0       0
   846 ;;Total ram usage:        6 bytes
   847 ;; Hardware stack levels required when called:    4
   848 ;; This function calls:
   849 ;;		_I2C_ConfigM
   850 ;;		_I2C_Master_Init
   851 ;;		_I2C_WWW
   852 ;;		_UARTSendChar
   853 ;;		_UARTSendString
   854 ;;		_ftoa
   855 ;;		_setup
   856 ;; This function is called by:
   857 ;;		Startup code after reset
   858 ;; This function uses a non-reentrant model
   859 ;;
   860                           
   861                           
   862                           ;psect for function _main
   863  0CBB                     _main:
   864  0CBB                     l2492:	
   865                           ;incstack = 0
   866                           ; Regs used in _main: [wreg-fsr0h+status,2+status,0+btemp+1+pclath+cstack]
   867                           
   868                           
   869                           ;newmain.c: 40:     _delay((unsigned long)((1000)*(4000000/4000.0)));
   870  0CBB  3006               	movlw	6
   871  0CBC  1283               	bcf	3,5	;RP0=0, select bank0
   872  0CBD  1303               	bcf	3,6	;RP1=0, select bank0
   873  0CBE  00DC               	movwf	??_main+2
   874  0CBF  3013               	movlw	19
   875  0CC0  00DB               	movwf	??_main+1
   876  0CC1  30AD               	movlw	173
   877  0CC2  00DA               	movwf	??_main
   878  0CC3                     u3457:
   879  0CC3  0BDA               	decfsz	??_main,f
   880  0CC4  2CC3               	goto	u3457
   881  0CC5  0BDB               	decfsz	??_main+1,f
   882  0CC6  2CC3               	goto	u3457
   883  0CC7  0BDC               	decfsz	??_main+2,f
   884  0CC8  2CC3               	goto	u3457
   885  0CC9                     l2494:
   886                           
   887                           ;newmain.c: 41:     setup();
   888  0CC9  120A  158A  205E  120A  158A  	fcall	_setup
   889  0CCE                     l2496:
   890                           
   891                           ;newmain.c: 42:     I2C_Master_Init(100000);
   892  0CCE  3000               	movlw	0
   893  0CCF  1283               	bcf	3,5	;RP0=0, select bank0
   894  0CD0  1303               	bcf	3,6	;RP1=0, select bank0
   895  0CD1  00A9               	movwf	I2C_Master_Init@c+3
   896  0CD2  3001               	movlw	1
   897  0CD3  00A8               	movwf	I2C_Master_Init@c+2
   898  0CD4  3086               	movlw	134
   899  0CD5  00A7               	movwf	I2C_Master_Init@c+1
   900  0CD6  30A0               	movlw	160
   901  0CD7  00A6               	movwf	I2C_Master_Init@c
   902  0CD8  120A  158A  2154  120A  158A  	fcall	_I2C_Master_Init
   903  0CDD                     l2498:
   904                           
   905                           ;newmain.c: 43:     I2C_ConfigM();
   906  0CDD  120A  158A  21E3  120A  158A  	fcall	_I2C_ConfigM
   907  0CE2                     l2500:
   908                           
   909                           ;newmain.c: 45:     {;newmain.c: 46:         PORTAbits.RA0=~PORTAbits.RA0;
   910  0CE2  1003               	clrc
   911  0CE3  1283               	bcf	3,5	;RP0=0, select bank0
   912  0CE4  1303               	bcf	3,6	;RP1=0, select bank0
   913  0CE5  1C05               	btfss	5,0	;volatile
   914  0CE6  1403               	setc
   915  0CE7  1803               	btfsc	3,0
   916  0CE8  2CEA               	goto	u3421
   917  0CE9  2CEE               	goto	u3420
   918  0CEA                     u3421:
   919  0CEA  1283               	bcf	3,5	;RP0=0, select bank0
   920  0CEB  1303               	bcf	3,6	;RP1=0, select bank0
   921  0CEC  1405               	bsf	5,0	;volatile
   922  0CED  2CF1               	goto	u3434
   923  0CEE                     u3420:
   924  0CEE  1283               	bcf	3,5	;RP0=0, select bank0
   925  0CEF  1303               	bcf	3,6	;RP1=0, select bank0
   926  0CF0  1005               	bcf	5,0	;volatile
   927  0CF1                     u3434:
   928                           
   929                           ;newmain.c: 47:         switch(ledsu){
   930  0CF1  2CFD               	goto	l2512
   931  0CF2                     l2502:
   932                           
   933                           ;newmain.c: 49:                 PORTB=0;
   934  0CF2  0186               	clrf	6	;volatile
   935                           
   936                           ;newmain.c: 50:                 break;
   937  0CF3  2D13               	goto	l2514
   938  0CF4                     l2504:
   939                           
   940                           ;newmain.c: 52:                 PORTB=1;
   941  0CF4  3001               	movlw	1
   942  0CF5  0086               	movwf	6	;volatile
   943                           
   944                           ;newmain.c: 53:                 break;
   945  0CF6  2D13               	goto	l2514
   946  0CF7                     l2506:
   947                           
   948                           ;newmain.c: 55:                 PORTB=2;
   949  0CF7  3002               	movlw	2
   950  0CF8  0086               	movwf	6	;volatile
   951                           
   952                           ;newmain.c: 56:                 break;
   953  0CF9  2D13               	goto	l2514
   954  0CFA                     l2508:
   955                           
   956                           ;newmain.c: 58:                 PORTB=3;
   957  0CFA  3003               	movlw	3
   958  0CFB  0086               	movwf	6	;volatile
   959                           
   960                           ;newmain.c: 59:                 break;
   961  0CFC  2D13               	goto	l2514
   962  0CFD                     l2512:
   963  0CFD  0860               	movf	_ledsu,w
   964  0CFE  00DA               	movwf	??_main
   965  0CFF  01DB               	clrf	??_main+1
   966                           
   967                           ; Switch on 2 bytes has been partitioned into a top level switch of size 1, and 1 sub-sw
      +                          itches
   968                           ; Switch size 1, requested type "simple"
   969                           ; Number of cases is 1, Range of values is 0 to 0
   970                           ; switch strategies available:
   971                           ; Name         Instructions Cycles
   972                           ; simple_byte            4     3 (average)
   973                           ; direct_byte           11     8 (fixed)
   974                           ; jumptable            260     6 (fixed)
   975                           ;	Chosen strategy is simple_byte
   976  0D00  085B               	movf	??_main+1,w
   977  0D01  3A00               	xorlw	0	; case 0
   978  0D02  1903               	skipnz
   979  0D03  2D05               	goto	l2584
   980  0D04  2D13               	goto	l2514
   981  0D05                     l2584:
   982                           
   983                           ; Switch size 1, requested type "simple"
   984                           ; Number of cases is 4, Range of values is 0 to 3
   985                           ; switch strategies available:
   986                           ; Name         Instructions Cycles
   987                           ; simple_byte           13     7 (average)
   988                           ; direct_byte           20     8 (fixed)
   989                           ; jumptable            260     6 (fixed)
   990                           ;	Chosen strategy is simple_byte
   991  0D05  085A               	movf	??_main,w
   992  0D06  3A00               	xorlw	0	; case 0
   993  0D07  1903               	skipnz
   994  0D08  2CF2               	goto	l2502
   995  0D09  3A01               	xorlw	1	; case 1
   996  0D0A  1903               	skipnz
   997  0D0B  2CF4               	goto	l2504
   998  0D0C  3A03               	xorlw	3	; case 2
   999  0D0D  1903               	skipnz
  1000  0D0E  2CF7               	goto	l2506
  1001  0D0F  3A01               	xorlw	1	; case 3
  1002  0D10  1903               	skipnz
  1003  0D11  2CFA               	goto	l2508
  1004  0D12  2D13               	goto	l2514
  1005  0D13                     l2514:
  1006                           
  1007                           ;newmain.c: 61:         I2C_WWW(I2gato);
  1008  0D13  3061               	movlw	(low (_I2gato| 0))& (0+255)
  1009  0D14  120A  118A  260D  120A  158A  	fcall	_I2C_WWW
  1010                           
  1011                           ;newmain.c: 62:         char *regs;;newmain.c: 63:         int status;;newmain.c: 64:   
      +                                regs=ftoa(I2gato[0],&status);
  1012  0D19  1283               	bcf	3,5	;RP0=0, select bank0
  1013  0D1A  1303               	bcf	3,6	;RP1=0, select bank0
  1014  0D1B  0864               	movf	_I2gato+3,w
  1015  0D1C  00CE               	movwf	ftoa@f+3
  1016  0D1D  0863               	movf	_I2gato+2,w
  1017  0D1E  00CD               	movwf	ftoa@f+2
  1018  0D1F  0862               	movf	_I2gato+1,w
  1019  0D20  00CC               	movwf	ftoa@f+1
  1020  0D21  0861               	movf	_I2gato,w
  1021  0D22  00CB               	movwf	ftoa@f
  1022  0D23  305D               	movlw	(low (main@status| 0))& (0+255)
  1023  0D24  00DA               	movwf	??_main
  1024  0D25  085A               	movf	??_main,w
  1025  0D26  00CF               	movwf	ftoa@status
  1026  0D27  120A  158A  23E6  120A  158A  	fcall	_ftoa
  1027  0D2C  1283               	bcf	3,5	;RP0=0, select bank0
  1028  0D2D  1303               	bcf	3,6	;RP1=0, select bank0
  1029  0D2E  00DB               	movwf	??_main+1
  1030  0D2F  085B               	movf	??_main+1,w
  1031  0D30  00DF               	movwf	main@regs
  1032  0D31                     l2516:
  1033                           
  1034                           ;newmain.c: 65:         UARTSendString(regs,6);
  1035  0D31  3006               	movlw	6
  1036  0D32  00DA               	movwf	??_main
  1037  0D33  085A               	movf	??_main,w
  1038  0D34  00F4               	movwf	UARTSendString@max_length
  1039  0D35  085F               	movf	main@regs,w
  1040  0D36  120A  158A  20F3  120A  158A  	fcall	_UARTSendString
  1041  0D3B                     l2518:
  1042                           
  1043                           ;newmain.c: 66:         UARTSendChar(' ');
  1044  0D3B  3020               	movlw	32
  1045  0D3C  160A  118A  27E7  120A  158A  	fcall	_UARTSendChar
  1046  0D41                     l2520:
  1047                           
  1048                           ;newmain.c: 67:         regs=ftoa(I2gato[1],&status);
  1049  0D41  3004               	movlw	4
  1050  0D42  3E61               	addlw	(low (_I2gato| 0))& (0+255)
  1051  0D43  0084               	movwf	4
  1052  0D44  1383               	bcf	3,7	;select IRP bank0
  1053  0D45  0800               	movf	0,w
  1054  0D46  1283               	bcf	3,5	;RP0=0, select bank0
  1055  0D47  1303               	bcf	3,6	;RP1=0, select bank0
  1056  0D48  00CB               	movwf	ftoa@f
  1057  0D49  0A84               	incf	4,f
  1058  0D4A  0800               	movf	0,w
  1059  0D4B  00CC               	movwf	ftoa@f+1
  1060  0D4C  0A84               	incf	4,f
  1061  0D4D  0800               	movf	0,w
  1062  0D4E  00CD               	movwf	ftoa@f+2
  1063  0D4F  0A84               	incf	4,f
  1064  0D50  0800               	movf	0,w
  1065  0D51  00CE               	movwf	ftoa@f+3
  1066  0D52  305D               	movlw	(low (main@status| 0))& (0+255)
  1067  0D53  00DA               	movwf	??_main
  1068  0D54  085A               	movf	??_main,w
  1069  0D55  00CF               	movwf	ftoa@status
  1070  0D56  120A  158A  23E6  120A  158A  	fcall	_ftoa
  1071  0D5B  1283               	bcf	3,5	;RP0=0, select bank0
  1072  0D5C  1303               	bcf	3,6	;RP1=0, select bank0
  1073  0D5D  00DB               	movwf	??_main+1
  1074  0D5E  085B               	movf	??_main+1,w
  1075  0D5F  00DF               	movwf	main@regs
  1076  0D60                     l2522:
  1077                           
  1078                           ;newmain.c: 68:         UARTSendString(regs,6);
  1079  0D60  3006               	movlw	6
  1080  0D61  00DA               	movwf	??_main
  1081  0D62  085A               	movf	??_main,w
  1082  0D63  00F4               	movwf	UARTSendString@max_length
  1083  0D64  085F               	movf	main@regs,w
  1084  0D65  120A  158A  20F3  120A  158A  	fcall	_UARTSendString
  1085                           
  1086                           ;newmain.c: 69:         UARTSendChar(' ');
  1087  0D6A  3020               	movlw	32
  1088  0D6B  160A  118A  27E7  120A  158A  	fcall	_UARTSendChar
  1089  0D70                     l2524:
  1090                           
  1091                           ;newmain.c: 70:         regs=ftoa(I2gato[2],&status);
  1092  0D70  3008               	movlw	8
  1093  0D71  3E61               	addlw	(low (_I2gato| 0))& (0+255)
  1094  0D72  0084               	movwf	4
  1095  0D73  1383               	bcf	3,7	;select IRP bank0
  1096  0D74  0800               	movf	0,w
  1097  0D75  1283               	bcf	3,5	;RP0=0, select bank0
  1098  0D76  1303               	bcf	3,6	;RP1=0, select bank0
  1099  0D77  00CB               	movwf	ftoa@f
  1100  0D78  0A84               	incf	4,f
  1101  0D79  0800               	movf	0,w
  1102  0D7A  00CC               	movwf	ftoa@f+1
  1103  0D7B  0A84               	incf	4,f
  1104  0D7C  0800               	movf	0,w
  1105  0D7D  00CD               	movwf	ftoa@f+2
  1106  0D7E  0A84               	incf	4,f
  1107  0D7F  0800               	movf	0,w
  1108  0D80  00CE               	movwf	ftoa@f+3
  1109  0D81  305D               	movlw	(low (main@status| 0))& (0+255)
  1110  0D82  00DA               	movwf	??_main
  1111  0D83  085A               	movf	??_main,w
  1112  0D84  00CF               	movwf	ftoa@status
  1113  0D85  120A  158A  23E6  120A  158A  	fcall	_ftoa
  1114  0D8A  1283               	bcf	3,5	;RP0=0, select bank0
  1115  0D8B  1303               	bcf	3,6	;RP1=0, select bank0
  1116  0D8C  00DB               	movwf	??_main+1
  1117  0D8D  085B               	movf	??_main+1,w
  1118  0D8E  00DF               	movwf	main@regs
  1119  0D8F                     l2526:
  1120                           
  1121                           ;newmain.c: 71:         UARTSendString(regs,6);
  1122  0D8F  3006               	movlw	6
  1123  0D90  00DA               	movwf	??_main
  1124  0D91  085A               	movf	??_main,w
  1125  0D92  00F4               	movwf	UARTSendString@max_length
  1126  0D93  085F               	movf	main@regs,w
  1127  0D94  120A  158A  20F3  120A  158A  	fcall	_UARTSendString
  1128  0D99                     l2528:
  1129                           
  1130                           ;newmain.c: 72:         UARTSendChar(' ');
  1131  0D99  3020               	movlw	32
  1132  0D9A  160A  118A  27E7  120A  158A  	fcall	_UARTSendChar
  1133  0D9F                     l2530:
  1134                           
  1135                           ;newmain.c: 73:         UARTSendChar('\n');
  1136  0D9F  300A               	movlw	10
  1137  0DA0  160A  118A  27E7  120A  158A  	fcall	_UARTSendChar
  1138  0DA5                     l2532:
  1139                           
  1140                           ;newmain.c: 74:         _delay((unsigned long)((5)*(4000000/4000.0)));
  1141  0DA5  3007               	movlw	7
  1142  0DA6  1283               	bcf	3,5	;RP0=0, select bank0
  1143  0DA7  1303               	bcf	3,6	;RP1=0, select bank0
  1144  0DA8  00DB               	movwf	??_main+1
  1145  0DA9  307C               	movlw	124
  1146  0DAA  00DA               	movwf	??_main
  1147  0DAB                     u3467:
  1148  0DAB  0BDA               	decfsz	??_main,f
  1149  0DAC  2DAB               	goto	u3467
  1150  0DAD  0BDB               	decfsz	??_main+1,f
  1151  0DAE  2DAB               	goto	u3467
  1152  0DAF  0000               	nop
  1153  0DB0  2CE2               	goto	l2500
  1154  0DB1  120A  118A  280C   	ljmp	start
  1155  0DB4                     __end_of_main:
  1156                           
  1157                           	psect	text1
  1158  085E                     __ptext1:	
  1159 ;; *************** function _setup *****************
  1160 ;; Defined at:
  1161 ;;		line 79 in file "newmain.c"
  1162 ;; Parameters:    Size  Location     Type
  1163 ;;		None
  1164 ;; Auto vars:     Size  Location     Type
  1165 ;;		None
  1166 ;; Return value:  Size  Location     Type
  1167 ;;                  1    wreg      void 
  1168 ;; Registers used:
  1169 ;;		wreg, status,2
  1170 ;; Tracked objects:
  1171 ;;		On entry : 0/0
  1172 ;;		On exit  : 0/0
  1173 ;;		Unchanged: 0/0
  1174 ;; Data sizes:     COMMON   BANK0   BANK1   BANK3   BANK2
  1175 ;;      Params:         0       0       0       0       0
  1176 ;;      Locals:         0       0       0       0       0
  1177 ;;      Temps:          0       0       0       0       0
  1178 ;;      Totals:         0       0       0       0       0
  1179 ;;Total ram usage:        0 bytes
  1180 ;; Hardware stack levels used:    1
  1181 ;; Hardware stack levels required when called:    1
  1182 ;; This function calls:
  1183 ;;		Nothing
  1184 ;; This function is called by:
  1185 ;;		_main
  1186 ;; This function uses a non-reentrant model
  1187 ;;
  1188                           
  1189                           
  1190                           ;psect for function _setup
  1191  085E                     _setup:
  1192  085E                     l2430:	
  1193                           ;incstack = 0
  1194                           ; Regs used in _setup: [wreg+status,2]
  1195                           
  1196                           
  1197                           ;newmain.c: 80:     TRISA = 0b00000000;
  1198  085E  1683               	bsf	3,5	;RP0=1, select bank1
  1199  085F  1303               	bcf	3,6	;RP1=0, select bank1
  1200  0860  0185               	clrf	5	;volatile
  1201                           
  1202                           ;newmain.c: 81:     TRISB = 0b00000000;
  1203  0861  0186               	clrf	6	;volatile
  1204  0862                     l2432:
  1205                           
  1206                           ;newmain.c: 82:     TRISC = 0b11011000;
  1207  0862  30D8               	movlw	216
  1208  0863  0087               	movwf	7	;volatile
  1209  0864                     l2434:
  1210                           
  1211                           ;newmain.c: 83:     TRISD = 0b00000000;
  1212  0864  0188               	clrf	8	;volatile
  1213  0865                     l2436:
  1214                           
  1215                           ;newmain.c: 84:     TRISE = 0b00000000;
  1216  0865  0189               	clrf	9	;volatile
  1217  0866                     l2438:
  1218                           
  1219                           ;newmain.c: 85:     ANSEL = 0b00000000;
  1220  0866  1683               	bsf	3,5	;RP0=1, select bank3
  1221  0867  1703               	bsf	3,6	;RP1=1, select bank3
  1222  0868  0188               	clrf	8	;volatile
  1223  0869                     l2440:
  1224                           
  1225                           ;newmain.c: 86:     ANSELH = 0b00000000;
  1226  0869  0189               	clrf	9	;volatile
  1227  086A                     l2442:
  1228                           
  1229                           ;newmain.c: 87:     PORTA = 0b00000000;
  1230  086A  1283               	bcf	3,5	;RP0=0, select bank0
  1231  086B  1303               	bcf	3,6	;RP1=0, select bank0
  1232  086C  0185               	clrf	5	;volatile
  1233  086D                     l2444:
  1234                           
  1235                           ;newmain.c: 88:     PORTB = 0b00000000;
  1236  086D  0186               	clrf	6	;volatile
  1237  086E                     l2446:
  1238                           
  1239                           ;newmain.c: 89:     PORTD = 0b00000000;
  1240  086E  0188               	clrf	8	;volatile
  1241  086F                     l2448:
  1242                           
  1243                           ;newmain.c: 90:     ledsu = 0;
  1244  086F  01E0               	clrf	_ledsu
  1245  0870                     l2450:
  1246                           
  1247                           ;newmain.c: 91:     INTCON = 0b11000000;
  1248  0870  30C0               	movlw	192
  1249  0871  008B               	movwf	11	;volatile
  1250  0872                     l2452:
  1251                           
  1252                           ;newmain.c: 92:     PIE1 = 0b00100000;
  1253  0872  3020               	movlw	32
  1254  0873  1683               	bsf	3,5	;RP0=1, select bank1
  1255  0874  1303               	bcf	3,6	;RP1=0, select bank1
  1256  0875  008C               	movwf	12	;volatile
  1257  0876                     l2454:
  1258                           
  1259                           ;newmain.c: 93:     TXSTA = 0b00100100;
  1260  0876  3024               	movlw	36
  1261  0877  0098               	movwf	24	;volatile
  1262  0878                     l2456:
  1263                           
  1264                           ;newmain.c: 94:     RCSTA = 0b10010000;
  1265  0878  3090               	movlw	144
  1266  0879  1283               	bcf	3,5	;RP0=0, select bank0
  1267  087A  1303               	bcf	3,6	;RP1=0, select bank0
  1268  087B  0098               	movwf	24	;volatile
  1269  087C                     l2458:
  1270                           
  1271                           ;newmain.c: 95:     SPBRG = 0b00011001;
  1272  087C  3019               	movlw	25
  1273  087D  1683               	bsf	3,5	;RP0=1, select bank1
  1274  087E  1303               	bcf	3,6	;RP1=0, select bank1
  1275  087F  0099               	movwf	25	;volatile
  1276  0880                     l139:
  1277  0880  0008               	return
  1278  0881                     __end_of_setup:
  1279                           
  1280                           	psect	text2
  1281  0BE6                     __ptext2:	
  1282 ;; *************** function _ftoa *****************
  1283 ;; Defined at:
  1284 ;;		line 6 in file "D:\Program Files\Microchip\xc8\v2.31\pic\sources\c90\common\ftoa.c"
  1285 ;; Parameters:    Size  Location     Type
  1286 ;;  f               4   43[BANK0 ] float 
  1287 ;;  status          1   47[BANK0 ] PTR int 
  1288 ;;		 -> main@status(2), 
  1289 ;; Auto vars:     Size  Location     Type
  1290 ;;  l               4   53[BANK0 ] unsigned long 
  1291 ;;  rem             4   49[BANK0 ] unsigned long 
  1292 ;;  cp              1   57[BANK0 ] PTR unsigned char 
  1293 ;;		 -> ftoa@buf(17), 
  1294 ;; Return value:  Size  Location     Type
  1295 ;;                  1    wreg      PTR unsigned char 
  1296 ;; Registers used:
  1297 ;;		wreg, fsr0l, fsr0h, status,2, status,0, btemp+1, pclath, cstack
  1298 ;; Tracked objects:
  1299 ;;		On entry : 0/0
  1300 ;;		On exit  : 0/0
  1301 ;;		Unchanged: 0/0
  1302 ;; Data sizes:     COMMON   BANK0   BANK1   BANK3   BANK2
  1303 ;;      Params:         0       5       0       0       0
  1304 ;;      Locals:         0       9       0       0       0
  1305 ;;      Temps:          0       1       0       0       0
  1306 ;;      Totals:         0      15       0       0       0
  1307 ;;Total ram usage:       15 bytes
  1308 ;; Hardware stack levels used:    1
  1309 ;; Hardware stack levels required when called:    3
  1310 ;; This function calls:
  1311 ;;		___flge
  1312 ;;		___flmul
  1313 ;;		___flneg
  1314 ;;		___flsub
  1315 ;;		___fltol
  1316 ;;		___xxtofl
  1317 ;;		_sprintf
  1318 ;; This function is called by:
  1319 ;;		_main
  1320 ;; This function uses a non-reentrant model
  1321 ;;
  1322                           
  1323                           
  1324                           ;psect for function _ftoa
  1325  0BE6                     _ftoa:
  1326  0BE6                     l2460:	
  1327                           ;incstack = 0
  1328                           ; Regs used in _ftoa: [wreg-fsr0h+status,2+status,0+btemp+1+pclath+cstack]
  1329                           
  1330  0BE6  30A0               	movlw	(low (ftoa@buf| 0))& (0+255)
  1331  0BE7  1283               	bcf	3,5	;RP0=0, select bank0
  1332  0BE8  1303               	bcf	3,6	;RP1=0, select bank0
  1333  0BE9  00D0               	movwf	??_ftoa
  1334  0BEA  0850               	movf	??_ftoa,w
  1335  0BEB  00D9               	movwf	ftoa@cp
  1336  0BEC                     l2462:
  1337  0BEC  084E               	movf	ftoa@f+3,w
  1338  0BED  00F6               	movwf	___flge@ff1+3
  1339  0BEE  084D               	movf	ftoa@f+2,w
  1340  0BEF  00F5               	movwf	___flge@ff1+2
  1341  0BF0  084C               	movf	ftoa@f+1,w
  1342  0BF1  00F4               	movwf	___flge@ff1+1
  1343  0BF2  084B               	movf	ftoa@f,w
  1344  0BF3  00F3               	movwf	___flge@ff1
  1345  0BF4  3000               	movlw	0
  1346  0BF5  00FA               	movwf	___flge@ff2+3
  1347  0BF6  3000               	movlw	0
  1348  0BF7  00F9               	movwf	___flge@ff2+2
  1349  0BF8  3000               	movlw	0
  1350  0BF9  00F8               	movwf	___flge@ff2+1
  1351  0BFA  3000               	movlw	0
  1352  0BFB  00F7               	movwf	___flge@ff2
  1353  0BFC  120A  118A  274A  120A  158A  	fcall	___flge
  1354  0C01  1803               	btfsc	3,0
  1355  0C02  2C04               	goto	u3391
  1356  0C03  2C05               	goto	u3390
  1357  0C04                     u3391:
  1358  0C04  2C29               	goto	l2470
  1359  0C05                     u3390:
  1360  0C05                     l2464:
  1361  0C05  302D               	movlw	45
  1362  0C06  1283               	bcf	3,5	;RP0=0, select bank0
  1363  0C07  1303               	bcf	3,6	;RP1=0, select bank0
  1364  0C08  00D0               	movwf	??_ftoa
  1365  0C09  0859               	movf	ftoa@cp,w
  1366  0C0A  0084               	movwf	4
  1367  0C0B  0850               	movf	??_ftoa,w
  1368  0C0C  1383               	bcf	3,7	;select IRP bank0
  1369  0C0D  0080               	movwf	0
  1370  0C0E                     l2466:
  1371  0C0E  3001               	movlw	1
  1372  0C0F  00D0               	movwf	??_ftoa
  1373  0C10  0850               	movf	??_ftoa,w
  1374  0C11  07D9               	addwf	ftoa@cp,f
  1375  0C12                     l2468:
  1376  0C12  084E               	movf	ftoa@f+3,w
  1377  0C13  00F6               	movwf	___flneg@f1+3
  1378  0C14  084D               	movf	ftoa@f+2,w
  1379  0C15  00F5               	movwf	___flneg@f1+2
  1380  0C16  084C               	movf	ftoa@f+1,w
  1381  0C17  00F4               	movwf	___flneg@f1+1
  1382  0C18  084B               	movf	ftoa@f,w
  1383  0C19  00F3               	movwf	___flneg@f1
  1384  0C1A  160A  118A  27DC  120A  158A  	fcall	___flneg
  1385  0C1F  0876               	movf	?___flneg+3,w
  1386  0C20  1283               	bcf	3,5	;RP0=0, select bank0
  1387  0C21  1303               	bcf	3,6	;RP1=0, select bank0
  1388  0C22  00CE               	movwf	ftoa@f+3
  1389  0C23  0875               	movf	?___flneg+2,w
  1390  0C24  00CD               	movwf	ftoa@f+2
  1391  0C25  0874               	movf	?___flneg+1,w
  1392  0C26  00CC               	movwf	ftoa@f+1
  1393  0C27  0873               	movf	?___flneg,w
  1394  0C28  00CB               	movwf	ftoa@f
  1395  0C29                     l2470:
  1396  0C29  1283               	bcf	3,5	;RP0=0, select bank0
  1397  0C2A  1303               	bcf	3,6	;RP1=0, select bank0
  1398  0C2B  084E               	movf	ftoa@f+3,w
  1399  0C2C  00C3               	movwf	___fltol@f1+3
  1400  0C2D  084D               	movf	ftoa@f+2,w
  1401  0C2E  00C2               	movwf	___fltol@f1+2
  1402  0C2F  084C               	movf	ftoa@f+1,w
  1403  0C30  00C1               	movwf	___fltol@f1+1
  1404  0C31  084B               	movf	ftoa@f,w
  1405  0C32  00C0               	movwf	___fltol@f1
  1406  0C33  120A  158A  22AE  120A  158A  	fcall	___fltol
  1407  0C38  1283               	bcf	3,5	;RP0=0, select bank0
  1408  0C39  1303               	bcf	3,6	;RP1=0, select bank0
  1409  0C3A  0843               	movf	?___fltol+3,w
  1410  0C3B  00D8               	movwf	ftoa@l+3
  1411  0C3C  0842               	movf	?___fltol+2,w
  1412  0C3D  00D7               	movwf	ftoa@l+2
  1413  0C3E  0841               	movf	?___fltol+1,w
  1414  0C3F  00D6               	movwf	ftoa@l+1
  1415  0C40  0840               	movf	?___fltol,w
  1416  0C41  00D5               	movwf	ftoa@l
  1417  0C42                     l2472:
  1418  0C42  0858               	movf	ftoa@l+3,w
  1419  0C43  00F6               	movwf	___xxtofl@val+3
  1420  0C44  0857               	movf	ftoa@l+2,w
  1421  0C45  00F5               	movwf	___xxtofl@val+2
  1422  0C46  0856               	movf	ftoa@l+1,w
  1423  0C47  00F4               	movwf	___xxtofl@val+1
  1424  0C48  0855               	movf	ftoa@l,w
  1425  0C49  00F3               	movwf	___xxtofl@val
  1426  0C4A  3000               	movlw	0
  1427  0C4B  120A  158A  232A  120A  158A  	fcall	___xxtofl
  1428  0C50  0876               	movf	?___xxtofl+3,w
  1429  0C51  1283               	bcf	3,5	;RP0=0, select bank0
  1430  0C52  1303               	bcf	3,6	;RP1=0, select bank0
  1431  0C53  00AF               	movwf	___flsub@a+3
  1432  0C54  0875               	movf	?___xxtofl+2,w
  1433  0C55  00AE               	movwf	___flsub@a+2
  1434  0C56  0874               	movf	?___xxtofl+1,w
  1435  0C57  00AD               	movwf	___flsub@a+1
  1436  0C58  0873               	movf	?___xxtofl,w
  1437  0C59  00AC               	movwf	___flsub@a
  1438  0C5A  084E               	movf	ftoa@f+3,w
  1439  0C5B  00B3               	movwf	___flsub@b+3
  1440  0C5C  084D               	movf	ftoa@f+2,w
  1441  0C5D  00B2               	movwf	___flsub@b+2
  1442  0C5E  084C               	movf	ftoa@f+1,w
  1443  0C5F  00B1               	movwf	___flsub@b+1
  1444  0C60  084B               	movf	ftoa@f,w
  1445  0C61  00B0               	movwf	___flsub@b
  1446  0C62  120A  158A  2081  120A  158A  	fcall	___flsub
  1447  0C67  1283               	bcf	3,5	;RP0=0, select bank0
  1448  0C68  1303               	bcf	3,6	;RP1=0, select bank0
  1449  0C69  082F               	movf	?___flsub+3,w
  1450  0C6A  00CE               	movwf	ftoa@f+3
  1451  0C6B  082E               	movf	?___flsub+2,w
  1452  0C6C  00CD               	movwf	ftoa@f+2
  1453  0C6D  082D               	movf	?___flsub+1,w
  1454  0C6E  00CC               	movwf	ftoa@f+1
  1455  0C6F  082C               	movf	?___flsub,w
  1456  0C70  00CB               	movwf	ftoa@f
  1457  0C71                     l2474:
  1458  0C71  084E               	movf	ftoa@f+3,w
  1459  0C72  00AD               	movwf	___flmul@a+3
  1460  0C73  084D               	movf	ftoa@f+2,w
  1461  0C74  00AC               	movwf	___flmul@a+2
  1462  0C75  084C               	movf	ftoa@f+1,w
  1463  0C76  00AB               	movwf	___flmul@a+1
  1464  0C77  084B               	movf	ftoa@f,w
  1465  0C78  00AA               	movwf	___flmul@a
  1466  0C79  3049               	movlw	73
  1467  0C7A  00A9               	movwf	___flmul@b+3
  1468  0C7B  3074               	movlw	116
  1469  0C7C  00A8               	movwf	___flmul@b+2
  1470  0C7D  3024               	movlw	36
  1471  0C7E  00A7               	movwf	___flmul@b+1
  1472  0C7F  3000               	movlw	0
  1473  0C80  00A6               	movwf	___flmul@b
  1474  0C81  120A  118A  2024  120A  158A  	fcall	___flmul
  1475  0C86  1283               	bcf	3,5	;RP0=0, select bank0
  1476  0C87  1303               	bcf	3,6	;RP1=0, select bank0
  1477  0C88  0829               	movf	?___flmul+3,w
  1478  0C89  00C3               	movwf	___fltol@f1+3
  1479  0C8A  0828               	movf	?___flmul+2,w
  1480  0C8B  00C2               	movwf	___fltol@f1+2
  1481  0C8C  0827               	movf	?___flmul+1,w
  1482  0C8D  00C1               	movwf	___fltol@f1+1
  1483  0C8E  0826               	movf	?___flmul,w
  1484  0C8F  00C0               	movwf	___fltol@f1
  1485  0C90  120A  158A  22AE  120A  158A  	fcall	___fltol
  1486  0C95  1283               	bcf	3,5	;RP0=0, select bank0
  1487  0C96  1303               	bcf	3,6	;RP1=0, select bank0
  1488  0C97  0843               	movf	?___fltol+3,w
  1489  0C98  00D4               	movwf	ftoa@rem+3
  1490  0C99  0842               	movf	?___fltol+2,w
  1491  0C9A  00D3               	movwf	ftoa@rem+2
  1492  0C9B  0841               	movf	?___fltol+1,w
  1493  0C9C  00D2               	movwf	ftoa@rem+1
  1494  0C9D  0840               	movf	?___fltol,w
  1495  0C9E  00D1               	movwf	ftoa@rem
  1496  0C9F                     l2476:
  1497  0C9F  3029               	movlw	(low ((STR_1-__stringbase)| (0+32768)))& (0+255)
  1498  0CA0  00D0               	movwf	??_ftoa
  1499  0CA1  0850               	movf	??_ftoa,w
  1500  0CA2  00B0               	movwf	sprintf@f
  1501  0CA3  0858               	movf	ftoa@l+3,w
  1502  0CA4  00B4               	movwf	?_sprintf+4
  1503  0CA5  0857               	movf	ftoa@l+2,w
  1504  0CA6  00B3               	movwf	?_sprintf+3
  1505  0CA7  0856               	movf	ftoa@l+1,w
  1506  0CA8  00B2               	movwf	?_sprintf+2
  1507  0CA9  0855               	movf	ftoa@l,w
  1508  0CAA  00B1               	movwf	?_sprintf+1
  1509  0CAB  0854               	movf	ftoa@rem+3,w
  1510  0CAC  00B8               	movwf	?_sprintf+8
  1511  0CAD  0853               	movf	ftoa@rem+2,w
  1512  0CAE  00B7               	movwf	?_sprintf+7
  1513  0CAF  0852               	movf	ftoa@rem+1,w
  1514  0CB0  00B6               	movwf	?_sprintf+6
  1515  0CB1  0851               	movf	ftoa@rem,w
  1516  0CB2  00B5               	movwf	?_sprintf+5
  1517  0CB3  0859               	movf	ftoa@cp,w
  1518  0CB4  120A  158A  25B4  120A  158A  	fcall	_sprintf
  1519  0CB9                     l2478:
  1520  0CB9  30A0               	movlw	(low (ftoa@buf| 0))& (0+255)
  1521  0CBA                     l701:
  1522  0CBA  0008               	return
  1523  0CBB                     __end_of_ftoa:
  1524                           
  1525                           	psect	text3
  1526  0DB4                     __ptext3:	
  1527 ;; *************** function _sprintf *****************
  1528 ;; Defined at:
  1529 ;;		line 505 in file "D:\Program Files\Microchip\xc8\v2.31\pic\sources\c90\common\doprnt.c"
  1530 ;; Parameters:    Size  Location     Type
  1531 ;;  sp              1    wreg     PTR unsigned char 
  1532 ;;		 -> ftoa@buf(17), 
  1533 ;;  f               1   16[BANK0 ] PTR const unsigned char 
  1534 ;;		 -> STR_1(11), 
  1535 ;; Auto vars:     Size  Location     Type
  1536 ;;  sp              1   36[BANK0 ] PTR unsigned char 
  1537 ;;		 -> ftoa@buf(17), 
  1538 ;;  val             4   32[BANK0 ] unsigned long 
  1539 ;;  tmpval          4    0        struct .
  1540 ;;  prec            2   39[BANK0 ] int 
  1541 ;;  width           2   37[BANK0 ] int 
  1542 ;;  cp              2    0        PTR const unsigned char 
  1543 ;;  len             2    0        unsigned int 
  1544 ;;  c               1   41[BANK0 ] unsigned char 
  1545 ;;  ap              1   31[BANK0 ] PTR void [1]
  1546 ;;		 -> ?_sprintf(2), 
  1547 ;;  flag            1   30[BANK0 ] unsigned char 
  1548 ;; Return value:  Size  Location     Type
  1549 ;;                  2   16[BANK0 ] int 
  1550 ;; Registers used:
  1551 ;;		wreg, fsr0l, fsr0h, status,2, status,0, pclath, cstack
  1552 ;; Tracked objects:
  1553 ;;		On entry : 0/0
  1554 ;;		On exit  : 0/0
  1555 ;;		Unchanged: 0/0
  1556 ;; Data sizes:     COMMON   BANK0   BANK1   BANK3   BANK2
  1557 ;;      Params:         0       9       0       0       0
  1558 ;;      Locals:         0      12       0       0       0
  1559 ;;      Temps:          0       5       0       0       0
  1560 ;;      Totals:         0      26       0       0       0
  1561 ;;Total ram usage:       26 bytes
  1562 ;; Hardware stack levels used:    1
  1563 ;; Hardware stack levels required when called:    2
  1564 ;; This function calls:
  1565 ;;		___lldiv
  1566 ;;		___llmod
  1567 ;;		___wmul
  1568 ;;		_isdigit
  1569 ;; This function is called by:
  1570 ;;		_ftoa
  1571 ;; This function uses a non-reentrant model
  1572 ;;
  1573                           
  1574                           
  1575                           ;psect for function _sprintf
  1576  0DB4                     _sprintf:
  1577                           
  1578                           ;incstack = 0
  1579                           ; Regs used in _sprintf: [wreg-fsr0h+status,2+status,0+pclath+cstack]
  1580                           ;sprintf@sp stored from wreg
  1581  0DB4  1283               	bcf	3,5	;RP0=0, select bank0
  1582  0DB5  1303               	bcf	3,6	;RP1=0, select bank0
  1583  0DB6  00C4               	movwf	sprintf@sp
  1584  0DB7                     l2278:
  1585                           
  1586                           ;D:\Program Files\Microchip\xc8\v2.31\pic\sources\c90\common\doprnt.c: 505: sprintf(char
      +                           * sp, const char * f, ...);D:\Program Files\Microchip\xc8\v2.31\pic\sources\c90\common\
      +                          doprnt.c: 506: {;D:\Program Files\Microchip\xc8\v2.31\pic\sources\c90\common\doprnt.c: 5
      +                          07:  va_list ap;;D:\Program Files\Microchip\xc8\v2.31\pic\sources\c90\common\doprnt.c: 5
      +                          12:  char c;;D:\Program Files\Microchip\xc8\v2.31\pic\sources\c90\common\doprnt.c: 514: 
      +                           int width;;D:\Program Files\Microchip\xc8\v2.31\pic\sources\c90\common\doprnt.c: 517:  
      +                          int prec;
  1587  0DB7  3031               	movlw	(low ((?_sprintf| 0+1)))& (0+255)
  1588  0DB8  00B9               	movwf	??_sprintf
  1589  0DB9  0839               	movf	??_sprintf,w
  1590  0DBA  00BF               	movwf	sprintf@ap
  1591                           
  1592                           ;D:\Program Files\Microchip\xc8\v2.31\pic\sources\c90\common\doprnt.c: 553:  while((c = 
      +                          *f++)) {
  1593  0DBB  2FE9               	goto	l2376
  1594  0DBC                     l2280:
  1595                           
  1596                           ;D:\Program Files\Microchip\xc8\v2.31\pic\sources\c90\common\doprnt.c: 555:   if(c != '%
      +                          ')
  1597  0DBC  3025               	movlw	37
  1598  0DBD  0649               	xorwf	sprintf@c,w
  1599  0DBE  1903               	btfsc	3,2
  1600  0DBF  2DC1               	goto	u3171
  1601  0DC0  2DC2               	goto	u3170
  1602  0DC1                     u3171:
  1603  0DC1  2DCE               	goto	l2286
  1604  0DC2                     u3170:
  1605  0DC2                     l2282:
  1606                           
  1607                           ;D:\Program Files\Microchip\xc8\v2.31\pic\sources\c90\common\doprnt.c: 557:   {;D:\Progr
      +                          am Files\Microchip\xc8\v2.31\pic\sources\c90\common\doprnt.c: 558:    ((*sp++ = (c)));
  1608  0DC2  0849               	movf	sprintf@c,w
  1609  0DC3  00B9               	movwf	??_sprintf
  1610  0DC4  0844               	movf	sprintf@sp,w
  1611  0DC5  0084               	movwf	4
  1612  0DC6  0839               	movf	??_sprintf,w
  1613  0DC7  1383               	bcf	3,7	;select IRP bank0
  1614  0DC8  0080               	movwf	0
  1615  0DC9                     l2284:
  1616  0DC9  3001               	movlw	1
  1617  0DCA  00B9               	movwf	??_sprintf
  1618  0DCB  0839               	movf	??_sprintf,w
  1619  0DCC  07C4               	addwf	sprintf@sp,f
  1620                           
  1621                           ;D:\Program Files\Microchip\xc8\v2.31\pic\sources\c90\common\doprnt.c: 559:    continue;
  1622  0DCD  2FE9               	goto	l2376
  1623  0DCE                     l2286:
  1624                           
  1625                           ;D:\Program Files\Microchip\xc8\v2.31\pic\sources\c90\common\doprnt.c: 563:   width = 0;
  1626  0DCE  01C5               	clrf	sprintf@width
  1627  0DCF  01C6               	clrf	sprintf@width+1
  1628                           
  1629                           ;D:\Program Files\Microchip\xc8\v2.31\pic\sources\c90\common\doprnt.c: 565:   flag = 0;
  1630  0DD0  01BE               	clrf	sprintf@flag
  1631  0DD1                     l2288:
  1632                           
  1633                           ;D:\Program Files\Microchip\xc8\v2.31\pic\sources\c90\common\doprnt.c: 614:   if(isdigit
      +                          ((unsigned)*f)) {
  1634  0DD1  0830               	movf	sprintf@f,w
  1635  0DD2  0084               	movwf	4
  1636  0DD3  120A  158A  2000  120A  158A  	fcall	stringdir
  1637  0DD8  120A  118A  27EE  120A  158A  	fcall	_isdigit
  1638  0DDD  1C03               	btfss	3,0
  1639  0DDE  2DE0               	goto	u3181
  1640  0DDF  2DE1               	goto	u3180
  1641  0DE0                     u3181:
  1642  0DE0  2E21               	goto	l2300
  1643  0DE1                     u3180:
  1644  0DE1                     l2290:
  1645                           
  1646                           ;D:\Program Files\Microchip\xc8\v2.31\pic\sources\c90\common\doprnt.c: 615:    width = 0
      +                          ;
  1647  0DE1  1283               	bcf	3,5	;RP0=0, select bank0
  1648  0DE2  1303               	bcf	3,6	;RP1=0, select bank0
  1649  0DE3  01C5               	clrf	sprintf@width
  1650  0DE4  01C6               	clrf	sprintf@width+1
  1651  0DE5                     l2292:
  1652                           
  1653                           ;D:\Program Files\Microchip\xc8\v2.31\pic\sources\c90\common\doprnt.c: 617:     width *=
      +                           10;
  1654  0DE5  300A               	movlw	10
  1655  0DE6  00F3               	movwf	___wmul@multiplier
  1656  0DE7  3000               	movlw	0
  1657  0DE8  00F4               	movwf	___wmul@multiplier+1
  1658  0DE9  1283               	bcf	3,5	;RP0=0, select bank0
  1659  0DEA  1303               	bcf	3,6	;RP1=0, select bank0
  1660  0DEB  0846               	movf	sprintf@width+1,w
  1661  0DEC  00F6               	movwf	___wmul@multiplicand+1
  1662  0DED  0845               	movf	sprintf@width,w
  1663  0DEE  00F5               	movwf	___wmul@multiplicand
  1664  0DEF  120A  158A  20A5  120A  158A  	fcall	___wmul
  1665  0DF4  0874               	movf	?___wmul+1,w
  1666  0DF5  1283               	bcf	3,5	;RP0=0, select bank0
  1667  0DF6  1303               	bcf	3,6	;RP1=0, select bank0
  1668  0DF7  00C6               	movwf	sprintf@width+1
  1669  0DF8  0873               	movf	?___wmul,w
  1670  0DF9  00C5               	movwf	sprintf@width
  1671  0DFA                     l2294:
  1672                           
  1673                           ;D:\Program Files\Microchip\xc8\v2.31\pic\sources\c90\common\doprnt.c: 618:        width
      +                           += *f++ - '0';
  1674  0DFA  0830               	movf	sprintf@f,w
  1675  0DFB  0084               	movwf	4
  1676  0DFC  120A  158A  2000  120A  158A  	fcall	stringdir
  1677  0E01  3ED0               	addlw	208
  1678  0E02  00B9               	movwf	??_sprintf
  1679  0E03  30FF               	movlw	255
  1680  0E04  1803               	skipnc
  1681  0E05  3000               	movlw	0
  1682  0E06  00BA               	movwf	??_sprintf+1
  1683  0E07  0839               	movf	??_sprintf,w
  1684  0E08  07C5               	addwf	sprintf@width,f
  1685  0E09  1803               	skipnc
  1686  0E0A  0AC6               	incf	sprintf@width+1,f
  1687  0E0B  083A               	movf	??_sprintf+1,w
  1688  0E0C  07C6               	addwf	sprintf@width+1,f
  1689  0E0D                     l2296:
  1690  0E0D  3001               	movlw	1
  1691  0E0E  00B9               	movwf	??_sprintf
  1692  0E0F  0839               	movf	??_sprintf,w
  1693  0E10  07B0               	addwf	sprintf@f,f
  1694  0E11                     l2298:
  1695                           
  1696                           ;D:\Program Files\Microchip\xc8\v2.31\pic\sources\c90\common\doprnt.c: 619:    } while(i
      +                          sdigit((unsigned)*f));
  1697  0E11  0830               	movf	sprintf@f,w
  1698  0E12  0084               	movwf	4
  1699  0E13  120A  158A  2000  120A  158A  	fcall	stringdir
  1700  0E18  120A  118A  27EE  120A  158A  	fcall	_isdigit
  1701  0E1D  1803               	btfsc	3,0
  1702  0E1E  2E20               	goto	u3191
  1703  0E1F  2E21               	goto	u3190
  1704  0E20                     u3191:
  1705  0E20  2DE5               	goto	l2292
  1706  0E21                     u3190:
  1707  0E21                     l2300:
  1708                           
  1709                           ;D:\Program Files\Microchip\xc8\v2.31\pic\sources\c90\common\doprnt.c: 628:   if(*f == '
      +                          .') {
  1710  0E21  1283               	bcf	3,5	;RP0=0, select bank0
  1711  0E22  1303               	bcf	3,6	;RP1=0, select bank0
  1712  0E23  0830               	movf	sprintf@f,w
  1713  0E24  0084               	movwf	4
  1714  0E25  120A  158A  2000  120A  158A  	fcall	stringdir
  1715  0E2A  3A2E               	xorlw	46
  1716  0E2B  1D03               	skipz
  1717  0E2C  2E2E               	goto	u3201
  1718  0E2D  2E2F               	goto	u3200
  1719  0E2E                     u3201:
  1720  0E2E  2E73               	goto	l2314
  1721  0E2F                     u3200:
  1722  0E2F                     l2302:
  1723                           
  1724                           ;D:\Program Files\Microchip\xc8\v2.31\pic\sources\c90\common\doprnt.c: 630:    f++;
  1725  0E2F  3001               	movlw	1
  1726  0E30  00B9               	movwf	??_sprintf
  1727  0E31  0839               	movf	??_sprintf,w
  1728  0E32  07B0               	addwf	sprintf@f,f
  1729  0E33                     l2304:
  1730                           
  1731                           ;D:\Program Files\Microchip\xc8\v2.31\pic\sources\c90\common\doprnt.c: 644:    {;D:\Prog
      +                          ram Files\Microchip\xc8\v2.31\pic\sources\c90\common\doprnt.c: 645:     prec = 0;
  1732  0E33  01C7               	clrf	sprintf@prec
  1733  0E34  01C8               	clrf	sprintf@prec+1
  1734                           
  1735                           ;D:\Program Files\Microchip\xc8\v2.31\pic\sources\c90\common\doprnt.c: 646:     while(is
      +                          digit((unsigned)*f)) {
  1736  0E35  2E62               	goto	l2312
  1737  0E36                     l2306:
  1738                           
  1739                           ;D:\Program Files\Microchip\xc8\v2.31\pic\sources\c90\common\doprnt.c: 647:      prec *=
      +                           10;
  1740  0E36  300A               	movlw	10
  1741  0E37  00F3               	movwf	___wmul@multiplier
  1742  0E38  3000               	movlw	0
  1743  0E39  00F4               	movwf	___wmul@multiplier+1
  1744  0E3A  1283               	bcf	3,5	;RP0=0, select bank0
  1745  0E3B  1303               	bcf	3,6	;RP1=0, select bank0
  1746  0E3C  0848               	movf	sprintf@prec+1,w
  1747  0E3D  00F6               	movwf	___wmul@multiplicand+1
  1748  0E3E  0847               	movf	sprintf@prec,w
  1749  0E3F  00F5               	movwf	___wmul@multiplicand
  1750  0E40  120A  158A  20A5  120A  158A  	fcall	___wmul
  1751  0E45  0874               	movf	?___wmul+1,w
  1752  0E46  1283               	bcf	3,5	;RP0=0, select bank0
  1753  0E47  1303               	bcf	3,6	;RP1=0, select bank0
  1754  0E48  00C8               	movwf	sprintf@prec+1
  1755  0E49  0873               	movf	?___wmul,w
  1756  0E4A  00C7               	movwf	sprintf@prec
  1757  0E4B                     l2308:
  1758                           
  1759                           ;D:\Program Files\Microchip\xc8\v2.31\pic\sources\c90\common\doprnt.c: 648:         prec
      +                           += *f++ - '0';
  1760  0E4B  0830               	movf	sprintf@f,w
  1761  0E4C  0084               	movwf	4
  1762  0E4D  120A  158A  2000  120A  158A  	fcall	stringdir
  1763  0E52  3ED0               	addlw	208
  1764  0E53  00B9               	movwf	??_sprintf
  1765  0E54  30FF               	movlw	255
  1766  0E55  1803               	skipnc
  1767  0E56  3000               	movlw	0
  1768  0E57  00BA               	movwf	??_sprintf+1
  1769  0E58  0839               	movf	??_sprintf,w
  1770  0E59  07C7               	addwf	sprintf@prec,f
  1771  0E5A  1803               	skipnc
  1772  0E5B  0AC8               	incf	sprintf@prec+1,f
  1773  0E5C  083A               	movf	??_sprintf+1,w
  1774  0E5D  07C8               	addwf	sprintf@prec+1,f
  1775  0E5E                     l2310:
  1776  0E5E  3001               	movlw	1
  1777  0E5F  00B9               	movwf	??_sprintf
  1778  0E60  0839               	movf	??_sprintf,w
  1779  0E61  07B0               	addwf	sprintf@f,f
  1780  0E62                     l2312:
  1781                           
  1782                           ;D:\Program Files\Microchip\xc8\v2.31\pic\sources\c90\common\doprnt.c: 646:     while(is
      +                          digit((unsigned)*f)) {
  1783  0E62  0830               	movf	sprintf@f,w
  1784  0E63  0084               	movwf	4
  1785  0E64  120A  158A  2000  120A  158A  	fcall	stringdir
  1786  0E69  120A  118A  27EE  120A  158A  	fcall	_isdigit
  1787  0E6E  1803               	btfsc	3,0
  1788  0E6F  2E71               	goto	u3211
  1789  0E70  2E72               	goto	u3210
  1790  0E71                     u3211:
  1791  0E71  2E36               	goto	l2306
  1792  0E72                     u3210:
  1793  0E72  2E7D               	goto	l2320
  1794  0E73                     l2314:
  1795                           
  1796                           ;D:\Program Files\Microchip\xc8\v2.31\pic\sources\c90\common\doprnt.c: 652:    prec = 0;
  1797  0E73  01C7               	clrf	sprintf@prec
  1798  0E74  01C8               	clrf	sprintf@prec+1
  1799  0E75  2E7D               	goto	l2320
  1800  0E76                     l727:	
  1801                           ;D:\Program Files\Microchip\xc8\v2.31\pic\sources\c90\common\doprnt.c: 667:   case 'l':
  1802                           
  1803                           
  1804                           ;D:\Program Files\Microchip\xc8\v2.31\pic\sources\c90\common\doprnt.c: 669:    flag |= 0
      +                          x10;
  1805  0E76  163E               	bsf	sprintf@flag,4
  1806                           
  1807                           ;D:\Program Files\Microchip\xc8\v2.31\pic\sources\c90\common\doprnt.c: 670:    goto loop
      +                          ;
  1808  0E77  2E7D               	goto	l2320
  1809  0E78                     l2316:
  1810                           
  1811                           ;D:\Program Files\Microchip\xc8\v2.31\pic\sources\c90\common\doprnt.c: 844:    flag |= 0
      +                          xC0;
  1812  0E78  30C0               	movlw	192
  1813  0E79  00B9               	movwf	??_sprintf
  1814  0E7A  0839               	movf	??_sprintf,w
  1815  0E7B  04BE               	iorwf	sprintf@flag,f
  1816                           
  1817                           ;D:\Program Files\Microchip\xc8\v2.31\pic\sources\c90\common\doprnt.c: 845:    break;
  1818  0E7C  2E9C               	goto	l730
  1819  0E7D                     l2320:
  1820  0E7D  3001               	movlw	1
  1821  0E7E  1283               	bcf	3,5	;RP0=0, select bank0
  1822  0E7F  1303               	bcf	3,6	;RP1=0, select bank0
  1823  0E80  07B0               	addwf	sprintf@f,f
  1824  0E81  30FF               	movlw	-1
  1825  0E82  0730               	addwf	sprintf@f,w
  1826  0E83  0084               	movwf	4
  1827  0E84  120A  158A  2000  120A  158A  	fcall	stringdir
  1828  0E89  00C9               	movwf	sprintf@c
  1829  0E8A  00B9               	movwf	??_sprintf
  1830  0E8B  01BA               	clrf	??_sprintf+1
  1831                           
  1832                           ; Switch on 2 bytes has been partitioned into a top level switch of size 1, and 1 sub-sw
      +                          itches
  1833                           ; Switch size 1, requested type "simple"
  1834                           ; Number of cases is 1, Range of values is 0 to 0
  1835                           ; switch strategies available:
  1836                           ; Name         Instructions Cycles
  1837                           ; simple_byte            4     3 (average)
  1838                           ; direct_byte           11     8 (fixed)
  1839                           ; jumptable            260     6 (fixed)
  1840                           ;	Chosen strategy is simple_byte
  1841  0E8C  083A               	movf	??_sprintf+1,w
  1842  0E8D  3A00               	xorlw	0	; case 0
  1843  0E8E  1903               	skipnz
  1844  0E8F  2E91               	goto	l2586
  1845  0E90  2FE9               	goto	l2376
  1846  0E91                     l2586:
  1847                           
  1848                           ; Switch size 1, requested type "simple"
  1849                           ; Number of cases is 3, Range of values is 0 to 117
  1850                           ; switch strategies available:
  1851                           ; Name         Instructions Cycles
  1852                           ; simple_byte           10     6 (average)
  1853                           ; jumptable            260     6 (fixed)
  1854                           ;	Chosen strategy is simple_byte
  1855  0E91  0839               	movf	??_sprintf,w
  1856  0E92  3A00               	xorlw	0	; case 0
  1857  0E93  1903               	skipnz
  1858  0E94  2FFB               	goto	l2378
  1859  0E95  3A6C               	xorlw	108	; case 108
  1860  0E96  1903               	skipnz
  1861  0E97  2E76               	goto	l727
  1862  0E98  3A19               	xorlw	25	; case 117
  1863  0E99  1903               	skipnz
  1864  0E9A  2E78               	goto	l2316
  1865  0E9B  2FE9               	goto	l2376
  1866  0E9C                     l730:
  1867                           
  1868                           ;D:\Program Files\Microchip\xc8\v2.31\pic\sources\c90\common\doprnt.c: 1299:   {;D:\Prog
      +                          ram Files\Microchip\xc8\v2.31\pic\sources\c90\common\doprnt.c: 1307:     if(flag & 0x10)
  1869  0E9C  1E3E               	btfss	sprintf@flag,4
  1870  0E9D  2E9F               	goto	u3221
  1871  0E9E  2EA0               	goto	u3220
  1872  0E9F                     u3221:
  1873  0E9F  2EB3               	goto	l2326
  1874  0EA0                     u3220:
  1875  0EA0                     l2322:
  1876                           
  1877                           ;D:\Program Files\Microchip\xc8\v2.31\pic\sources\c90\common\doprnt.c: 1308:     val = (
      +                          *(unsigned long *)__va_arg((*(unsigned long **)ap), (unsigned long)0));
  1878  0EA0  083F               	movf	sprintf@ap,w
  1879  0EA1  0084               	movwf	4
  1880  0EA2  1383               	bcf	3,7	;select IRP bank0
  1881  0EA3  0800               	movf	0,w
  1882  0EA4  00C0               	movwf	sprintf@val
  1883  0EA5  0A84               	incf	4,f
  1884  0EA6  0800               	movf	0,w
  1885  0EA7  00C1               	movwf	sprintf@val+1
  1886  0EA8  0A84               	incf	4,f
  1887  0EA9  0800               	movf	0,w
  1888  0EAA  00C2               	movwf	sprintf@val+2
  1889  0EAB  0A84               	incf	4,f
  1890  0EAC  0800               	movf	0,w
  1891  0EAD  00C3               	movwf	sprintf@val+3
  1892  0EAE                     l2324:
  1893  0EAE  3004               	movlw	4
  1894  0EAF  00B9               	movwf	??_sprintf
  1895  0EB0  0839               	movf	??_sprintf,w
  1896  0EB1  07BF               	addwf	sprintf@ap,f
  1897  0EB2  2EC5               	goto	l2330
  1898  0EB3                     l2326:
  1899                           
  1900                           ;D:\Program Files\Microchip\xc8\v2.31\pic\sources\c90\common\doprnt.c: 1312:     val = (
      +                          *(unsigned *)__va_arg((*(unsigned **)ap), (unsigned)0));
  1901  0EB3  083F               	movf	sprintf@ap,w
  1902  0EB4  0084               	movwf	4
  1903  0EB5  1383               	bcf	3,7	;select IRP bank0
  1904  0EB6  0800               	movf	0,w
  1905  0EB7  00B9               	movwf	??_sprintf
  1906  0EB8  0A84               	incf	4,f
  1907  0EB9  0800               	movf	0,w
  1908  0EBA  00BA               	movwf	??_sprintf+1
  1909  0EBB  0839               	movf	??_sprintf,w
  1910  0EBC  00C0               	movwf	sprintf@val
  1911  0EBD  083A               	movf	??_sprintf+1,w
  1912  0EBE  00C1               	movwf	sprintf@val+1
  1913  0EBF  01C2               	clrf	sprintf@val+2
  1914  0EC0  01C3               	clrf	sprintf@val+3
  1915  0EC1                     l2328:
  1916  0EC1  3002               	movlw	2
  1917  0EC2  00B9               	movwf	??_sprintf
  1918  0EC3  0839               	movf	??_sprintf,w
  1919  0EC4  07BF               	addwf	sprintf@ap,f
  1920  0EC5                     l2330:
  1921                           
  1922                           ;D:\Program Files\Microchip\xc8\v2.31\pic\sources\c90\common\doprnt.c: 1313:   };D:\Prog
      +                          ram Files\Microchip\xc8\v2.31\pic\sources\c90\common\doprnt.c: 1316:   if(prec == 0 && v
      +                          al == 0)
  1923  0EC5  0847               	movf	sprintf@prec,w
  1924  0EC6  0448               	iorwf	sprintf@prec+1,w
  1925  0EC7  1D03               	btfss	3,2
  1926  0EC8  2ECA               	goto	u3231
  1927  0EC9  2ECB               	goto	u3230
  1928  0ECA                     u3231:
  1929  0ECA  2ED9               	goto	l2336
  1930  0ECB                     u3230:
  1931  0ECB                     l2332:
  1932  0ECB  0843               	movf	sprintf@val+3,w
  1933  0ECC  0442               	iorwf	sprintf@val+2,w
  1934  0ECD  0441               	iorwf	sprintf@val+1,w
  1935  0ECE  0440               	iorwf	sprintf@val,w
  1936  0ECF  1D03               	skipz
  1937  0ED0  2ED2               	goto	u3241
  1938  0ED1  2ED3               	goto	u3240
  1939  0ED2                     u3241:
  1940  0ED2  2ED9               	goto	l2336
  1941  0ED3                     u3240:
  1942  0ED3                     l2334:
  1943                           
  1944                           ;D:\Program Files\Microchip\xc8\v2.31\pic\sources\c90\common\doprnt.c: 1317:    prec++;
  1945  0ED3  3001               	movlw	1
  1946  0ED4  07C7               	addwf	sprintf@prec,f
  1947  0ED5  1803               	skipnc
  1948  0ED6  0AC8               	incf	sprintf@prec+1,f
  1949  0ED7  3000               	movlw	0
  1950  0ED8  07C8               	addwf	sprintf@prec+1,f
  1951  0ED9                     l2336:
  1952                           
  1953                           ;D:\Program Files\Microchip\xc8\v2.31\pic\sources\c90\common\doprnt.c: 1331:    for(c = 
      +                          1 ; c != sizeof dpowers/sizeof dpowers[0] ; c++)
  1954  0ED9  01C9               	clrf	sprintf@c
  1955  0EDA  0AC9               	incf	sprintf@c,f
  1956  0EDB                     l2342:
  1957                           
  1958                           ;D:\Program Files\Microchip\xc8\v2.31\pic\sources\c90\common\doprnt.c: 1332:     if(val 
      +                          < dpowers[c])
  1959  0EDB  0849               	movf	sprintf@c,w
  1960  0EDC  00B9               	movwf	??_sprintf
  1961  0EDD  3001               	movlw	1
  1962  0EDE                     u3255:
  1963  0EDE  1003               	clrc
  1964  0EDF  0DB9               	rlf	??_sprintf,f
  1965  0EE0  3EFF               	addlw	-1
  1966  0EE1  1D03               	skipz
  1967  0EE2  2EDE               	goto	u3255
  1968  0EE3  1003               	clrc
  1969  0EE4  0D39               	rlf	??_sprintf,w
  1970  0EE5  3E01               	addlw	low ((_dpowers-__stringbase)| (0+32768))
  1971  0EE6  0084               	movwf	4
  1972  0EE7  120A  158A  2000  120A  158A  	fcall	stringdir
  1973  0EEC  00BA               	movwf	??_sprintf+1
  1974  0EED  120A  158A  2000  120A  158A  	fcall	stringdir
  1975  0EF2  00BB               	movwf	??_sprintf+2
  1976  0EF3  120A  158A  2000  120A  158A  	fcall	stringdir
  1977  0EF8  00BC               	movwf	??_sprintf+3
  1978  0EF9  120A  158A  2000  120A  158A  	fcall	stringdir
  1979  0EFE  00BD               	movwf	??_sprintf+4
  1980  0EFF  083D               	movf	??_sprintf+4,w
  1981  0F00  0243               	subwf	sprintf@val+3,w
  1982  0F01  1D03               	skipz
  1983  0F02  2F0D               	goto	u3265
  1984  0F03  083C               	movf	??_sprintf+3,w
  1985  0F04  0242               	subwf	sprintf@val+2,w
  1986  0F05  1D03               	skipz
  1987  0F06  2F0D               	goto	u3265
  1988  0F07  083B               	movf	??_sprintf+2,w
  1989  0F08  0241               	subwf	sprintf@val+1,w
  1990  0F09  1D03               	skipz
  1991  0F0A  2F0D               	goto	u3265
  1992  0F0B  083A               	movf	??_sprintf+1,w
  1993  0F0C  0240               	subwf	sprintf@val,w
  1994  0F0D                     u3265:
  1995  0F0D  1803               	skipnc
  1996  0F0E  2F10               	goto	u3261
  1997  0F0F  2F11               	goto	u3260
  1998  0F10                     u3261:
  1999  0F10  2F12               	goto	l2346
  2000  0F11                     u3260:
  2001  0F11  2F1C               	goto	l2348
  2002  0F12                     l2346:
  2003  0F12  3001               	movlw	1
  2004  0F13  00B9               	movwf	??_sprintf
  2005  0F14  0839               	movf	??_sprintf,w
  2006  0F15  07C9               	addwf	sprintf@c,f
  2007  0F16  300A               	movlw	10
  2008  0F17  0649               	xorwf	sprintf@c,w
  2009  0F18  1D03               	btfss	3,2
  2010  0F19  2F1B               	goto	u3271
  2011  0F1A  2F1C               	goto	u3270
  2012  0F1B                     u3271:
  2013  0F1B  2EDB               	goto	l2342
  2014  0F1C                     u3270:
  2015  0F1C                     l2348:
  2016                           
  2017                           ;D:\Program Files\Microchip\xc8\v2.31\pic\sources\c90\common\doprnt.c: 1365:   if(c < pr
      +                          ec)
  2018  0F1C  0848               	movf	sprintf@prec+1,w
  2019  0F1D  3A80               	xorlw	128
  2020  0F1E  3C80               	sublw	128
  2021  0F1F  1D03               	skipz
  2022  0F20  2F23               	goto	u3285
  2023  0F21  0847               	movf	sprintf@prec,w
  2024  0F22  0249               	subwf	sprintf@c,w
  2025  0F23                     u3285:
  2026  0F23  1803               	skipnc
  2027  0F24  2F26               	goto	u3281
  2028  0F25  2F27               	goto	u3280
  2029  0F26                     u3281:
  2030  0F26  2F2E               	goto	l2352
  2031  0F27                     u3280:
  2032  0F27                     l2350:
  2033                           
  2034                           ;D:\Program Files\Microchip\xc8\v2.31\pic\sources\c90\common\doprnt.c: 1366:    c = (cha
      +                          r)prec;
  2035  0F27  1283               	bcf	3,5	;RP0=0, select bank0
  2036  0F28  1303               	bcf	3,6	;RP1=0, select bank0
  2037  0F29  0847               	movf	sprintf@prec,w
  2038  0F2A  00B9               	movwf	??_sprintf
  2039  0F2B  0839               	movf	??_sprintf,w
  2040  0F2C  00C9               	movwf	sprintf@c
  2041  0F2D  2F46               	goto	l738
  2042  0F2E                     l2352:
  2043  0F2E  1283               	bcf	3,5	;RP0=0, select bank0
  2044  0F2F  1303               	bcf	3,6	;RP1=0, select bank0
  2045  0F30  0848               	movf	sprintf@prec+1,w
  2046  0F31  3A80               	xorlw	128
  2047  0F32  00B9               	movwf	??_sprintf
  2048  0F33  3080               	movlw	128
  2049  0F34  0239               	subwf	??_sprintf,w
  2050  0F35  1D03               	skipz
  2051  0F36  2F39               	goto	u3295
  2052  0F37  0849               	movf	sprintf@c,w
  2053  0F38  0247               	subwf	sprintf@prec,w
  2054  0F39                     u3295:
  2055  0F39  1803               	skipnc
  2056  0F3A  2F3C               	goto	u3291
  2057  0F3B  2F3D               	goto	u3290
  2058  0F3C                     u3291:
  2059  0F3C  2F46               	goto	l738
  2060  0F3D                     u3290:
  2061  0F3D                     l2354:
  2062                           
  2063                           ;D:\Program Files\Microchip\xc8\v2.31\pic\sources\c90\common\doprnt.c: 1368:    prec = c
      +                          ;
  2064  0F3D  1283               	bcf	3,5	;RP0=0, select bank0
  2065  0F3E  1303               	bcf	3,6	;RP1=0, select bank0
  2066  0F3F  0849               	movf	sprintf@c,w
  2067  0F40  00B9               	movwf	??_sprintf
  2068  0F41  01BA               	clrf	??_sprintf+1
  2069  0F42  0839               	movf	??_sprintf,w
  2070  0F43  00C7               	movwf	sprintf@prec
  2071  0F44  083A               	movf	??_sprintf+1,w
  2072  0F45  00C8               	movwf	sprintf@prec+1
  2073  0F46                     l738:
  2074                           
  2075                           ;D:\Program Files\Microchip\xc8\v2.31\pic\sources\c90\common\doprnt.c: 1407:   if(width 
      +                          > c)
  2076  0F46  1283               	bcf	3,5	;RP0=0, select bank0
  2077  0F47  1303               	bcf	3,6	;RP1=0, select bank0
  2078  0F48  0846               	movf	sprintf@width+1,w
  2079  0F49  3A80               	xorlw	128
  2080  0F4A  3C80               	sublw	128
  2081  0F4B  1D03               	skipz
  2082  0F4C  2F4F               	goto	u3305
  2083  0F4D  0845               	movf	sprintf@width,w
  2084  0F4E  0249               	subwf	sprintf@c,w
  2085  0F4F                     u3305:
  2086  0F4F  1803               	skipnc
  2087  0F50  2F52               	goto	u3301
  2088  0F51  2F53               	goto	u3300
  2089  0F52                     u3301:
  2090  0F52  2F5F               	goto	l2358
  2091  0F53                     u3300:
  2092  0F53                     l2356:
  2093                           
  2094                           ;D:\Program Files\Microchip\xc8\v2.31\pic\sources\c90\common\doprnt.c: 1408:    width -=
      +                           c;
  2095  0F53  1283               	bcf	3,5	;RP0=0, select bank0
  2096  0F54  1303               	bcf	3,6	;RP1=0, select bank0
  2097  0F55  0849               	movf	sprintf@c,w
  2098  0F56  00B9               	movwf	??_sprintf
  2099  0F57  01BA               	clrf	??_sprintf+1
  2100  0F58  0839               	movf	??_sprintf,w
  2101  0F59  02C5               	subwf	sprintf@width,f
  2102  0F5A  083A               	movf	??_sprintf+1,w
  2103  0F5B  1C03               	skipc
  2104  0F5C  03C6               	decf	sprintf@width+1,f
  2105  0F5D  02C6               	subwf	sprintf@width+1,f
  2106  0F5E  2F63               	goto	l2360
  2107  0F5F                     l2358:
  2108                           
  2109                           ;D:\Program Files\Microchip\xc8\v2.31\pic\sources\c90\common\doprnt.c: 1410:    width = 
      +                          0;
  2110  0F5F  1283               	bcf	3,5	;RP0=0, select bank0
  2111  0F60  1303               	bcf	3,6	;RP1=0, select bank0
  2112  0F61  01C5               	clrf	sprintf@width
  2113  0F62  01C6               	clrf	sprintf@width+1
  2114  0F63                     l2360:
  2115                           
  2116                           ;D:\Program Files\Microchip\xc8\v2.31\pic\sources\c90\common\doprnt.c: 1448:   {;D:\Prog
      +                          ram Files\Microchip\xc8\v2.31\pic\sources\c90\common\doprnt.c: 1450:    if(width
  2117  0F63  0845               	movf	sprintf@width,w
  2118  0F64  0446               	iorwf	sprintf@width+1,w
  2119  0F65  1903               	btfsc	3,2
  2120  0F66  2F68               	goto	u3311
  2121  0F67  2F69               	goto	u3310
  2122  0F68                     u3311:
  2123  0F68  2FDB               	goto	l2374
  2124  0F69                     u3310:
  2125  0F69                     l2362:
  2126                           
  2127                           ;D:\Program Files\Microchip\xc8\v2.31\pic\sources\c90\common\doprnt.c: 1456:      ((*sp+
      +                          + = (' ')));
  2128  0F69  3020               	movlw	32
  2129  0F6A  00B9               	movwf	??_sprintf
  2130  0F6B  0844               	movf	sprintf@sp,w
  2131  0F6C  0084               	movwf	4
  2132  0F6D  0839               	movf	??_sprintf,w
  2133  0F6E  1383               	bcf	3,7	;select IRP bank0
  2134  0F6F  0080               	movwf	0
  2135  0F70                     l2364:
  2136  0F70  3001               	movlw	1
  2137  0F71  00B9               	movwf	??_sprintf
  2138  0F72  0839               	movf	??_sprintf,w
  2139  0F73  07C4               	addwf	sprintf@sp,f
  2140  0F74                     l2366:
  2141  0F74  30FF               	movlw	255
  2142  0F75  07C5               	addwf	sprintf@width,f
  2143  0F76  1803               	skipnc
  2144  0F77  0AC6               	incf	sprintf@width+1,f
  2145  0F78  30FF               	movlw	255
  2146  0F79  07C6               	addwf	sprintf@width+1,f
  2147  0F7A  0845               	movf	sprintf@width,w
  2148  0F7B  0446               	iorwf	sprintf@width+1,w
  2149  0F7C  1D03               	btfss	3,2
  2150  0F7D  2F7F               	goto	u3321
  2151  0F7E  2F80               	goto	u3320
  2152  0F7F                     u3321:
  2153  0F7F  2F69               	goto	l2362
  2154  0F80                     u3320:
  2155  0F80  2FDB               	goto	l2374
  2156  0F81                     l2368:
  2157                           
  2158                           ;D:\Program Files\Microchip\xc8\v2.31\pic\sources\c90\common\doprnt.c: 1504:    {;D:\Pro
      +                          gram Files\Microchip\xc8\v2.31\pic\sources\c90\common\doprnt.c: 1515:     c = (val / dpo
      +                          wers[(unsigned int)prec]) % 10 + '0';
  2159  0F81  3000               	movlw	0
  2160  0F82  00A9               	movwf	___llmod@divisor+3
  2161  0F83  3000               	movlw	0
  2162  0F84  00A8               	movwf	___llmod@divisor+2
  2163  0F85  3000               	movlw	0
  2164  0F86  00A7               	movwf	___llmod@divisor+1
  2165  0F87  300A               	movlw	10
  2166  0F88  00A6               	movwf	___llmod@divisor
  2167  0F89  0847               	movf	sprintf@prec,w
  2168  0F8A  00B9               	movwf	??_sprintf
  2169  0F8B  3001               	movlw	1
  2170  0F8C                     u3335:
  2171  0F8C  1003               	clrc
  2172  0F8D  0DB9               	rlf	??_sprintf,f
  2173  0F8E  3EFF               	addlw	-1
  2174  0F8F  1D03               	skipz
  2175  0F90  2F8C               	goto	u3335
  2176  0F91  1003               	clrc
  2177  0F92  0D39               	rlf	??_sprintf,w
  2178  0F93  3E01               	addlw	low ((_dpowers-__stringbase)| (0+32768))
  2179  0F94  0084               	movwf	4
  2180  0F95  120A  158A  2000  120A  158A  	fcall	stringdir
  2181  0F9A  00F3               	movwf	___lldiv@divisor
  2182  0F9B  120A  158A  2000  120A  158A  	fcall	stringdir
  2183  0FA0  00F4               	movwf	___lldiv@divisor+1
  2184  0FA1  120A  158A  2000  120A  158A  	fcall	stringdir
  2185  0FA6  00F5               	movwf	___lldiv@divisor+2
  2186  0FA7  120A  158A  2000  120A  158A  	fcall	stringdir
  2187  0FAC  00F6               	movwf	___lldiv@divisor+3
  2188  0FAD  0843               	movf	sprintf@val+3,w
  2189  0FAE  00FA               	movwf	___lldiv@dividend+3
  2190  0FAF  0842               	movf	sprintf@val+2,w
  2191  0FB0  00F9               	movwf	___lldiv@dividend+2
  2192  0FB1  0841               	movf	sprintf@val+1,w
  2193  0FB2  00F8               	movwf	___lldiv@dividend+1
  2194  0FB3  0840               	movf	sprintf@val,w
  2195  0FB4  00F7               	movwf	___lldiv@dividend
  2196  0FB5  120A  158A  2246  120A  158A  	fcall	___lldiv
  2197  0FBA  0876               	movf	?___lldiv+3,w
  2198  0FBB  1283               	bcf	3,5	;RP0=0, select bank0
  2199  0FBC  1303               	bcf	3,6	;RP1=0, select bank0
  2200  0FBD  00AD               	movwf	___llmod@dividend+3
  2201  0FBE  0875               	movf	?___lldiv+2,w
  2202  0FBF  00AC               	movwf	___llmod@dividend+2
  2203  0FC0  0874               	movf	?___lldiv+1,w
  2204  0FC1  00AB               	movwf	___llmod@dividend+1
  2205  0FC2  0873               	movf	?___lldiv,w
  2206  0FC3  00AA               	movwf	___llmod@dividend
  2207  0FC4  120A  158A  218D  120A  158A  	fcall	___llmod
  2208  0FC9  1283               	bcf	3,5	;RP0=0, select bank0
  2209  0FCA  1303               	bcf	3,6	;RP1=0, select bank0
  2210  0FCB  0826               	movf	?___llmod,w
  2211  0FCC  3E30               	addlw	48
  2212  0FCD  00BA               	movwf	??_sprintf+1
  2213  0FCE  083A               	movf	??_sprintf+1,w
  2214  0FCF  00C9               	movwf	sprintf@c
  2215  0FD0                     l2370:
  2216                           
  2217                           ;D:\Program Files\Microchip\xc8\v2.31\pic\sources\c90\common\doprnt.c: 1549:    };D:\Pro
      +                          gram Files\Microchip\xc8\v2.31\pic\sources\c90\common\doprnt.c: 1550:    ((*sp++ = (c)))
      +                          ;
  2218  0FD0  0849               	movf	sprintf@c,w
  2219  0FD1  00B9               	movwf	??_sprintf
  2220  0FD2  0844               	movf	sprintf@sp,w
  2221  0FD3  0084               	movwf	4
  2222  0FD4  0839               	movf	??_sprintf,w
  2223  0FD5  1383               	bcf	3,7	;select IRP bank0
  2224  0FD6  0080               	movwf	0
  2225  0FD7                     l2372:
  2226  0FD7  3001               	movlw	1
  2227  0FD8  00B9               	movwf	??_sprintf
  2228  0FD9  0839               	movf	??_sprintf,w
  2229  0FDA  07C4               	addwf	sprintf@sp,f
  2230  0FDB                     l2374:
  2231                           
  2232                           ;D:\Program Files\Microchip\xc8\v2.31\pic\sources\c90\common\doprnt.c: 1500:   while(pre
      +                          c--) {
  2233  0FDB  30FF               	movlw	255
  2234  0FDC  07C7               	addwf	sprintf@prec,f
  2235  0FDD  1803               	skipnc
  2236  0FDE  0AC8               	incf	sprintf@prec+1,f
  2237  0FDF  30FF               	movlw	255
  2238  0FE0  07C8               	addwf	sprintf@prec+1,f
  2239  0FE1  0A47               	incf	sprintf@prec,w
  2240  0FE2  1D03               	skipz
  2241  0FE3  2FE8               	goto	u3341
  2242  0FE4  0A48               	incf	sprintf@prec+1,w
  2243  0FE5  1D03               	btfss	3,2
  2244  0FE6  2FE8               	goto	u3341
  2245  0FE7  2FE9               	goto	u3340
  2246  0FE8                     u3341:
  2247  0FE8  2F81               	goto	l2368
  2248  0FE9                     u3340:
  2249  0FE9                     l2376:
  2250                           
  2251                           ;D:\Program Files\Microchip\xc8\v2.31\pic\sources\c90\common\doprnt.c: 553:  while((c = 
      +                          *f++)) {
  2252  0FE9  3001               	movlw	1
  2253  0FEA  07B0               	addwf	sprintf@f,f
  2254  0FEB  30FF               	movlw	-1
  2255  0FEC  0730               	addwf	sprintf@f,w
  2256  0FED  0084               	movwf	4
  2257  0FEE  120A  158A  2000  120A  158A  	fcall	stringdir
  2258  0FF3  00B9               	movwf	??_sprintf
  2259  0FF4  0839               	movf	??_sprintf,w
  2260  0FF5  00C9               	movwf	sprintf@c
  2261  0FF6  0849               	movf	sprintf@c,w
  2262  0FF7  1D03               	btfss	3,2
  2263  0FF8  2FFA               	goto	u3351
  2264  0FF9  2FFB               	goto	u3350
  2265  0FFA                     u3351:
  2266  0FFA  2DBC               	goto	l2280
  2267  0FFB                     u3350:
  2268  0FFB                     l2378:
  2269                           
  2270                           ;D:\Program Files\Microchip\xc8\v2.31\pic\sources\c90\common\doprnt.c: 1564:  *sp = 0;
  2271  0FFB  0844               	movf	sprintf@sp,w
  2272  0FFC  0084               	movwf	4
  2273  0FFD  1383               	bcf	3,7	;select IRP bank0
  2274  0FFE  0180               	clrf	0
  2275  0FFF                     l749:
  2276  0FFF  0008               	return
  2277  1000                     __end_of_sprintf:
  2278                           
  2279                           	psect	text4
  2280  07EE                     __ptext4:	
  2281 ;; *************** function _isdigit *****************
  2282 ;; Defined at:
  2283 ;;		line 8 in file "D:\Program Files\Microchip\xc8\v2.31\pic\sources\c90\common\isdigit.c"
  2284 ;; Parameters:    Size  Location     Type
  2285 ;;  c               1    wreg     unsigned char 
  2286 ;; Auto vars:     Size  Location     Type
  2287 ;;  c               1    4[COMMON] unsigned char 
  2288 ;; Return value:  Size  Location     Type
  2289 ;;		None               void
  2290 ;; Registers used:
  2291 ;;		wreg, status,2, status,0
  2292 ;; Tracked objects:
  2293 ;;		On entry : 0/0
  2294 ;;		On exit  : 0/0
  2295 ;;		Unchanged: 0/0
  2296 ;; Data sizes:     COMMON   BANK0   BANK1   BANK3   BANK2
  2297 ;;      Params:         0       0       0       0       0
  2298 ;;      Locals:         2       0       0       0       0
  2299 ;;      Temps:          0       0       0       0       0
  2300 ;;      Totals:         2       0       0       0       0
  2301 ;;Total ram usage:        2 bytes
  2302 ;; Hardware stack levels used:    1
  2303 ;; Hardware stack levels required when called:    1
  2304 ;; This function calls:
  2305 ;;		Nothing
  2306 ;; This function is called by:
  2307 ;;		_sprintf
  2308 ;; This function uses a non-reentrant model
  2309 ;;
  2310                           
  2311                           
  2312                           ;psect for function _isdigit
  2313  07EE                     _isdigit:
  2314                           
  2315                           ;incstack = 0
  2316                           ; Regs used in _isdigit: [wreg+status,2+status,0]
  2317                           ;isdigit@c stored from wreg
  2318  07EE  00F4               	movwf	isdigit@c
  2319  07EF                     l1976:
  2320  07EF  01F3               	clrf	_isdigit$717
  2321  07F0                     l1978:
  2322  07F0  303A               	movlw	58
  2323  07F1  0274               	subwf	isdigit@c,w
  2324  07F2  1803               	skipnc
  2325  07F3  2FF5               	goto	u2411
  2326  07F4  2FF6               	goto	u2410
  2327  07F5                     u2411:
  2328  07F5  2FFE               	goto	l1984
  2329  07F6                     u2410:
  2330  07F6                     l1980:
  2331  07F6  3030               	movlw	48
  2332  07F7  0274               	subwf	isdigit@c,w
  2333  07F8  1C03               	skipc
  2334  07F9  2FFB               	goto	u2421
  2335  07FA  2FFC               	goto	u2420
  2336  07FB                     u2421:
  2337  07FB  2FFE               	goto	l1984
  2338  07FC                     u2420:
  2339  07FC                     l1982:
  2340  07FC  01F3               	clrf	_isdigit$717
  2341  07FD  0AF3               	incf	_isdigit$717,f
  2342  07FE                     l1984:
  2343  07FE  0C73               	rrf	_isdigit$717,w
  2344  07FF                     l754:
  2345  07FF  0008               	return
  2346  0800                     __end_of_isdigit:
  2347                           
  2348                           	psect	text5
  2349  08A5                     __ptext5:	
  2350 ;; *************** function ___wmul *****************
  2351 ;; Defined at:
  2352 ;;		line 15 in file "D:\Program Files\Microchip\xc8\v2.31\pic\sources\c90\common\Umul16.c"
  2353 ;; Parameters:    Size  Location     Type
  2354 ;;  multiplier      2    3[COMMON] unsigned int 
  2355 ;;  multiplicand    2    5[COMMON] unsigned int 
  2356 ;; Auto vars:     Size  Location     Type
  2357 ;;  product         2    7[COMMON] unsigned int 
  2358 ;; Return value:  Size  Location     Type
  2359 ;;                  2    3[COMMON] unsigned int 
  2360 ;; Registers used:
  2361 ;;		wreg, status,2, status,0
  2362 ;; Tracked objects:
  2363 ;;		On entry : 0/0
  2364 ;;		On exit  : 0/0
  2365 ;;		Unchanged: 0/0
  2366 ;; Data sizes:     COMMON   BANK0   BANK1   BANK3   BANK2
  2367 ;;      Params:         4       0       0       0       0
  2368 ;;      Locals:         2       0       0       0       0
  2369 ;;      Temps:          0       0       0       0       0
  2370 ;;      Totals:         6       0       0       0       0
  2371 ;;Total ram usage:        6 bytes
  2372 ;; Hardware stack levels used:    1
  2373 ;; Hardware stack levels required when called:    1
  2374 ;; This function calls:
  2375 ;;		Nothing
  2376 ;; This function is called by:
  2377 ;;		_sprintf
  2378 ;; This function uses a non-reentrant model
  2379 ;;
  2380                           
  2381                           
  2382                           ;psect for function ___wmul
  2383  08A5                     ___wmul:
  2384  08A5                     l1710:	
  2385                           ;incstack = 0
  2386                           ; Regs used in ___wmul: [wreg+status,2+status,0]
  2387                           
  2388  08A5  01F7               	clrf	___wmul@product
  2389  08A6  01F8               	clrf	___wmul@product+1
  2390  08A7                     l1712:
  2391  08A7  1C73               	btfss	___wmul@multiplier,0
  2392  08A8  28AA               	goto	u1751
  2393  08A9  28AB               	goto	u1750
  2394  08AA                     u1751:
  2395  08AA  28B1               	goto	l245
  2396  08AB                     u1750:
  2397  08AB                     l1714:
  2398  08AB  0875               	movf	___wmul@multiplicand,w
  2399  08AC  07F7               	addwf	___wmul@product,f
  2400  08AD  1803               	skipnc
  2401  08AE  0AF8               	incf	___wmul@product+1,f
  2402  08AF  0876               	movf	___wmul@multiplicand+1,w
  2403  08B0  07F8               	addwf	___wmul@product+1,f
  2404  08B1                     l245:
  2405  08B1  3001               	movlw	1
  2406  08B2                     u1765:
  2407  08B2  1003               	clrc
  2408  08B3  0DF5               	rlf	___wmul@multiplicand,f
  2409  08B4  0DF6               	rlf	___wmul@multiplicand+1,f
  2410  08B5  3EFF               	addlw	-1
  2411  08B6  1D03               	skipz
  2412  08B7  28B2               	goto	u1765
  2413  08B8                     l1716:
  2414  08B8  3001               	movlw	1
  2415  08B9                     u1775:
  2416  08B9  1003               	clrc
  2417  08BA  0CF4               	rrf	___wmul@multiplier+1,f
  2418  08BB  0CF3               	rrf	___wmul@multiplier,f
  2419  08BC  3EFF               	addlw	-1
  2420  08BD  1D03               	skipz
  2421  08BE  28B9               	goto	u1775
  2422  08BF                     l1718:
  2423  08BF  0873               	movf	___wmul@multiplier,w
  2424  08C0  0474               	iorwf	___wmul@multiplier+1,w
  2425  08C1  1D03               	btfss	3,2
  2426  08C2  28C4               	goto	u1781
  2427  08C3  28C5               	goto	u1780
  2428  08C4                     u1781:
  2429  08C4  28A7               	goto	l1712
  2430  08C5                     u1780:
  2431  08C5                     l1720:
  2432  08C5  0878               	movf	___wmul@product+1,w
  2433  08C6  00F4               	movwf	?___wmul+1
  2434  08C7  0877               	movf	___wmul@product,w
  2435  08C8  00F3               	movwf	?___wmul
  2436  08C9                     l247:
  2437  08C9  0008               	return
  2438  08CA                     __end_of___wmul:
  2439                           
  2440                           	psect	text6
  2441  098D                     __ptext6:	
  2442 ;; *************** function ___llmod *****************
  2443 ;; Defined at:
  2444 ;;		line 5 in file "D:\Program Files\Microchip\xc8\v2.31\pic\sources\c90\common\llmod.c"
  2445 ;; Parameters:    Size  Location     Type
  2446 ;;  divisor         4    6[BANK0 ] unsigned long 
  2447 ;;  dividend        4   10[BANK0 ] unsigned long 
  2448 ;; Auto vars:     Size  Location     Type
  2449 ;;  counter         1   15[BANK0 ] unsigned char 
  2450 ;; Return value:  Size  Location     Type
  2451 ;;                  4    6[BANK0 ] unsigned long 
  2452 ;; Registers used:
  2453 ;;		wreg, status,2, status,0
  2454 ;; Tracked objects:
  2455 ;;		On entry : 0/0
  2456 ;;		On exit  : 0/0
  2457 ;;		Unchanged: 0/0
  2458 ;; Data sizes:     COMMON   BANK0   BANK1   BANK3   BANK2
  2459 ;;      Params:         0       8       0       0       0
  2460 ;;      Locals:         0       1       0       0       0
  2461 ;;      Temps:          0       1       0       0       0
  2462 ;;      Totals:         0      10       0       0       0
  2463 ;;Total ram usage:       10 bytes
  2464 ;; Hardware stack levels used:    1
  2465 ;; Hardware stack levels required when called:    1
  2466 ;; This function calls:
  2467 ;;		Nothing
  2468 ;; This function is called by:
  2469 ;;		_sprintf
  2470 ;; This function uses a non-reentrant model
  2471 ;;
  2472                           
  2473                           
  2474                           ;psect for function ___llmod
  2475  098D                     ___llmod:
  2476  098D                     l1748:	
  2477                           ;incstack = 0
  2478                           ; Regs used in ___llmod: [wreg+status,2+status,0]
  2479                           
  2480  098D  1283               	bcf	3,5	;RP0=0, select bank0
  2481  098E  1303               	bcf	3,6	;RP1=0, select bank0
  2482  098F  0829               	movf	___llmod@divisor+3,w
  2483  0990  0428               	iorwf	___llmod@divisor+2,w
  2484  0991  0427               	iorwf	___llmod@divisor+1,w
  2485  0992  0426               	iorwf	___llmod@divisor,w
  2486  0993  1903               	skipnz
  2487  0994  2996               	goto	u1861
  2488  0995  2997               	goto	u1860
  2489  0996                     u1861:
  2490  0996  29DA               	goto	l1764
  2491  0997                     u1860:
  2492  0997                     l1750:
  2493  0997  01AF               	clrf	___llmod@counter
  2494  0998  0AAF               	incf	___llmod@counter,f
  2495  0999  29A7               	goto	l1754
  2496  099A                     l1752:
  2497  099A  3001               	movlw	1
  2498  099B  00AE               	movwf	??___llmod
  2499  099C                     u1875:
  2500  099C  1003               	clrc
  2501  099D  0DA6               	rlf	___llmod@divisor,f
  2502  099E  0DA7               	rlf	___llmod@divisor+1,f
  2503  099F  0DA8               	rlf	___llmod@divisor+2,f
  2504  09A0  0DA9               	rlf	___llmod@divisor+3,f
  2505  09A1  0BAE               	decfsz	??___llmod,f
  2506  09A2  299C               	goto	u1875
  2507  09A3  3001               	movlw	1
  2508  09A4  00AE               	movwf	??___llmod
  2509  09A5  082E               	movf	??___llmod,w
  2510  09A6  07AF               	addwf	___llmod@counter,f
  2511  09A7                     l1754:
  2512  09A7  1FA9               	btfss	___llmod@divisor+3,7
  2513  09A8  29AA               	goto	u1881
  2514  09A9  29AB               	goto	u1880
  2515  09AA                     u1881:
  2516  09AA  299A               	goto	l1752
  2517  09AB                     u1880:
  2518  09AB                     l1756:
  2519  09AB  0829               	movf	___llmod@divisor+3,w
  2520  09AC  022D               	subwf	___llmod@dividend+3,w
  2521  09AD  1D03               	skipz
  2522  09AE  29B9               	goto	u1895
  2523  09AF  0828               	movf	___llmod@divisor+2,w
  2524  09B0  022C               	subwf	___llmod@dividend+2,w
  2525  09B1  1D03               	skipz
  2526  09B2  29B9               	goto	u1895
  2527  09B3  0827               	movf	___llmod@divisor+1,w
  2528  09B4  022B               	subwf	___llmod@dividend+1,w
  2529  09B5  1D03               	skipz
  2530  09B6  29B9               	goto	u1895
  2531  09B7  0826               	movf	___llmod@divisor,w
  2532  09B8  022A               	subwf	___llmod@dividend,w
  2533  09B9                     u1895:
  2534  09B9  1C03               	skipc
  2535  09BA  29BC               	goto	u1891
  2536  09BB  29BD               	goto	u1890
  2537  09BC                     u1891:
  2538  09BC  29CB               	goto	l1760
  2539  09BD                     u1890:
  2540  09BD                     l1758:
  2541  09BD  0826               	movf	___llmod@divisor,w
  2542  09BE  02AA               	subwf	___llmod@dividend,f
  2543  09BF  0827               	movf	___llmod@divisor+1,w
  2544  09C0  1C03               	skipc
  2545  09C1  0F27               	incfsz	___llmod@divisor+1,w
  2546  09C2  02AB               	subwf	___llmod@dividend+1,f
  2547  09C3  0828               	movf	___llmod@divisor+2,w
  2548  09C4  1C03               	skipc
  2549  09C5  0F28               	incfsz	___llmod@divisor+2,w
  2550  09C6  02AC               	subwf	___llmod@dividend+2,f
  2551  09C7  0829               	movf	___llmod@divisor+3,w
  2552  09C8  1C03               	skipc
  2553  09C9  0F29               	incfsz	___llmod@divisor+3,w
  2554  09CA  02AD               	subwf	___llmod@dividend+3,f
  2555  09CB                     l1760:
  2556  09CB  3001               	movlw	1
  2557  09CC                     u1905:
  2558  09CC  1003               	clrc
  2559  09CD  0CA9               	rrf	___llmod@divisor+3,f
  2560  09CE  0CA8               	rrf	___llmod@divisor+2,f
  2561  09CF  0CA7               	rrf	___llmod@divisor+1,f
  2562  09D0  0CA6               	rrf	___llmod@divisor,f
  2563  09D1  3EFF               	addlw	-1
  2564  09D2  1D03               	skipz
  2565  09D3  29CC               	goto	u1905
  2566  09D4                     l1762:
  2567  09D4  3001               	movlw	1
  2568  09D5  02AF               	subwf	___llmod@counter,f
  2569  09D6  1D03               	btfss	3,2
  2570  09D7  29D9               	goto	u1911
  2571  09D8  29DA               	goto	u1910
  2572  09D9                     u1911:
  2573  09D9  29AB               	goto	l1756
  2574  09DA                     u1910:
  2575  09DA                     l1764:
  2576  09DA  082D               	movf	___llmod@dividend+3,w
  2577  09DB  00A9               	movwf	?___llmod+3
  2578  09DC  082C               	movf	___llmod@dividend+2,w
  2579  09DD  00A8               	movwf	?___llmod+2
  2580  09DE  082B               	movf	___llmod@dividend+1,w
  2581  09DF  00A7               	movwf	?___llmod+1
  2582  09E0  082A               	movf	___llmod@dividend,w
  2583  09E1  00A6               	movwf	?___llmod
  2584  09E2                     l467:
  2585  09E2  0008               	return
  2586  09E3                     __end_of___llmod:
  2587                           
  2588                           	psect	text7
  2589  0AAE                     __ptext7:	
  2590 ;; *************** function ___fltol *****************
  2591 ;; Defined at:
  2592 ;;		line 43 in file "D:\Program Files\Microchip\xc8\v2.31\pic\sources\c90\common\fltol.c"
  2593 ;; Parameters:    Size  Location     Type
  2594 ;;  f1              4   32[BANK0 ] unsigned long 
  2595 ;; Auto vars:     Size  Location     Type
  2596 ;;  exp1            1   42[BANK0 ] unsigned char 
  2597 ;;  sign1           1   41[BANK0 ] unsigned char 
  2598 ;; Return value:  Size  Location     Type
  2599 ;;                  4   32[BANK0 ] long 
  2600 ;; Registers used:
  2601 ;;		wreg, status,2, status,0
  2602 ;; Tracked objects:
  2603 ;;		On entry : 0/0
  2604 ;;		On exit  : 0/0
  2605 ;;		Unchanged: 0/0
  2606 ;; Data sizes:     COMMON   BANK0   BANK1   BANK3   BANK2
  2607 ;;      Params:         0       4       0       0       0
  2608 ;;      Locals:         0       2       0       0       0
  2609 ;;      Temps:          0       5       0       0       0
  2610 ;;      Totals:         0      11       0       0       0
  2611 ;;Total ram usage:       11 bytes
  2612 ;; Hardware stack levels used:    1
  2613 ;; Hardware stack levels required when called:    1
  2614 ;; This function calls:
  2615 ;;		Nothing
  2616 ;; This function is called by:
  2617 ;;		_ftoa
  2618 ;; This function uses a non-reentrant model
  2619 ;;
  2620                           
  2621                           
  2622                           ;psect for function ___fltol
  2623  0AAE                     ___fltol:
  2624  0AAE                     l2052:	
  2625                           ;incstack = 0
  2626                           ; Regs used in ___fltol: [wreg+status,2+status,0]
  2627                           
  2628  0AAE  1003               	clrc
  2629  0AAF  1283               	bcf	3,5	;RP0=0, select bank0
  2630  0AB0  1303               	bcf	3,6	;RP1=0, select bank0
  2631  0AB1  0D42               	rlf	___fltol@f1+2,w
  2632  0AB2  0D43               	rlf	___fltol@f1+3,w
  2633  0AB3  00C4               	movwf	??___fltol
  2634  0AB4  0844               	movf	??___fltol,w
  2635  0AB5  00CA               	movwf	___fltol@exp1
  2636  0AB6  084A               	movf	___fltol@exp1,w
  2637  0AB7  1D03               	btfss	3,2
  2638  0AB8  2ABA               	goto	u2561
  2639  0AB9  2ABB               	goto	u2560
  2640  0ABA                     u2561:
  2641  0ABA  2AC4               	goto	l2058
  2642  0ABB                     u2560:
  2643  0ABB                     l2054:
  2644  0ABB  3000               	movlw	0
  2645  0ABC  00C3               	movwf	?___fltol+3
  2646  0ABD  3000               	movlw	0
  2647  0ABE  00C2               	movwf	?___fltol+2
  2648  0ABF  3000               	movlw	0
  2649  0AC0  00C1               	movwf	?___fltol+1
  2650  0AC1  3000               	movlw	0
  2651  0AC2  00C0               	movwf	?___fltol
  2652  0AC3  2B29               	goto	l431
  2653  0AC4                     l2058:
  2654  0AC4  0840               	movf	___fltol@f1,w
  2655  0AC5  00C4               	movwf	??___fltol
  2656  0AC6  0841               	movf	___fltol@f1+1,w
  2657  0AC7  00C5               	movwf	??___fltol+1
  2658  0AC8  0842               	movf	___fltol@f1+2,w
  2659  0AC9  00C6               	movwf	??___fltol+2
  2660  0ACA  0843               	movf	___fltol@f1+3,w
  2661  0ACB  00C7               	movwf	??___fltol+3
  2662  0ACC  301F               	movlw	31
  2663  0ACD                     u2575:
  2664  0ACD  1003               	clrc
  2665  0ACE  0CC7               	rrf	??___fltol+3,f
  2666  0ACF  0CC6               	rrf	??___fltol+2,f
  2667  0AD0  0CC5               	rrf	??___fltol+1,f
  2668  0AD1  0CC4               	rrf	??___fltol,f
  2669  0AD2                     u2570:
  2670  0AD2  3EFF               	addlw	-1
  2671  0AD3  1D03               	skipz
  2672  0AD4  2ACD               	goto	u2575
  2673  0AD5  0844               	movf	??___fltol,w
  2674  0AD6  00C8               	movwf	??___fltol+4
  2675  0AD7  0848               	movf	??___fltol+4,w
  2676  0AD8  00C9               	movwf	___fltol@sign1
  2677  0AD9                     l2060:
  2678  0AD9  17C2               	bsf	___fltol@f1+2,7
  2679  0ADA                     l2062:
  2680  0ADA  30FF               	movlw	255
  2681  0ADB  05C0               	andwf	___fltol@f1,f
  2682  0ADC  30FF               	movlw	255
  2683  0ADD  05C1               	andwf	___fltol@f1+1,f
  2684  0ADE  30FF               	movlw	255
  2685  0ADF  05C2               	andwf	___fltol@f1+2,f
  2686  0AE0  3000               	movlw	0
  2687  0AE1  05C3               	andwf	___fltol@f1+3,f
  2688  0AE2                     l2064:
  2689  0AE2  3096               	movlw	150
  2690  0AE3  02CA               	subwf	___fltol@exp1,f
  2691  0AE4                     l2066:
  2692  0AE4  1FCA               	btfss	___fltol@exp1,7
  2693  0AE5  2AE7               	goto	u2581
  2694  0AE6  2AE8               	goto	u2580
  2695  0AE7                     u2581:
  2696  0AE7  2B02               	goto	l2076
  2697  0AE8                     u2580:
  2698  0AE8                     l2068:
  2699  0AE8  084A               	movf	___fltol@exp1,w
  2700  0AE9  3A80               	xorlw	128
  2701  0AEA  3E97               	addlw	151
  2702  0AEB  1803               	skipnc
  2703  0AEC  2AEE               	goto	u2591
  2704  0AED  2AEF               	goto	u2590
  2705  0AEE                     u2591:
  2706  0AEE  2AF0               	goto	l2074
  2707  0AEF                     u2590:
  2708  0AEF  2ABB               	goto	l2054
  2709  0AF0                     l2074:
  2710  0AF0  3001               	movlw	1
  2711  0AF1                     u2605:
  2712  0AF1  1003               	clrc
  2713  0AF2  0CC3               	rrf	___fltol@f1+3,f
  2714  0AF3  0CC2               	rrf	___fltol@f1+2,f
  2715  0AF4  0CC1               	rrf	___fltol@f1+1,f
  2716  0AF5  0CC0               	rrf	___fltol@f1,f
  2717  0AF6  3EFF               	addlw	-1
  2718  0AF7  1D03               	skipz
  2719  0AF8  2AF1               	goto	u2605
  2720  0AF9  3001               	movlw	1
  2721  0AFA  00C4               	movwf	??___fltol
  2722  0AFB  0844               	movf	??___fltol,w
  2723  0AFC  07CA               	addwf	___fltol@exp1,f
  2724  0AFD  1D03               	btfss	3,2
  2725  0AFE  2B00               	goto	u2611
  2726  0AFF  2B01               	goto	u2610
  2727  0B00                     u2611:
  2728  0B00  2AF0               	goto	l2074
  2729  0B01                     u2610:
  2730  0B01  2B19               	goto	l2084
  2731  0B02                     l2076:
  2732  0B02  3020               	movlw	32
  2733  0B03  024A               	subwf	___fltol@exp1,w
  2734  0B04  1C03               	skipc
  2735  0B05  2B07               	goto	u2621
  2736  0B06  2B08               	goto	u2620
  2737  0B07                     u2621:
  2738  0B07  2B14               	goto	l438
  2739  0B08                     u2620:
  2740  0B08  2ABB               	goto	l2054
  2741  0B09                     l2082:
  2742  0B09  3001               	movlw	1
  2743  0B0A  00C4               	movwf	??___fltol
  2744  0B0B                     u2635:
  2745  0B0B  1003               	clrc
  2746  0B0C  0DC0               	rlf	___fltol@f1,f
  2747  0B0D  0DC1               	rlf	___fltol@f1+1,f
  2748  0B0E  0DC2               	rlf	___fltol@f1+2,f
  2749  0B0F  0DC3               	rlf	___fltol@f1+3,f
  2750  0B10  0BC4               	decfsz	??___fltol,f
  2751  0B11  2B0B               	goto	u2635
  2752  0B12  3001               	movlw	1
  2753  0B13  02CA               	subwf	___fltol@exp1,f
  2754  0B14                     l438:
  2755  0B14  084A               	movf	___fltol@exp1,w
  2756  0B15  1D03               	btfss	3,2
  2757  0B16  2B18               	goto	u2641
  2758  0B17  2B19               	goto	u2640
  2759  0B18                     u2641:
  2760  0B18  2B09               	goto	l2082
  2761  0B19                     u2640:
  2762  0B19                     l2084:
  2763  0B19  0849               	movf	___fltol@sign1,w
  2764  0B1A  1903               	btfsc	3,2
  2765  0B1B  2B1D               	goto	u2651
  2766  0B1C  2B1E               	goto	u2650
  2767  0B1D                     u2651:
  2768  0B1D  2B29               	goto	l441
  2769  0B1E                     u2650:
  2770  0B1E                     l2086:
  2771  0B1E  09C0               	comf	___fltol@f1,f
  2772  0B1F  09C1               	comf	___fltol@f1+1,f
  2773  0B20  09C2               	comf	___fltol@f1+2,f
  2774  0B21  09C3               	comf	___fltol@f1+3,f
  2775  0B22  0AC0               	incf	___fltol@f1,f
  2776  0B23  1903               	skipnz
  2777  0B24  0AC1               	incf	___fltol@f1+1,f
  2778  0B25  1903               	skipnz
  2779  0B26  0AC2               	incf	___fltol@f1+2,f
  2780  0B27  1903               	skipnz
  2781  0B28  0AC3               	incf	___fltol@f1+3,f
  2782  0B29                     l441:
  2783  0B29                     l431:
  2784  0B29  0008               	return
  2785  0B2A                     __end_of___fltol:
  2786                           
  2787                           	psect	text8
  2788  0881                     __ptext8:	
  2789 ;; *************** function ___flsub *****************
  2790 ;; Defined at:
  2791 ;;		line 242 in file "D:\Program Files\Microchip\xc8\v2.31\pic\sources\c90\common\sprcadd.c"
  2792 ;; Parameters:    Size  Location     Type
  2793 ;;  a               4   12[BANK0 ] long 
  2794 ;;  b               4   16[BANK0 ] long 
  2795 ;; Auto vars:     Size  Location     Type
  2796 ;;		None
  2797 ;; Return value:  Size  Location     Type
  2798 ;;                  4   12[BANK0 ] long 
  2799 ;; Registers used:
  2800 ;;		wreg, status,2, status,0, btemp+1, pclath, cstack
  2801 ;; Tracked objects:
  2802 ;;		On entry : 0/0
  2803 ;;		On exit  : 0/0
  2804 ;;		Unchanged: 0/0
  2805 ;; Data sizes:     COMMON   BANK0   BANK1   BANK3   BANK2
  2806 ;;      Params:         0       8       0       0       0
  2807 ;;      Locals:         0       0       0       0       0
  2808 ;;      Temps:          0       0       0       0       0
  2809 ;;      Totals:         0       8       0       0       0
  2810 ;;Total ram usage:        8 bytes
  2811 ;; Hardware stack levels used:    1
  2812 ;; Hardware stack levels required when called:    2
  2813 ;; This function calls:
  2814 ;;		___fladd
  2815 ;; This function is called by:
  2816 ;;		_ftoa
  2817 ;; This function uses a non-reentrant model
  2818 ;;
  2819                           
  2820                           
  2821                           ;psect for function ___flsub
  2822  0881                     ___flsub:
  2823  0881                     l2088:	
  2824                           ;incstack = 0
  2825                           ; Regs used in ___flsub: [wreg+status,2+status,0+btemp+1+pclath+cstack]
  2826                           
  2827  0881  3080               	movlw	128
  2828  0882  1283               	bcf	3,5	;RP0=0, select bank0
  2829  0883  1303               	bcf	3,6	;RP1=0, select bank0
  2830  0884  06AF               	xorwf	___flsub@a+3,f
  2831  0885                     l2090:
  2832  0885  0833               	movf	___flsub@b+3,w
  2833  0886  00F6               	movwf	___fladd@b+3
  2834  0887  0832               	movf	___flsub@b+2,w
  2835  0888  00F5               	movwf	___fladd@b+2
  2836  0889  0831               	movf	___flsub@b+1,w
  2837  088A  00F4               	movwf	___fladd@b+1
  2838  088B  0830               	movf	___flsub@b,w
  2839  088C  00F3               	movwf	___fladd@b
  2840  088D  082F               	movf	___flsub@a+3,w
  2841  088E  00FA               	movwf	___fladd@a+3
  2842  088F  082E               	movf	___flsub@a+2,w
  2843  0890  00F9               	movwf	___fladd@a+2
  2844  0891  082D               	movf	___flsub@a+1,w
  2845  0892  00F8               	movwf	___fladd@a+1
  2846  0893  082C               	movf	___flsub@a,w
  2847  0894  00F7               	movwf	___fladd@a
  2848  0895  120A  118A  2385  120A  158A  	fcall	___fladd
  2849  089A  0876               	movf	?___fladd+3,w
  2850  089B  1283               	bcf	3,5	;RP0=0, select bank0
  2851  089C  1303               	bcf	3,6	;RP1=0, select bank0
  2852  089D  00AF               	movwf	?___flsub+3
  2853  089E  0875               	movf	?___fladd+2,w
  2854  089F  00AE               	movwf	?___flsub+2
  2855  08A0  0874               	movf	?___fladd+1,w
  2856  08A1  00AD               	movwf	?___flsub+1
  2857  08A2  0873               	movf	?___fladd,w
  2858  08A3  00AC               	movwf	?___flsub
  2859  08A4                     l584:
  2860  08A4  0008               	return
  2861  08A5                     __end_of___flsub:
  2862                           
  2863                           	psect	text9
  2864  0385                     __ptext9:	
  2865 ;; *************** function ___fladd *****************
  2866 ;; Defined at:
  2867 ;;		line 10 in file "D:\Program Files\Microchip\xc8\v2.31\pic\sources\c90\common\sprcadd.c"
  2868 ;; Parameters:    Size  Location     Type
  2869 ;;  b               4    3[COMMON] long 
  2870 ;;  a               4    7[COMMON] long 
  2871 ;; Auto vars:     Size  Location     Type
  2872 ;;  grs             1   11[BANK0 ] unsigned char 
  2873 ;;  bexp            1   10[BANK0 ] unsigned char 
  2874 ;;  aexp            1    9[BANK0 ] unsigned char 
  2875 ;;  signs           1    8[BANK0 ] unsigned char 
  2876 ;; Return value:  Size  Location     Type
  2877 ;;                  4    3[COMMON] unsigned char 
  2878 ;; Registers used:
  2879 ;;		wreg, status,2, status,0, btemp+1
  2880 ;; Tracked objects:
  2881 ;;		On entry : 0/0
  2882 ;;		On exit  : 0/0
  2883 ;;		Unchanged: 0/0
  2884 ;; Data sizes:     COMMON   BANK0   BANK1   BANK3   BANK2
  2885 ;;      Params:         8       0       0       0       0
  2886 ;;      Locals:         0       4       0       0       0
  2887 ;;      Temps:          0       8       0       0       0
  2888 ;;      Totals:         8      12       0       0       0
  2889 ;;Total ram usage:       20 bytes
  2890 ;; Hardware stack levels used:    1
  2891 ;; Hardware stack levels required when called:    1
  2892 ;; This function calls:
  2893 ;;		Nothing
  2894 ;; This function is called by:
  2895 ;;		___flsub
  2896 ;; This function uses a non-reentrant model
  2897 ;;
  2898                           
  2899                           
  2900                           ;psect for function ___fladd
  2901  0385                     ___fladd:
  2902  0385                     l1768:	
  2903                           ;incstack = 0
  2904                           ; Regs used in ___fladd: [wreg+status,2+status,0+btemp+1]
  2905                           
  2906  0385  0876               	movf	___fladd@b+3,w
  2907  0386  3980               	andlw	128
  2908  0387  1283               	bcf	3,5	;RP0=0, select bank0
  2909  0388  1303               	bcf	3,6	;RP1=0, select bank0
  2910  0389  00A0               	movwf	??___fladd
  2911  038A  0820               	movf	??___fladd,w
  2912  038B  00A8               	movwf	___fladd@signs
  2913  038C                     l1770:
  2914  038C  0876               	movf	___fladd@b+3,w
  2915  038D  00A0               	movwf	??___fladd
  2916  038E  0720               	addwf	??___fladd,w
  2917  038F  00A1               	movwf	??___fladd+1
  2918  0390  0821               	movf	??___fladd+1,w
  2919  0391  00AA               	movwf	___fladd@bexp
  2920  0392                     l1772:
  2921  0392  1FF5               	btfss	___fladd@b+2,7
  2922  0393  2B95               	goto	u1921
  2923  0394  2B96               	goto	u1920
  2924  0395                     u1921:
  2925  0395  2B97               	goto	l1776
  2926  0396                     u1920:
  2927  0396                     l1774:
  2928  0396  142A               	bsf	___fladd@bexp,0
  2929  0397                     l1776:
  2930  0397  082A               	movf	___fladd@bexp,w
  2931  0398  1903               	btfsc	3,2
  2932  0399  2B9B               	goto	u1931
  2933  039A  2B9C               	goto	u1930
  2934  039B                     u1931:
  2935  039B  2BAC               	goto	l1786
  2936  039C                     u1930:
  2937  039C                     l1778:
  2938  039C  0A2A               	incf	___fladd@bexp,w
  2939  039D  1D03               	btfss	3,2
  2940  039E  2BA0               	goto	u1941
  2941  039F  2BA1               	goto	u1940
  2942  03A0                     u1941:
  2943  03A0  2BA9               	goto	l1782
  2944  03A1                     u1940:
  2945  03A1                     l1780:
  2946  03A1  3000               	movlw	0
  2947  03A2  00F6               	movwf	___fladd@b+3
  2948  03A3  3000               	movlw	0
  2949  03A4  00F5               	movwf	___fladd@b+2
  2950  03A5  3000               	movlw	0
  2951  03A6  00F4               	movwf	___fladd@b+1
  2952  03A7  3000               	movlw	0
  2953  03A8  00F3               	movwf	___fladd@b
  2954  03A9                     l1782:
  2955  03A9  17F5               	bsf	___fladd@b+2,7
  2956  03AA                     l1784:
  2957  03AA  01F6               	clrf	___fladd@b+3
  2958  03AB  2BB4               	goto	l1788
  2959  03AC                     l1786:
  2960  03AC  3000               	movlw	0
  2961  03AD  00F6               	movwf	___fladd@b+3
  2962  03AE  3000               	movlw	0
  2963  03AF  00F5               	movwf	___fladd@b+2
  2964  03B0  3000               	movlw	0
  2965  03B1  00F4               	movwf	___fladd@b+1
  2966  03B2  3000               	movlw	0
  2967  03B3  00F3               	movwf	___fladd@b
  2968  03B4                     l1788:
  2969  03B4  087A               	movf	___fladd@a+3,w
  2970  03B5  3980               	andlw	128
  2971  03B6  00A0               	movwf	??___fladd
  2972  03B7  0820               	movf	??___fladd,w
  2973  03B8  00A9               	movwf	___fladd@aexp
  2974  03B9                     l1790:
  2975  03B9  0829               	movf	___fladd@aexp,w
  2976  03BA  0628               	xorwf	___fladd@signs,w
  2977  03BB  1903               	skipnz
  2978  03BC  2BBE               	goto	u1951
  2979  03BD  2BBF               	goto	u1950
  2980  03BE                     u1951:
  2981  03BE  2BC0               	goto	l1794
  2982  03BF                     u1950:
  2983  03BF                     l1792:
  2984  03BF  1728               	bsf	___fladd@signs,6
  2985  03C0                     l1794:
  2986  03C0  087A               	movf	___fladd@a+3,w
  2987  03C1  00A0               	movwf	??___fladd
  2988  03C2  0720               	addwf	??___fladd,w
  2989  03C3  00A1               	movwf	??___fladd+1
  2990  03C4  0821               	movf	??___fladd+1,w
  2991  03C5  00A9               	movwf	___fladd@aexp
  2992  03C6                     l1796:
  2993  03C6  1FF9               	btfss	___fladd@a+2,7
  2994  03C7  2BC9               	goto	u1961
  2995  03C8  2BCA               	goto	u1960
  2996  03C9                     u1961:
  2997  03C9  2BCB               	goto	l1800
  2998  03CA                     u1960:
  2999  03CA                     l1798:
  3000  03CA  1429               	bsf	___fladd@aexp,0
  3001  03CB                     l1800:
  3002  03CB  0829               	movf	___fladd@aexp,w
  3003  03CC  1903               	btfsc	3,2
  3004  03CD  2BCF               	goto	u1971
  3005  03CE  2BD0               	goto	u1970
  3006  03CF                     u1971:
  3007  03CF  2BE0               	goto	l1810
  3008  03D0                     u1970:
  3009  03D0                     l1802:
  3010  03D0  0A29               	incf	___fladd@aexp,w
  3011  03D1  1D03               	btfss	3,2
  3012  03D2  2BD4               	goto	u1981
  3013  03D3  2BD5               	goto	u1980
  3014  03D4                     u1981:
  3015  03D4  2BDD               	goto	l1806
  3016  03D5                     u1980:
  3017  03D5                     l1804:
  3018  03D5  3000               	movlw	0
  3019  03D6  00FA               	movwf	___fladd@a+3
  3020  03D7  3000               	movlw	0
  3021  03D8  00F9               	movwf	___fladd@a+2
  3022  03D9  3000               	movlw	0
  3023  03DA  00F8               	movwf	___fladd@a+1
  3024  03DB  3000               	movlw	0
  3025  03DC  00F7               	movwf	___fladd@a
  3026  03DD                     l1806:
  3027  03DD  17F9               	bsf	___fladd@a+2,7
  3028  03DE                     l1808:
  3029  03DE  01FA               	clrf	___fladd@a+3
  3030  03DF  2BE8               	goto	l538
  3031  03E0                     l1810:
  3032  03E0  3000               	movlw	0
  3033  03E1  00FA               	movwf	___fladd@a+3
  3034  03E2  3000               	movlw	0
  3035  03E3  00F9               	movwf	___fladd@a+2
  3036  03E4  3000               	movlw	0
  3037  03E5  00F8               	movwf	___fladd@a+1
  3038  03E6  3000               	movlw	0
  3039  03E7  00F7               	movwf	___fladd@a
  3040  03E8                     l538:
  3041  03E8  082A               	movf	___fladd@bexp,w
  3042  03E9  0229               	subwf	___fladd@aexp,w
  3043  03EA  1803               	skipnc
  3044  03EB  2BED               	goto	u1991
  3045  03EC  2BEE               	goto	u1990
  3046  03ED                     u1991:
  3047  03ED  2C32               	goto	l1846
  3048  03EE                     u1990:
  3049  03EE                     l1812:
  3050  03EE  1F28               	btfss	___fladd@signs,6
  3051  03EF  2BF1               	goto	u2001
  3052  03F0  2BF2               	goto	u2000
  3053  03F1                     u2001:
  3054  03F1  2BF6               	goto	l1816
  3055  03F2                     u2000:
  3056  03F2                     l1814:
  3057  03F2  3080               	movlw	128
  3058  03F3  00A0               	movwf	??___fladd
  3059  03F4  0820               	movf	??___fladd,w
  3060  03F5  06A8               	xorwf	___fladd@signs,f
  3061  03F6                     l1816:
  3062  03F6  082A               	movf	___fladd@bexp,w
  3063  03F7  00A0               	movwf	??___fladd
  3064  03F8  0820               	movf	??___fladd,w
  3065  03F9  00AB               	movwf	___fladd@grs
  3066  03FA                     l1818:
  3067  03FA  0829               	movf	___fladd@aexp,w
  3068  03FB  00A0               	movwf	??___fladd
  3069  03FC  0820               	movf	??___fladd,w
  3070  03FD  00AA               	movwf	___fladd@bexp
  3071  03FE                     l1820:
  3072  03FE  082B               	movf	___fladd@grs,w
  3073  03FF  00A0               	movwf	??___fladd
  3074  0400  0820               	movf	??___fladd,w
  3075  0401  00A9               	movwf	___fladd@aexp
  3076  0402                     l1822:
  3077  0402  0873               	movf	___fladd@b,w
  3078  0403  00A0               	movwf	??___fladd
  3079  0404  0820               	movf	??___fladd,w
  3080  0405  00AB               	movwf	___fladd@grs
  3081  0406                     l1824:
  3082  0406  0877               	movf	___fladd@a,w
  3083  0407  00A0               	movwf	??___fladd
  3084  0408  0820               	movf	??___fladd,w
  3085  0409  00F3               	movwf	___fladd@b
  3086  040A                     l1826:
  3087  040A  082B               	movf	___fladd@grs,w
  3088  040B  00A0               	movwf	??___fladd
  3089  040C  0820               	movf	??___fladd,w
  3090  040D  00F7               	movwf	___fladd@a
  3091  040E                     l1828:
  3092  040E  0874               	movf	___fladd@b+1,w
  3093  040F  00A0               	movwf	??___fladd
  3094  0410  0820               	movf	??___fladd,w
  3095  0411  00AB               	movwf	___fladd@grs
  3096  0412                     l1830:
  3097  0412  0878               	movf	___fladd@a+1,w
  3098  0413  00A0               	movwf	??___fladd
  3099  0414  0820               	movf	??___fladd,w
  3100  0415  00F4               	movwf	___fladd@b+1
  3101  0416                     l1832:
  3102  0416  082B               	movf	___fladd@grs,w
  3103  0417  00A0               	movwf	??___fladd
  3104  0418  0820               	movf	??___fladd,w
  3105  0419  00F8               	movwf	___fladd@a+1
  3106  041A                     l1834:
  3107  041A  0875               	movf	___fladd@b+2,w
  3108  041B  00A0               	movwf	??___fladd
  3109  041C  0820               	movf	??___fladd,w
  3110  041D  00AB               	movwf	___fladd@grs
  3111  041E                     l1836:
  3112  041E  0879               	movf	___fladd@a+2,w
  3113  041F  00A0               	movwf	??___fladd
  3114  0420  0820               	movf	??___fladd,w
  3115  0421  00F5               	movwf	___fladd@b+2
  3116  0422                     l1838:
  3117  0422  082B               	movf	___fladd@grs,w
  3118  0423  00A0               	movwf	??___fladd
  3119  0424  0820               	movf	??___fladd,w
  3120  0425  00F9               	movwf	___fladd@a+2
  3121  0426                     l1840:
  3122  0426  0876               	movf	___fladd@b+3,w
  3123  0427  00A0               	movwf	??___fladd
  3124  0428  0820               	movf	??___fladd,w
  3125  0429  00AB               	movwf	___fladd@grs
  3126  042A                     l1842:
  3127  042A  087A               	movf	___fladd@a+3,w
  3128  042B  00A0               	movwf	??___fladd
  3129  042C  0820               	movf	??___fladd,w
  3130  042D  00F6               	movwf	___fladd@b+3
  3131  042E                     l1844:
  3132  042E  082B               	movf	___fladd@grs,w
  3133  042F  00A0               	movwf	??___fladd
  3134  0430  0820               	movf	??___fladd,w
  3135  0431  00FA               	movwf	___fladd@a+3
  3136  0432                     l1846:
  3137  0432  01AB               	clrf	___fladd@grs
  3138  0433                     l1848:
  3139  0433  0829               	movf	___fladd@aexp,w
  3140  0434  00A0               	movwf	??___fladd
  3141  0435  01A1               	clrf	??___fladd+1
  3142  0436  0821               	movf	??___fladd+1,w
  3143  0437  00A3               	movwf	??___fladd+3
  3144  0438  082A               	movf	___fladd@bexp,w
  3145  0439  0220               	subwf	??___fladd,w
  3146  043A  00A2               	movwf	??___fladd+2
  3147  043B  1C03               	skipc
  3148  043C  03A3               	decf	??___fladd+3,f
  3149  043D  0823               	movf	??___fladd+3,w
  3150  043E  3A80               	xorlw	128
  3151  043F  00FF               	movwf	btemp+1
  3152  0440  3080               	movlw	128
  3153  0441  027F               	subwf	btemp+1,w
  3154  0442  1D03               	skipz
  3155  0443  2C46               	goto	u2015
  3156  0444  301A               	movlw	26
  3157  0445  0222               	subwf	??___fladd+2,w
  3158  0446                     u2015:
  3159  0446  1C03               	skipc
  3160  0447  2C49               	goto	u2011
  3161  0448  2C4A               	goto	u2010
  3162  0449                     u2011:
  3163  0449  2C87               	goto	l1864
  3164  044A                     u2010:
  3165  044A                     l1850:
  3166  044A  0876               	movf	___fladd@b+3,w
  3167  044B  0475               	iorwf	___fladd@b+2,w
  3168  044C  0474               	iorwf	___fladd@b+1,w
  3169  044D  0473               	iorwf	___fladd@b,w
  3170  044E  1D03               	skipz
  3171  044F  2C51               	goto	u2021
  3172  0450  2C53               	goto	u2020
  3173  0451                     u2021:
  3174  0451  3001               	movlw	1
  3175  0452  2C54               	goto	u2030
  3176  0453                     u2020:
  3177  0453  3000               	movlw	0
  3178  0454                     u2030:
  3179  0454  1283               	bcf	3,5	;RP0=0, select bank0
  3180  0455  1303               	bcf	3,6	;RP1=0, select bank0
  3181  0456  00A0               	movwf	??___fladd
  3182  0457  0820               	movf	??___fladd,w
  3183  0458  00AB               	movwf	___fladd@grs
  3184  0459  3000               	movlw	0
  3185  045A  00F6               	movwf	___fladd@b+3
  3186  045B  3000               	movlw	0
  3187  045C  00F5               	movwf	___fladd@b+2
  3188  045D  3000               	movlw	0
  3189  045E  00F4               	movwf	___fladd@b+1
  3190  045F  3000               	movlw	0
  3191  0460  00F3               	movwf	___fladd@b
  3192  0461  0829               	movf	___fladd@aexp,w
  3193  0462  00A0               	movwf	??___fladd
  3194  0463  0820               	movf	??___fladd,w
  3195  0464  00AA               	movwf	___fladd@bexp
  3196  0465  2C8F               	goto	l542
  3197  0466                     l544:
  3198  0466  1C2B               	btfss	___fladd@grs,0
  3199  0467  2C69               	goto	u2041
  3200  0468  2C6A               	goto	u2040
  3201  0469                     u2041:
  3202  0469  2C73               	goto	l1854
  3203  046A                     u2040:
  3204  046A                     l1852:
  3205  046A  082B               	movf	___fladd@grs,w
  3206  046B  00A0               	movwf	??___fladd
  3207  046C  1003               	clrc
  3208  046D  0C20               	rrf	??___fladd,w
  3209  046E  3801               	iorlw	1
  3210  046F  00A1               	movwf	??___fladd+1
  3211  0470  0821               	movf	??___fladd+1,w
  3212  0471  00AB               	movwf	___fladd@grs
  3213  0472  2C75               	goto	l1856
  3214  0473                     l1854:
  3215  0473  1003               	clrc
  3216  0474  0CAB               	rrf	___fladd@grs,f
  3217  0475                     l1856:
  3218  0475  1C73               	btfss	___fladd@b,0
  3219  0476  2C78               	goto	u2051
  3220  0477  2C79               	goto	u2050
  3221  0478                     u2051:
  3222  0478  2C7A               	goto	l1860
  3223  0479                     u2050:
  3224  0479                     l1858:
  3225  0479  17AB               	bsf	___fladd@grs,7
  3226  047A                     l1860:
  3227  047A  3001               	movlw	1
  3228  047B  00A0               	movwf	??___fladd
  3229  047C                     u2065:
  3230  047C  0D76               	rlf	___fladd@b+3,w
  3231  047D  0CF6               	rrf	___fladd@b+3,f
  3232  047E  0CF5               	rrf	___fladd@b+2,f
  3233  047F  0CF4               	rrf	___fladd@b+1,f
  3234  0480  0CF3               	rrf	___fladd@b,f
  3235  0481  0BA0               	decfsz	??___fladd& (0+127),f
  3236  0482  2C7C               	goto	u2065
  3237  0483                     l1862:
  3238  0483  3001               	movlw	1
  3239  0484  00A0               	movwf	??___fladd
  3240  0485  0820               	movf	??___fladd,w
  3241  0486  07AA               	addwf	___fladd@bexp,f
  3242  0487                     l1864:
  3243  0487  1283               	bcf	3,5	;RP0=0, select bank0
  3244  0488  1303               	bcf	3,6	;RP1=0, select bank0
  3245  0489  0829               	movf	___fladd@aexp,w
  3246  048A  022A               	subwf	___fladd@bexp,w
  3247  048B  1C03               	skipc
  3248  048C  2C8E               	goto	u2071
  3249  048D  2C8F               	goto	u2070
  3250  048E                     u2071:
  3251  048E  2C66               	goto	l544
  3252  048F                     u2070:
  3253  048F                     l542:
  3254  048F  1B28               	btfsc	___fladd@signs,6
  3255  0490  2C92               	goto	u2081
  3256  0491  2C93               	goto	u2080
  3257  0492                     u2081:
  3258  0492  2CDE               	goto	l1890
  3259  0493                     u2080:
  3260  0493                     l1866:
  3261  0493  082A               	movf	___fladd@bexp,w
  3262  0494  1D03               	btfss	3,2
  3263  0495  2C97               	goto	u2091
  3264  0496  2C98               	goto	u2090
  3265  0497                     u2091:
  3266  0497  2CA1               	goto	l1872
  3267  0498                     u2090:
  3268  0498                     l1868:
  3269  0498  3000               	movlw	0
  3270  0499  00F6               	movwf	?___fladd+3
  3271  049A  3000               	movlw	0
  3272  049B  00F5               	movwf	?___fladd+2
  3273  049C  3000               	movlw	0
  3274  049D  00F4               	movwf	?___fladd+1
  3275  049E  3000               	movlw	0
  3276  049F  00F3               	movwf	?___fladd
  3277  04A0  2E0C               	goto	l551
  3278  04A1                     l1872:
  3279  04A1  0877               	movf	___fladd@a,w
  3280  04A2  07F3               	addwf	___fladd@b,f
  3281  04A3  0878               	movf	___fladd@a+1,w
  3282  04A4  1103               	clrz
  3283  04A5  1803               	skipnc
  3284  04A6  3E01               	addlw	1
  3285  04A7  1903               	skipnz
  3286  04A8  2CAA               	goto	u2101
  3287  04A9  07F4               	addwf	___fladd@b+1,f
  3288  04AA                     u2101:
  3289  04AA  0879               	movf	___fladd@a+2,w
  3290  04AB  1103               	clrz
  3291  04AC  1803               	skipnc
  3292  04AD  3E01               	addlw	1
  3293  04AE  1903               	skipnz
  3294  04AF  2CB1               	goto	u2102
  3295  04B0  07F5               	addwf	___fladd@b+2,f
  3296  04B1                     u2102:
  3297  04B1  087A               	movf	___fladd@a+3,w
  3298  04B2  1103               	clrz
  3299  04B3  1803               	skipnc
  3300  04B4  3E01               	addlw	1
  3301  04B5  1903               	skipnz
  3302  04B6  2CB8               	goto	u2103
  3303  04B7  07F6               	addwf	___fladd@b+3,f
  3304  04B8                     u2103:
  3305  04B8                     l1874:
  3306  04B8  1C76               	btfss	___fladd@b+3,0
  3307  04B9  2CBB               	goto	u2111
  3308  04BA  2CBC               	goto	u2110
  3309  04BB                     u2111:
  3310  04BB  2D92               	goto	l1924
  3311  04BC                     u2110:
  3312  04BC                     l1876:
  3313  04BC  1C2B               	btfss	___fladd@grs,0
  3314  04BD  2CBF               	goto	u2121
  3315  04BE  2CC0               	goto	u2120
  3316  04BF                     u2121:
  3317  04BF  2CC9               	goto	l1880
  3318  04C0                     u2120:
  3319  04C0                     l1878:
  3320  04C0  082B               	movf	___fladd@grs,w
  3321  04C1  00A0               	movwf	??___fladd
  3322  04C2  1003               	clrc
  3323  04C3  0C20               	rrf	??___fladd,w
  3324  04C4  3801               	iorlw	1
  3325  04C5  00A1               	movwf	??___fladd+1
  3326  04C6  0821               	movf	??___fladd+1,w
  3327  04C7  00AB               	movwf	___fladd@grs
  3328  04C8  2CCB               	goto	l1882
  3329  04C9                     l1880:
  3330  04C9  1003               	clrc
  3331  04CA  0CAB               	rrf	___fladd@grs,f
  3332  04CB                     l1882:
  3333  04CB  1C73               	btfss	___fladd@b,0
  3334  04CC  2CCE               	goto	u2131
  3335  04CD  2CCF               	goto	u2130
  3336  04CE                     u2131:
  3337  04CE  2CD0               	goto	l1886
  3338  04CF                     u2130:
  3339  04CF                     l1884:
  3340  04CF  17AB               	bsf	___fladd@grs,7
  3341  04D0                     l1886:
  3342  04D0  3001               	movlw	1
  3343  04D1  00A0               	movwf	??___fladd
  3344  04D2                     u2145:
  3345  04D2  0D76               	rlf	___fladd@b+3,w
  3346  04D3  0CF6               	rrf	___fladd@b+3,f
  3347  04D4  0CF5               	rrf	___fladd@b+2,f
  3348  04D5  0CF4               	rrf	___fladd@b+1,f
  3349  04D6  0CF3               	rrf	___fladd@b,f
  3350  04D7  0BA0               	decfsz	??___fladd& (0+127),f
  3351  04D8  2CD2               	goto	u2145
  3352  04D9                     l1888:
  3353  04D9  3001               	movlw	1
  3354  04DA  00A0               	movwf	??___fladd
  3355  04DB  0820               	movf	??___fladd,w
  3356  04DC  07AA               	addwf	___fladd@bexp,f
  3357  04DD  2D92               	goto	l1924
  3358  04DE                     l1890:
  3359  04DE  0876               	movf	___fladd@b+3,w
  3360  04DF  3A80               	xorlw	128
  3361  04E0  00FF               	movwf	btemp+1
  3362  04E1  087A               	movf	___fladd@a+3,w
  3363  04E2  3A80               	xorlw	128
  3364  04E3  027F               	subwf	btemp+1,w
  3365  04E4  1D03               	skipz
  3366  04E5  2CF0               	goto	u2153
  3367  04E6  0879               	movf	___fladd@a+2,w
  3368  04E7  0275               	subwf	___fladd@b+2,w
  3369  04E8  1D03               	skipz
  3370  04E9  2CF0               	goto	u2153
  3371  04EA  0878               	movf	___fladd@a+1,w
  3372  04EB  0274               	subwf	___fladd@b+1,w
  3373  04EC  1D03               	skipz
  3374  04ED  2CF0               	goto	u2153
  3375  04EE  0877               	movf	___fladd@a,w
  3376  04EF  0273               	subwf	___fladd@b,w
  3377  04F0                     u2153:
  3378  04F0  1803               	skipnc
  3379  04F1  2CF3               	goto	u2151
  3380  04F2  2CF4               	goto	u2150
  3381  04F3                     u2151:
  3382  04F3  2D4C               	goto	l1900
  3383  04F4                     u2150:
  3384  04F4                     l1892:
  3385  04F4  30FF               	movlw	255
  3386  04F5  00A0               	movwf	??___fladd
  3387  04F6  30FF               	movlw	255
  3388  04F7  00A1               	movwf	??___fladd+1
  3389  04F8  30FF               	movlw	255
  3390  04F9  00A2               	movwf	??___fladd+2
  3391  04FA  30FF               	movlw	255
  3392  04FB  00A3               	movwf	??___fladd+3
  3393  04FC  0877               	movf	___fladd@a,w
  3394  04FD  00A4               	movwf	??___fladd+4
  3395  04FE  0878               	movf	___fladd@a+1,w
  3396  04FF  00A5               	movwf	??___fladd+5
  3397  0500  0879               	movf	___fladd@a+2,w
  3398  0501  00A6               	movwf	??___fladd+6
  3399  0502  087A               	movf	___fladd@a+3,w
  3400  0503  00A7               	movwf	??___fladd+7
  3401  0504  0873               	movf	___fladd@b,w
  3402  0505  02A4               	subwf	??___fladd+4,f
  3403  0506  0874               	movf	___fladd@b+1,w
  3404  0507  1C03               	skipc
  3405  0508  0F74               	incfsz	___fladd@b+1,w
  3406  0509  2D0B               	goto	u2161
  3407  050A  2D0C               	goto	u2162
  3408  050B                     u2161:
  3409  050B  02A5               	subwf	??___fladd+5,f
  3410  050C                     u2162:
  3411  050C  0875               	movf	___fladd@b+2,w
  3412  050D  1C03               	skipc
  3413  050E  0F75               	incfsz	___fladd@b+2,w
  3414  050F  2D11               	goto	u2163
  3415  0510  2D12               	goto	u2164
  3416  0511                     u2163:
  3417  0511  02A6               	subwf	??___fladd+6,f
  3418  0512                     u2164:
  3419  0512  0876               	movf	___fladd@b+3,w
  3420  0513  1C03               	skipc
  3421  0514  0F76               	incfsz	___fladd@b+3,w
  3422  0515  2D17               	goto	u2165
  3423  0516  2D18               	goto	u2166
  3424  0517                     u2165:
  3425  0517  02A7               	subwf	??___fladd+7,f
  3426  0518                     u2166:
  3427  0518  0824               	movf	??___fladd+4,w
  3428  0519  07A0               	addwf	??___fladd,f
  3429  051A  0825               	movf	??___fladd+5,w
  3430  051B  1803               	skipnc
  3431  051C  0F25               	incfsz	??___fladd+5,w
  3432  051D  2D1F               	goto	u2170
  3433  051E  2D20               	goto	u2171
  3434  051F                     u2170:
  3435  051F  07A1               	addwf	??___fladd+1,f
  3436  0520                     u2171:
  3437  0520  0826               	movf	??___fladd+6,w
  3438  0521  1803               	skipnc
  3439  0522  0F26               	incfsz	??___fladd+6,w
  3440  0523  2D25               	goto	u2172
  3441  0524  2D26               	goto	u2173
  3442  0525                     u2172:
  3443  0525  07A2               	addwf	??___fladd+2,f
  3444  0526                     u2173:
  3445  0526  0827               	movf	??___fladd+7,w
  3446  0527  1803               	skipnc
  3447  0528  0A27               	incf	??___fladd+7,w
  3448  0529  07A3               	addwf	??___fladd+3,f
  3449  052A  0823               	movf	??___fladd+3,w
  3450  052B  00F6               	movwf	___fladd@b+3
  3451  052C  0822               	movf	??___fladd+2,w
  3452  052D  00F5               	movwf	___fladd@b+2
  3453  052E  0821               	movf	??___fladd+1,w
  3454  052F  00F4               	movwf	___fladd@b+1
  3455  0530  0820               	movf	??___fladd,w
  3456  0531  00F3               	movwf	___fladd@b
  3457  0532                     l1894:
  3458  0532  3080               	movlw	128
  3459  0533  00A0               	movwf	??___fladd
  3460  0534  0820               	movf	??___fladd,w
  3461  0535  06A8               	xorwf	___fladd@signs,f
  3462  0536  09AB               	comf	___fladd@grs,f
  3463  0537  0AAB               	incf	___fladd@grs,f
  3464  0538                     l1896:
  3465  0538  082B               	movf	___fladd@grs,w
  3466  0539  1D03               	btfss	3,2
  3467  053A  2D3C               	goto	u2181
  3468  053B  2D3D               	goto	u2180
  3469  053C                     u2181:
  3470  053C  2D5A               	goto	l559
  3471  053D                     u2180:
  3472  053D                     l1898:
  3473  053D  3001               	movlw	1
  3474  053E  07F3               	addwf	___fladd@b,f
  3475  053F  3000               	movlw	0
  3476  0540  1803               	skipnc
  3477  0541  3001               	movlw	1
  3478  0542  07F4               	addwf	___fladd@b+1,f
  3479  0543  3000               	movlw	0
  3480  0544  1803               	skipnc
  3481  0545  3001               	movlw	1
  3482  0546  07F5               	addwf	___fladd@b+2,f
  3483  0547  3000               	movlw	0
  3484  0548  1803               	skipnc
  3485  0549  3001               	movlw	1
  3486  054A  07F6               	addwf	___fladd@b+3,f
  3487  054B  2D5A               	goto	l559
  3488  054C                     l1900:
  3489  054C  0877               	movf	___fladd@a,w
  3490  054D  02F3               	subwf	___fladd@b,f
  3491  054E  0878               	movf	___fladd@a+1,w
  3492  054F  1C03               	skipc
  3493  0550  0F78               	incfsz	___fladd@a+1,w
  3494  0551  02F4               	subwf	___fladd@b+1,f
  3495  0552  0879               	movf	___fladd@a+2,w
  3496  0553  1C03               	skipc
  3497  0554  0F79               	incfsz	___fladd@a+2,w
  3498  0555  02F5               	subwf	___fladd@b+2,f
  3499  0556  087A               	movf	___fladd@a+3,w
  3500  0557  1C03               	skipc
  3501  0558  0F7A               	incfsz	___fladd@a+3,w
  3502  0559  02F6               	subwf	___fladd@b+3,f
  3503  055A                     l559:
  3504  055A  0876               	movf	___fladd@b+3,w
  3505  055B  0475               	iorwf	___fladd@b+2,w
  3506  055C  0474               	iorwf	___fladd@b+1,w
  3507  055D  0473               	iorwf	___fladd@b,w
  3508  055E  1D03               	skipz
  3509  055F  2D61               	goto	u2191
  3510  0560  2D62               	goto	u2190
  3511  0561                     u2191:
  3512  0561  2D8E               	goto	l1922
  3513  0562                     u2190:
  3514  0562                     l1902:
  3515  0562  082B               	movf	___fladd@grs,w
  3516  0563  1D03               	btfss	3,2
  3517  0564  2D66               	goto	u2201
  3518  0565  2D67               	goto	u2200
  3519  0566                     u2201:
  3520  0566  2D8E               	goto	l1922
  3521  0567                     u2200:
  3522  0567                     l1904:
  3523  0567  3000               	movlw	0
  3524  0568  00F6               	movwf	?___fladd+3
  3525  0569  3000               	movlw	0
  3526  056A  00F5               	movwf	?___fladd+2
  3527  056B  3000               	movlw	0
  3528  056C  00F4               	movwf	?___fladd+1
  3529  056D  3000               	movlw	0
  3530  056E  00F3               	movwf	?___fladd
  3531  056F  2E0C               	goto	l551
  3532  0570                     l1908:
  3533  0570  3001               	movlw	1
  3534  0571  00A0               	movwf	??___fladd
  3535  0572                     u2215:
  3536  0572  1003               	clrc
  3537  0573  0DF3               	rlf	___fladd@b,f
  3538  0574  0DF4               	rlf	___fladd@b+1,f
  3539  0575  0DF5               	rlf	___fladd@b+2,f
  3540  0576  0DF6               	rlf	___fladd@b+3,f
  3541  0577  0BA0               	decfsz	??___fladd,f
  3542  0578  2D72               	goto	u2215
  3543  0579                     l1910:
  3544  0579  1FAB               	btfss	___fladd@grs,7
  3545  057A  2D7C               	goto	u2221
  3546  057B  2D7D               	goto	u2220
  3547  057C                     u2221:
  3548  057C  2D7E               	goto	l563
  3549  057D                     u2220:
  3550  057D                     l1912:
  3551  057D  1473               	bsf	___fladd@b,0
  3552  057E                     l563:
  3553  057E  1C2B               	btfss	___fladd@grs,0
  3554  057F  2D81               	goto	u2231
  3555  0580  2D82               	goto	u2230
  3556  0581                     u2231:
  3557  0581  2D85               	goto	l1916
  3558  0582                     u2230:
  3559  0582                     l1914:
  3560  0582  1403               	setc
  3561  0583  0DAB               	rlf	___fladd@grs,f
  3562  0584  2D87               	goto	l1918
  3563  0585                     l1916:
  3564  0585  1003               	clrc
  3565  0586  0DAB               	rlf	___fladd@grs,f
  3566  0587                     l1918:
  3567  0587  082A               	movf	___fladd@bexp,w
  3568  0588  1903               	btfsc	3,2
  3569  0589  2D8B               	goto	u2241
  3570  058A  2D8C               	goto	u2240
  3571  058B                     u2241:
  3572  058B  2D8E               	goto	l1922
  3573  058C                     u2240:
  3574  058C                     l1920:
  3575  058C  3001               	movlw	1
  3576  058D  02AA               	subwf	___fladd@bexp,f
  3577  058E                     l1922:
  3578  058E  1FF5               	btfss	___fladd@b+2,7
  3579  058F  2D91               	goto	u2251
  3580  0590  2D92               	goto	u2250
  3581  0591                     u2251:
  3582  0591  2D70               	goto	l1908
  3583  0592                     u2250:
  3584  0592                     l1924:
  3585  0592  01A9               	clrf	___fladd@aexp
  3586  0593                     l1926:
  3587  0593  1FAB               	btfss	___fladd@grs,7
  3588  0594  2D96               	goto	u2261
  3589  0595  2D97               	goto	u2260
  3590  0596                     u2261:
  3591  0596  2DA5               	goto	l1934
  3592  0597                     u2260:
  3593  0597                     l1928:
  3594  0597  082B               	movf	___fladd@grs,w
  3595  0598  397F               	andlw	127
  3596  0599  1903               	btfsc	3,2
  3597  059A  2D9C               	goto	u2271
  3598  059B  2D9D               	goto	u2270
  3599  059C                     u2271:
  3600  059C  2DA0               	goto	l569
  3601  059D                     u2270:
  3602  059D                     l1930:
  3603  059D  01A9               	clrf	___fladd@aexp
  3604  059E  0AA9               	incf	___fladd@aexp,f
  3605  059F  2DA5               	goto	l1934
  3606  05A0                     l569:
  3607  05A0  1C73               	btfss	___fladd@b,0
  3608  05A1  2DA3               	goto	u2281
  3609  05A2  2DA4               	goto	u2280
  3610  05A3                     u2281:
  3611  05A3  2DA5               	goto	l1934
  3612  05A4                     u2280:
  3613  05A4  2D9D               	goto	l1930
  3614  05A5                     l1934:
  3615  05A5  0829               	movf	___fladd@aexp,w
  3616  05A6  1903               	btfsc	3,2
  3617  05A7  2DA9               	goto	u2291
  3618  05A8  2DAA               	goto	u2290
  3619  05A9                     u2291:
  3620  05A9  2DDE               	goto	l572
  3621  05AA                     u2290:
  3622  05AA                     l1936:
  3623  05AA  3001               	movlw	1
  3624  05AB  07F3               	addwf	___fladd@b,f
  3625  05AC  3000               	movlw	0
  3626  05AD  1803               	skipnc
  3627  05AE  3001               	movlw	1
  3628  05AF  07F4               	addwf	___fladd@b+1,f
  3629  05B0  3000               	movlw	0
  3630  05B1  1803               	skipnc
  3631  05B2  3001               	movlw	1
  3632  05B3  07F5               	addwf	___fladd@b+2,f
  3633  05B4  3000               	movlw	0
  3634  05B5  1803               	skipnc
  3635  05B6  3001               	movlw	1
  3636  05B7  07F6               	addwf	___fladd@b+3,f
  3637  05B8                     l1938:
  3638  05B8  1C76               	btfss	___fladd@b+3,0
  3639  05B9  2DBB               	goto	u2301
  3640  05BA  2DBC               	goto	u2300
  3641  05BB                     u2301:
  3642  05BB  2DDE               	goto	l572
  3643  05BC                     u2300:
  3644  05BC                     l1940:
  3645  05BC  0873               	movf	___fladd@b,w
  3646  05BD  00A0               	movwf	??___fladd
  3647  05BE  0874               	movf	___fladd@b+1,w
  3648  05BF  00A1               	movwf	??___fladd+1
  3649  05C0  0875               	movf	___fladd@b+2,w
  3650  05C1  00A2               	movwf	??___fladd+2
  3651  05C2  0876               	movf	___fladd@b+3,w
  3652  05C3  00A3               	movwf	??___fladd+3
  3653  05C4  3001               	movlw	1
  3654  05C5  00A4               	movwf	??___fladd+4
  3655  05C6                     u2315:
  3656  05C6  0D23               	rlf	??___fladd+3,w
  3657  05C7  0CA3               	rrf	??___fladd+3,f
  3658  05C8  0CA2               	rrf	??___fladd+2,f
  3659  05C9  0CA1               	rrf	??___fladd+1,f
  3660  05CA  0CA0               	rrf	??___fladd,f
  3661  05CB                     u2310:
  3662  05CB  0BA4               	decfsz	??___fladd+4,f
  3663  05CC  2DC6               	goto	u2315
  3664  05CD  0823               	movf	??___fladd+3,w
  3665  05CE  00F6               	movwf	___fladd@b+3
  3666  05CF  0822               	movf	??___fladd+2,w
  3667  05D0  00F5               	movwf	___fladd@b+2
  3668  05D1  0821               	movf	??___fladd+1,w
  3669  05D2  00F4               	movwf	___fladd@b+1
  3670  05D3  0820               	movf	??___fladd,w
  3671  05D4  00F3               	movwf	___fladd@b
  3672  05D5  0A2A               	incf	___fladd@bexp,w
  3673  05D6  1903               	btfsc	3,2
  3674  05D7  2DD9               	goto	u2321
  3675  05D8  2DDA               	goto	u2320
  3676  05D9                     u2321:
  3677  05D9  2DDE               	goto	l572
  3678  05DA                     u2320:
  3679  05DA                     l1942:
  3680  05DA  3001               	movlw	1
  3681  05DB  00A0               	movwf	??___fladd
  3682  05DC  0820               	movf	??___fladd,w
  3683  05DD  07AA               	addwf	___fladd@bexp,f
  3684  05DE                     l572:
  3685  05DE  0A2A               	incf	___fladd@bexp,w
  3686  05DF  1903               	btfsc	3,2
  3687  05E0  2DE2               	goto	u2331
  3688  05E1  2DE3               	goto	u2330
  3689  05E2                     u2331:
  3690  05E2  2DE8               	goto	l1946
  3691  05E3                     u2330:
  3692  05E3                     l1944:
  3693  05E3  082A               	movf	___fladd@bexp,w
  3694  05E4  1D03               	btfss	3,2
  3695  05E5  2DE7               	goto	u2341
  3696  05E6  2DE8               	goto	u2340
  3697  05E7                     u2341:
  3698  05E7  2DF6               	goto	l1952
  3699  05E8                     u2340:
  3700  05E8                     l1946:
  3701  05E8  3000               	movlw	0
  3702  05E9  00F6               	movwf	___fladd@b+3
  3703  05EA  3000               	movlw	0
  3704  05EB  00F5               	movwf	___fladd@b+2
  3705  05EC  3000               	movlw	0
  3706  05ED  00F4               	movwf	___fladd@b+1
  3707  05EE  3000               	movlw	0
  3708  05EF  00F3               	movwf	___fladd@b
  3709  05F0                     l1948:
  3710  05F0  082A               	movf	___fladd@bexp,w
  3711  05F1  1D03               	btfss	3,2
  3712  05F2  2DF4               	goto	u2351
  3713  05F3  2DF5               	goto	u2350
  3714  05F4                     u2351:
  3715  05F4  2DF6               	goto	l1952
  3716  05F5                     u2350:
  3717  05F5                     l1950:
  3718  05F5  01A8               	clrf	___fladd@signs
  3719  05F6                     l1952:
  3720  05F6  1C2A               	btfss	___fladd@bexp,0
  3721  05F7  2DF9               	goto	u2361
  3722  05F8  2DFA               	goto	u2360
  3723  05F9                     u2361:
  3724  05F9  2DFC               	goto	l1956
  3725  05FA                     u2360:
  3726  05FA                     l1954:
  3727  05FA  17F5               	bsf	___fladd@b+2,7
  3728  05FB  2E00               	goto	l580
  3729  05FC                     l1956:
  3730  05FC  307F               	movlw	127
  3731  05FD  00A0               	movwf	??___fladd
  3732  05FE  0820               	movf	??___fladd,w
  3733  05FF  05F5               	andwf	___fladd@b+2,f
  3734  0600                     l580:
  3735  0600  082A               	movf	___fladd@bexp,w
  3736  0601  00A0               	movwf	??___fladd
  3737  0602  1003               	clrc
  3738  0603  0C20               	rrf	??___fladd,w
  3739  0604  00A1               	movwf	??___fladd+1
  3740  0605  0821               	movf	??___fladd+1,w
  3741  0606  00F6               	movwf	___fladd@b+3
  3742  0607                     l1958:
  3743  0607  1FA8               	btfss	___fladd@signs,7
  3744  0608  2E0A               	goto	u2371
  3745  0609  2E0B               	goto	u2370
  3746  060A                     u2371:
  3747  060A  2E0C               	goto	l581
  3748  060B                     u2370:
  3749  060B                     l1960:
  3750  060B  17F6               	bsf	___fladd@b+3,7
  3751  060C                     l581:
  3752  060C                     l551:
  3753  060C  0008               	return
  3754  060D                     __end_of___fladd:
  3755                           
  3756                           	psect	text10
  3757  17DC                     __ptext10:	
  3758 ;; *************** function ___flneg *****************
  3759 ;; Defined at:
  3760 ;;		line 15 in file "D:\Program Files\Microchip\xc8\v2.31\pic\sources\c90\common\flneg.c"
  3761 ;; Parameters:    Size  Location     Type
  3762 ;;  f1              4    3[COMMON] unsigned char 
  3763 ;; Auto vars:     Size  Location     Type
  3764 ;;		None
  3765 ;; Return value:  Size  Location     Type
  3766 ;;                  4    3[COMMON] unsigned char 
  3767 ;; Registers used:
  3768 ;;		wreg
  3769 ;; Tracked objects:
  3770 ;;		On entry : 0/0
  3771 ;;		On exit  : 0/0
  3772 ;;		Unchanged: 0/0
  3773 ;; Data sizes:     COMMON   BANK0   BANK1   BANK3   BANK2
  3774 ;;      Params:         4       0       0       0       0
  3775 ;;      Locals:         0       0       0       0       0
  3776 ;;      Temps:          0       0       0       0       0
  3777 ;;      Totals:         4       0       0       0       0
  3778 ;;Total ram usage:        4 bytes
  3779 ;; Hardware stack levels used:    1
  3780 ;; Hardware stack levels required when called:    1
  3781 ;; This function calls:
  3782 ;;		Nothing
  3783 ;; This function is called by:
  3784 ;;		_ftoa
  3785 ;; This function uses a non-reentrant model
  3786 ;;
  3787                           
  3788                           
  3789                           ;psect for function ___flneg
  3790  17DC                     ___flneg:
  3791  17DC                     l2044:	
  3792                           ;incstack = 0
  3793                           ; Regs used in ___flneg: [wreg]
  3794                           
  3795  17DC  0876               	movf	___flneg@f1+3,w
  3796  17DD  0475               	iorwf	___flneg@f1+2,w
  3797  17DE  0474               	iorwf	___flneg@f1+1,w
  3798  17DF  0473               	iorwf	___flneg@f1,w
  3799  17E0  1903               	skipnz
  3800  17E1  2FE3               	goto	u2551
  3801  17E2  2FE4               	goto	u2550
  3802  17E3                     u2551:
  3803  17E3  2FE6               	goto	l2048
  3804  17E4                     u2550:
  3805  17E4                     l2046:
  3806  17E4  3080               	movlw	128
  3807  17E5  06F6               	xorwf	___flneg@f1+3,f
  3808  17E6                     l2048:
  3809  17E6                     l427:
  3810  17E6  0008               	return
  3811  17E7                     __end_of___flneg:
  3812                           
  3813                           	psect	text11
  3814  074A                     __ptext11:	
  3815 ;; *************** function ___flge *****************
  3816 ;; Defined at:
  3817 ;;		line 4 in file "D:\Program Files\Microchip\xc8\v2.31\pic\sources\c90\common\flge.c"
  3818 ;; Parameters:    Size  Location     Type
  3819 ;;  ff1             4    3[COMMON] unsigned char 
  3820 ;;  ff2             4    7[COMMON] unsigned char 
  3821 ;; Auto vars:     Size  Location     Type
  3822 ;;		None
  3823 ;; Return value:  Size  Location     Type
  3824 ;;		None               void
  3825 ;; Registers used:
  3826 ;;		wreg, status,2, status,0
  3827 ;; Tracked objects:
  3828 ;;		On entry : 0/0
  3829 ;;		On exit  : 0/0
  3830 ;;		Unchanged: 0/0
  3831 ;; Data sizes:     COMMON   BANK0   BANK1   BANK3   BANK2
  3832 ;;      Params:         8       0       0       0       0
  3833 ;;      Locals:         0       0       0       0       0
  3834 ;;      Temps:          0       4       0       0       0
  3835 ;;      Totals:         8       4       0       0       0
  3836 ;;Total ram usage:       12 bytes
  3837 ;; Hardware stack levels used:    1
  3838 ;; Hardware stack levels required when called:    1
  3839 ;; This function calls:
  3840 ;;		Nothing
  3841 ;; This function is called by:
  3842 ;;		_ftoa
  3843 ;; This function uses a non-reentrant model
  3844 ;;
  3845                           
  3846                           
  3847                           ;psect for function ___flge
  3848  074A                     ___flge:
  3849  074A                     l2024:	
  3850                           ;incstack = 0
  3851                           ; Regs used in ___flge: [wreg+status,2+status,0]
  3852                           
  3853  074A  3000               	movlw	0
  3854  074B  0573               	andwf	___flge@ff1,w
  3855  074C  1283               	bcf	3,5	;RP0=0, select bank0
  3856  074D  1303               	bcf	3,6	;RP1=0, select bank0
  3857  074E  00A0               	movwf	??___flge
  3858  074F  3000               	movlw	0
  3859  0750  0574               	andwf	___flge@ff1+1,w
  3860  0751  00A1               	movwf	??___flge+1
  3861  0752  3080               	movlw	128
  3862  0753  0575               	andwf	___flge@ff1+2,w
  3863  0754  00A2               	movwf	??___flge+2
  3864  0755  307F               	movlw	127
  3865  0756  0576               	andwf	___flge@ff1+3,w
  3866  0757  00A3               	movwf	??___flge+3
  3867  0758  0823               	movf	??___flge+3,w
  3868  0759  0422               	iorwf	??___flge+2,w
  3869  075A  0421               	iorwf	??___flge+1,w
  3870  075B  0420               	iorwf	??___flge,w
  3871  075C  1D03               	skipz
  3872  075D  2F5F               	goto	u2481
  3873  075E  2F60               	goto	u2480
  3874  075F                     u2481:
  3875  075F  2F68               	goto	l419
  3876  0760                     u2480:
  3877  0760                     l2026:
  3878  0760  3000               	movlw	0
  3879  0761  00F6               	movwf	___flge@ff1+3
  3880  0762  3000               	movlw	0
  3881  0763  00F5               	movwf	___flge@ff1+2
  3882  0764  3000               	movlw	0
  3883  0765  00F4               	movwf	___flge@ff1+1
  3884  0766  3000               	movlw	0
  3885  0767  00F3               	movwf	___flge@ff1
  3886  0768                     l419:
  3887  0768  3000               	movlw	0
  3888  0769  0577               	andwf	___flge@ff2,w
  3889  076A  00A0               	movwf	??___flge
  3890  076B  3000               	movlw	0
  3891  076C  0578               	andwf	___flge@ff2+1,w
  3892  076D  00A1               	movwf	??___flge+1
  3893  076E  3080               	movlw	128
  3894  076F  0579               	andwf	___flge@ff2+2,w
  3895  0770  00A2               	movwf	??___flge+2
  3896  0771  307F               	movlw	127
  3897  0772  057A               	andwf	___flge@ff2+3,w
  3898  0773  00A3               	movwf	??___flge+3
  3899  0774  0823               	movf	??___flge+3,w
  3900  0775  0422               	iorwf	??___flge+2,w
  3901  0776  0421               	iorwf	??___flge+1,w
  3902  0777  0420               	iorwf	??___flge,w
  3903  0778  1D03               	skipz
  3904  0779  2F7B               	goto	u2491
  3905  077A  2F7C               	goto	u2490
  3906  077B                     u2491:
  3907  077B  2F84               	goto	l2030
  3908  077C                     u2490:
  3909  077C                     l2028:
  3910  077C  3000               	movlw	0
  3911  077D  00FA               	movwf	___flge@ff2+3
  3912  077E  3000               	movlw	0
  3913  077F  00F9               	movwf	___flge@ff2+2
  3914  0780  3000               	movlw	0
  3915  0781  00F8               	movwf	___flge@ff2+1
  3916  0782  3000               	movlw	0
  3917  0783  00F7               	movwf	___flge@ff2
  3918  0784                     l2030:
  3919  0784  1FF6               	btfss	___flge@ff1+3,7
  3920  0785  2F87               	goto	u2501
  3921  0786  2F88               	goto	u2500
  3922  0787                     u2501:
  3923  0787  2FAC               	goto	l2034
  3924  0788                     u2500:
  3925  0788                     l2032:
  3926  0788  3000               	movlw	0
  3927  0789  00A0               	movwf	??___flge
  3928  078A  3000               	movlw	0
  3929  078B  00A1               	movwf	??___flge+1
  3930  078C  3000               	movlw	0
  3931  078D  00A2               	movwf	??___flge+2
  3932  078E  3080               	movlw	128
  3933  078F  00A3               	movwf	??___flge+3
  3934  0790  0873               	movf	___flge@ff1,w
  3935  0791  02A0               	subwf	??___flge,f
  3936  0792  0874               	movf	___flge@ff1+1,w
  3937  0793  1C03               	skipc
  3938  0794  0F74               	incfsz	___flge@ff1+1,w
  3939  0795  2F97               	goto	u2511
  3940  0796  2F98               	goto	u2512
  3941  0797                     u2511:
  3942  0797  02A1               	subwf	??___flge+1,f
  3943  0798                     u2512:
  3944  0798  0875               	movf	___flge@ff1+2,w
  3945  0799  1C03               	skipc
  3946  079A  0F75               	incfsz	___flge@ff1+2,w
  3947  079B  2F9D               	goto	u2513
  3948  079C  2F9E               	goto	u2514
  3949  079D                     u2513:
  3950  079D  02A2               	subwf	??___flge+2,f
  3951  079E                     u2514:
  3952  079E  0876               	movf	___flge@ff1+3,w
  3953  079F  1C03               	skipc
  3954  07A0  0F76               	incfsz	___flge@ff1+3,w
  3955  07A1  2FA3               	goto	u2515
  3956  07A2  2FA4               	goto	u2516
  3957  07A3                     u2515:
  3958  07A3  02A3               	subwf	??___flge+3,f
  3959  07A4                     u2516:
  3960  07A4  0823               	movf	??___flge+3,w
  3961  07A5  00F6               	movwf	___flge@ff1+3
  3962  07A6  0822               	movf	??___flge+2,w
  3963  07A7  00F5               	movwf	___flge@ff1+2
  3964  07A8  0821               	movf	??___flge+1,w
  3965  07A9  00F4               	movwf	___flge@ff1+1
  3966  07AA  0820               	movf	??___flge,w
  3967  07AB  00F3               	movwf	___flge@ff1
  3968  07AC                     l2034:
  3969  07AC  1FFA               	btfss	___flge@ff2+3,7
  3970  07AD  2FAF               	goto	u2521
  3971  07AE  2FB0               	goto	u2520
  3972  07AF                     u2521:
  3973  07AF  2FD4               	goto	l422
  3974  07B0                     u2520:
  3975  07B0                     l2036:
  3976  07B0  3000               	movlw	0
  3977  07B1  00A0               	movwf	??___flge
  3978  07B2  3000               	movlw	0
  3979  07B3  00A1               	movwf	??___flge+1
  3980  07B4  3000               	movlw	0
  3981  07B5  00A2               	movwf	??___flge+2
  3982  07B6  3080               	movlw	128
  3983  07B7  00A3               	movwf	??___flge+3
  3984  07B8  0877               	movf	___flge@ff2,w
  3985  07B9  02A0               	subwf	??___flge,f
  3986  07BA  0878               	movf	___flge@ff2+1,w
  3987  07BB  1C03               	skipc
  3988  07BC  0F78               	incfsz	___flge@ff2+1,w
  3989  07BD  2FBF               	goto	u2531
  3990  07BE  2FC0               	goto	u2532
  3991  07BF                     u2531:
  3992  07BF  02A1               	subwf	??___flge+1,f
  3993  07C0                     u2532:
  3994  07C0  0879               	movf	___flge@ff2+2,w
  3995  07C1  1C03               	skipc
  3996  07C2  0F79               	incfsz	___flge@ff2+2,w
  3997  07C3  2FC5               	goto	u2533
  3998  07C4  2FC6               	goto	u2534
  3999  07C5                     u2533:
  4000  07C5  02A2               	subwf	??___flge+2,f
  4001  07C6                     u2534:
  4002  07C6  087A               	movf	___flge@ff2+3,w
  4003  07C7  1C03               	skipc
  4004  07C8  0F7A               	incfsz	___flge@ff2+3,w
  4005  07C9  2FCB               	goto	u2535
  4006  07CA  2FCC               	goto	u2536
  4007  07CB                     u2535:
  4008  07CB  02A3               	subwf	??___flge+3,f
  4009  07CC                     u2536:
  4010  07CC  0823               	movf	??___flge+3,w
  4011  07CD  00FA               	movwf	___flge@ff2+3
  4012  07CE  0822               	movf	??___flge+2,w
  4013  07CF  00F9               	movwf	___flge@ff2+2
  4014  07D0  0821               	movf	??___flge+1,w
  4015  07D1  00F8               	movwf	___flge@ff2+1
  4016  07D2  0820               	movf	??___flge,w
  4017  07D3  00F7               	movwf	___flge@ff2
  4018  07D4                     l422:
  4019  07D4  3080               	movlw	128
  4020  07D5  06F6               	xorwf	___flge@ff1+3,f
  4021  07D6  3080               	movlw	128
  4022  07D7  06FA               	xorwf	___flge@ff2+3,f
  4023  07D8  087A               	movf	___flge@ff2+3,w
  4024  07D9  0276               	subwf	___flge@ff1+3,w
  4025  07DA  1D03               	skipz
  4026  07DB  2FE6               	goto	u2545
  4027  07DC  0879               	movf	___flge@ff2+2,w
  4028  07DD  0275               	subwf	___flge@ff1+2,w
  4029  07DE  1D03               	skipz
  4030  07DF  2FE6               	goto	u2545
  4031  07E0  0878               	movf	___flge@ff2+1,w
  4032  07E1  0274               	subwf	___flge@ff1+1,w
  4033  07E2  1D03               	skipz
  4034  07E3  2FE6               	goto	u2545
  4035  07E4  0877               	movf	___flge@ff2,w
  4036  07E5  0273               	subwf	___flge@ff1,w
  4037  07E6                     u2545:
  4038  07E6  1803               	skipnc
  4039  07E7  2FE9               	goto	u2541
  4040  07E8  2FEA               	goto	u2540
  4041  07E9                     u2541:
  4042  07E9  2FEC               	goto	l2040
  4043  07EA                     u2540:
  4044  07EA                     l2038:
  4045  07EA  1003               	clrc
  4046  07EB  2FED               	goto	l423
  4047  07EC                     l2040:
  4048  07EC  1403               	setc
  4049  07ED                     l423:
  4050  07ED  0008               	return
  4051  07EE                     __end_of___flge:
  4052                           
  4053                           	psect	text12
  4054  08F3                     __ptext12:	
  4055 ;; *************** function _UARTSendString *****************
  4056 ;; Defined at:
  4057 ;;		line 115 in file "newmain.c"
  4058 ;; Parameters:    Size  Location     Type
  4059 ;;  str             1    wreg     PTR const unsigned char 
  4060 ;;		 -> ftoa@buf(17), 
  4061 ;;  max_length      1    4[COMMON] const unsigned char 
  4062 ;; Auto vars:     Size  Location     Type
  4063 ;;  str             1    6[COMMON] PTR const unsigned char 
  4064 ;;		 -> ftoa@buf(17), 
  4065 ;;  i               2    7[COMMON] int 
  4066 ;; Return value:  Size  Location     Type
  4067 ;;                  1    wreg      void 
  4068 ;; Registers used:
  4069 ;;		wreg, fsr0l, fsr0h, status,2, status,0, pclath, cstack
  4070 ;; Tracked objects:
  4071 ;;		On entry : 0/0
  4072 ;;		On exit  : 0/0
  4073 ;;		Unchanged: 0/0
  4074 ;; Data sizes:     COMMON   BANK0   BANK1   BANK3   BANK2
  4075 ;;      Params:         1       0       0       0       0
  4076 ;;      Locals:         3       0       0       0       0
  4077 ;;      Temps:          1       0       0       0       0
  4078 ;;      Totals:         5       0       0       0       0
  4079 ;;Total ram usage:        5 bytes
  4080 ;; Hardware stack levels used:    1
  4081 ;; Hardware stack levels required when called:    2
  4082 ;; This function calls:
  4083 ;;		_UARTSendChar
  4084 ;; This function is called by:
  4085 ;;		_main
  4086 ;; This function uses a non-reentrant model
  4087 ;;
  4088                           
  4089                           
  4090                           ;psect for function _UARTSendString
  4091  08F3                     _UARTSendString:
  4092                           
  4093                           ;incstack = 0
  4094                           ; Regs used in _UARTSendString: [wreg-fsr0h+status,2+status,0+pclath+cstack]
  4095                           ;UARTSendString@str stored from wreg
  4096  08F3  00F6               	movwf	UARTSendString@str
  4097  08F4                     l2482:
  4098                           
  4099                           ;newmain.c: 116:     int i = 0;
  4100  08F4  01F7               	clrf	UARTSendString@i
  4101  08F5  01F8               	clrf	UARTSendString@i+1
  4102                           
  4103                           ;newmain.c: 117:     for (i=0 ; i<max_length && str[i]!='\0' ; i++) {
  4104  08F6  01F7               	clrf	UARTSendString@i
  4105  08F7  01F8               	clrf	UARTSendString@i+1
  4106  08F8  290A               	goto	l2488
  4107  08F9                     l2484:
  4108                           
  4109                           ;newmain.c: 118:         UARTSendChar(str[i]);
  4110  08F9  0877               	movf	UARTSendString@i,w
  4111  08FA  0776               	addwf	UARTSendString@str,w
  4112  08FB  00F5               	movwf	??_UARTSendString
  4113  08FC  0875               	movf	??_UARTSendString,w
  4114  08FD  0084               	movwf	4
  4115  08FE  0800               	movf	0,w
  4116  08FF  160A  118A  27E7  120A  158A  	fcall	_UARTSendChar
  4117  0904                     l2486:
  4118                           
  4119                           ;newmain.c: 119:     }
  4120  0904  3001               	movlw	1
  4121  0905  07F7               	addwf	UARTSendString@i,f
  4122  0906  1803               	skipnc
  4123  0907  0AF8               	incf	UARTSendString@i+1,f
  4124  0908  3000               	movlw	0
  4125  0909  07F8               	addwf	UARTSendString@i+1,f
  4126  090A                     l2488:
  4127  090A  0878               	movf	UARTSendString@i+1,w
  4128  090B  3A80               	xorlw	128
  4129  090C  00F5               	movwf	??_UARTSendString
  4130  090D  3080               	movlw	128
  4131  090E  0275               	subwf	??_UARTSendString,w
  4132  090F  1D03               	skipz
  4133  0910  2913               	goto	u3405
  4134  0911  0874               	movf	UARTSendString@max_length,w
  4135  0912  0277               	subwf	UARTSendString@i,w
  4136  0913                     u3405:
  4137  0913  1803               	skipnc
  4138  0914  2916               	goto	u3401
  4139  0915  2917               	goto	u3400
  4140  0916                     u3401:
  4141  0916  2922               	goto	l159
  4142  0917                     u3400:
  4143  0917                     l2490:
  4144  0917  0877               	movf	UARTSendString@i,w
  4145  0918  0776               	addwf	UARTSendString@str,w
  4146  0919  00F5               	movwf	??_UARTSendString
  4147  091A  0875               	movf	??_UARTSendString,w
  4148  091B  0084               	movwf	4
  4149  091C  1383               	bcf	3,7	;select IRP bank0
  4150  091D  0800               	movf	0,w
  4151  091E  1D03               	btfss	3,2
  4152  091F  2921               	goto	u3411
  4153  0920  2922               	goto	u3410
  4154  0921                     u3411:
  4155  0921  28F9               	goto	l2484
  4156  0922                     u3410:
  4157  0922                     l159:
  4158  0922  0008               	return
  4159  0923                     __end_of_UARTSendString:
  4160                           
  4161                           	psect	text13
  4162  17E7                     __ptext13:	
  4163 ;; *************** function _UARTSendChar *****************
  4164 ;; Defined at:
  4165 ;;		line 105 in file "newmain.c"
  4166 ;; Parameters:    Size  Location     Type
  4167 ;;  c               1    wreg     const unsigned char 
  4168 ;; Auto vars:     Size  Location     Type
  4169 ;;  c               1    3[COMMON] const unsigned char 
  4170 ;; Return value:  Size  Location     Type
  4171 ;;                  1    wreg      void 
  4172 ;; Registers used:
  4173 ;;		wreg
  4174 ;; Tracked objects:
  4175 ;;		On entry : 0/0
  4176 ;;		On exit  : 0/0
  4177 ;;		Unchanged: 0/0
  4178 ;; Data sizes:     COMMON   BANK0   BANK1   BANK3   BANK2
  4179 ;;      Params:         0       0       0       0       0
  4180 ;;      Locals:         1       0       0       0       0
  4181 ;;      Temps:          0       0       0       0       0
  4182 ;;      Totals:         1       0       0       0       0
  4183 ;;Total ram usage:        1 bytes
  4184 ;; Hardware stack levels used:    1
  4185 ;; Hardware stack levels required when called:    1
  4186 ;; This function calls:
  4187 ;;		Nothing
  4188 ;; This function is called by:
  4189 ;;		_main
  4190 ;;		_UARTSendString
  4191 ;; This function uses a non-reentrant model
  4192 ;;
  4193                           
  4194                           
  4195                           ;psect for function _UARTSendChar
  4196  17E7                     _UARTSendChar:
  4197                           
  4198                           ;incstack = 0
  4199                           ; Regs used in _UARTSendChar: [wreg]
  4200                           ;UARTSendChar@c stored from wreg
  4201  17E7  00F3               	movwf	UARTSendChar@c
  4202  17E8                     l2020:
  4203  17E8                     l148:	
  4204                           ;newmain.c: 106:     while (TXSTAbits.TRMT == 0);
  4205                           
  4206  17E8  1683               	bsf	3,5	;RP0=1, select bank1
  4207  17E9  1303               	bcf	3,6	;RP1=0, select bank1
  4208  17EA  1C98               	btfss	24,1	;volatile
  4209  17EB  2FED               	goto	u2471
  4210  17EC  2FEE               	goto	u2470
  4211  17ED                     u2471:
  4212  17ED  2FE8               	goto	l148
  4213  17EE                     u2470:
  4214  17EE                     l2022:
  4215                           
  4216                           ;newmain.c: 107:     TXREG = c;
  4217  17EE  0873               	movf	UARTSendChar@c,w
  4218  17EF  1283               	bcf	3,5	;RP0=0, select bank0
  4219  17F0  1303               	bcf	3,6	;RP1=0, select bank0
  4220  17F1  0099               	movwf	25	;volatile
  4221  17F2                     l151:
  4222  17F2  0008               	return
  4223  17F3                     __end_of_UARTSendChar:
  4224                           
  4225                           	psect	text14
  4226  060D                     __ptext14:	
  4227 ;; *************** function _I2C_WWW *****************
  4228 ;; Defined at:
  4229 ;;		line 73 in file "./I2Clib.h"
  4230 ;; Parameters:    Size  Location     Type
  4231 ;;  dato            1    wreg     PTR float 
  4232 ;;		 -> I2gato(12), 
  4233 ;; Auto vars:     Size  Location     Type
  4234 ;;  dato            1   50[BANK0 ] PTR float 
  4235 ;;		 -> I2gato(12), 
  4236 ;;  i               2   51[BANK0 ] int 
  4237 ;;  i               2   48[BANK0 ] int 
  4238 ;;  d               6   36[BANK0 ] unsigned char [6]
  4239 ;;  e               6   42[BANK0 ] int [3]
  4240 ;; Return value:  Size  Location     Type
  4241 ;;                  1    wreg      void 
  4242 ;; Registers used:
  4243 ;;		wreg, fsr0l, fsr0h, status,2, status,0, btemp+1, pclath, cstack
  4244 ;; Tracked objects:
  4245 ;;		On entry : 0/0
  4246 ;;		On exit  : 0/0
  4247 ;;		Unchanged: 0/0
  4248 ;; Data sizes:     COMMON   BANK0   BANK1   BANK3   BANK2
  4249 ;;      Params:         0       0       0       0       0
  4250 ;;      Locals:         0      17       0       0       0
  4251 ;;      Temps:          0       4       0       0       0
  4252 ;;      Totals:         0      21       0       0       0
  4253 ;;Total ram usage:       21 bytes
  4254 ;; Hardware stack levels used:    1
  4255 ;; Hardware stack levels required when called:    3
  4256 ;; This function calls:
  4257 ;;		_I2C_Master_Read
  4258 ;;		_I2C_Master_RepeatedStart
  4259 ;;		_I2C_Master_Start
  4260 ;;		_I2C_Master_Stop
  4261 ;;		_I2C_Master_Write
  4262 ;;		___flmul
  4263 ;;		___xxtofl
  4264 ;; This function is called by:
  4265 ;;		_main
  4266 ;; This function uses a non-reentrant model
  4267 ;;
  4268                           
  4269                           
  4270                           ;psect for function _I2C_WWW
  4271  060D                     _I2C_WWW:
  4272                           
  4273                           ;incstack = 0
  4274                           ; Regs used in _I2C_WWW: [wreg-fsr0h+status,2+status,0+btemp+1+pclath+cstack]
  4275                           ;I2C_WWW@dato stored from wreg
  4276  060D  1283               	bcf	3,5	;RP0=0, select bank0
  4277  060E  1303               	bcf	3,6	;RP1=0, select bank0
  4278  060F  00D2               	movwf	I2C_WWW@dato
  4279  0610                     l2400:
  4280                           
  4281                           ;./I2Clib.h: 74:     char d[6];;./I2Clib.h: 75:     I2C_Master_Start();
  4282  0610  160A  118A  27C1  120A  118A  	fcall	_I2C_Master_Start
  4283                           
  4284                           ;./I2Clib.h: 76:     I2C_Master_Write(0xD0);
  4285  0615  30D0               	movlw	208
  4286  0616  00F3               	movwf	I2C_Master_Write@d
  4287  0617  3000               	movlw	0
  4288  0618  00F4               	movwf	I2C_Master_Write@d+1
  4289  0619  120A  158A  203E  120A  118A  	fcall	_I2C_Master_Write
  4290                           
  4291                           ;./I2Clib.h: 77:     I2C_Master_Write(0x3B);
  4292  061E  303B               	movlw	59
  4293  061F  00F3               	movwf	I2C_Master_Write@d
  4294  0620  3000               	movlw	0
  4295  0621  00F4               	movwf	I2C_Master_Write@d+1
  4296  0622  120A  158A  203E  120A  118A  	fcall	_I2C_Master_Write
  4297                           
  4298                           ;./I2Clib.h: 78:     I2C_Master_RepeatedStart();
  4299  0627  160A  118A  27D3  120A  118A  	fcall	_I2C_Master_RepeatedStart
  4300                           
  4301                           ;./I2Clib.h: 79:     I2C_Master_Write(0xD1);
  4302  062C  30D1               	movlw	209
  4303  062D  00F3               	movwf	I2C_Master_Write@d
  4304  062E  3000               	movlw	0
  4305  062F  00F4               	movwf	I2C_Master_Write@d+1
  4306  0630  120A  158A  203E  120A  118A  	fcall	_I2C_Master_Write
  4307  0635                     l2402:
  4308                           
  4309                           ;./I2Clib.h: 80:     for(int i = 0;i<5;i++)d[i]=I2C_Master_Read(0);
  4310  0635  1283               	bcf	3,5	;RP0=0, select bank0
  4311  0636  1303               	bcf	3,6	;RP1=0, select bank0
  4312  0637  01D0               	clrf	I2C_WWW@i
  4313  0638  01D1               	clrf	I2C_WWW@i+1
  4314  0639                     l2408:
  4315  0639  3000               	movlw	0
  4316  063A  00F3               	movwf	I2C_Master_Read@a
  4317  063B  00F4               	movwf	I2C_Master_Read@a+1
  4318  063C  120A  158A  2123  120A  118A  	fcall	_I2C_Master_Read
  4319  0641  0873               	movf	?_I2C_Master_Read,w
  4320  0642  1283               	bcf	3,5	;RP0=0, select bank0
  4321  0643  1303               	bcf	3,6	;RP1=0, select bank0
  4322  0644  00C0               	movwf	??_I2C_WWW
  4323  0645  0850               	movf	I2C_WWW@i,w
  4324  0646  3E44               	addlw	(low (I2C_WWW@d| 0))& (0+255)
  4325  0647  0084               	movwf	4
  4326  0648  0840               	movf	??_I2C_WWW,w
  4327  0649  1383               	bcf	3,7	;select IRP bank0
  4328  064A  0080               	movwf	0
  4329  064B                     l2410:
  4330  064B  3001               	movlw	1
  4331  064C  07D0               	addwf	I2C_WWW@i,f
  4332  064D  1803               	skipnc
  4333  064E  0AD1               	incf	I2C_WWW@i+1,f
  4334  064F  3000               	movlw	0
  4335  0650  07D1               	addwf	I2C_WWW@i+1,f
  4336  0651                     l2412:
  4337  0651  0851               	movf	I2C_WWW@i+1,w
  4338  0652  3A80               	xorlw	128
  4339  0653  00FF               	movwf	btemp+1
  4340  0654  3080               	movlw	128
  4341  0655  027F               	subwf	btemp+1,w
  4342  0656  1D03               	skipz
  4343  0657  2E5A               	goto	u3375
  4344  0658  3005               	movlw	5
  4345  0659  0250               	subwf	I2C_WWW@i,w
  4346  065A                     u3375:
  4347  065A  1C03               	skipc
  4348  065B  2E5D               	goto	u3371
  4349  065C  2E5E               	goto	u3370
  4350  065D                     u3371:
  4351  065D  2E39               	goto	l2408
  4352  065E                     u3370:
  4353  065E                     l2414:
  4354                           
  4355                           ;./I2Clib.h: 81:     d[5]=I2C_Master_Read(1);
  4356  065E  3001               	movlw	1
  4357  065F  00F3               	movwf	I2C_Master_Read@a
  4358  0660  3000               	movlw	0
  4359  0661  00F4               	movwf	I2C_Master_Read@a+1
  4360  0662  120A  158A  2123  120A  118A  	fcall	_I2C_Master_Read
  4361  0667  0873               	movf	?_I2C_Master_Read,w
  4362  0668  1283               	bcf	3,5	;RP0=0, select bank0
  4363  0669  1303               	bcf	3,6	;RP1=0, select bank0
  4364  066A  00C0               	movwf	??_I2C_WWW
  4365  066B  0840               	movf	??_I2C_WWW,w
  4366  066C  00C9               	movwf	I2C_WWW@d+5
  4367                           
  4368                           ;./I2Clib.h: 82:     I2C_Master_Stop();
  4369  066D  160A  118A  27CA  120A  118A  	fcall	_I2C_Master_Stop
  4370  0672                     l2416:
  4371                           
  4372                           ;./I2Clib.h: 83:     int e[3];;./I2Clib.h: 84:     for(int i = 0; i<3 ; i++) e[i]=((int)
      +                           d[2*i]<<8)|((int)d[2*i+1]);
  4373  0672  1283               	bcf	3,5	;RP0=0, select bank0
  4374  0673  1303               	bcf	3,6	;RP1=0, select bank0
  4375  0674  01D3               	clrf	I2C_WWW@i_187
  4376  0675  01D4               	clrf	I2C_WWW@i_187+1
  4377  0676                     l2422:
  4378  0676  1403               	setc
  4379  0677  1283               	bcf	3,5	;RP0=0, select bank0
  4380  0678  1303               	bcf	3,6	;RP1=0, select bank0
  4381  0679  0D53               	rlf	I2C_WWW@i_187,w
  4382  067A  3E44               	addlw	(low (I2C_WWW@d| 0))& (0+255)
  4383  067B  0084               	movwf	4
  4384  067C  1383               	bcf	3,7	;select IRP bank0
  4385  067D  0800               	movf	0,w
  4386  067E  00C0               	movwf	??_I2C_WWW
  4387  067F  0853               	movf	I2C_WWW@i_187,w
  4388  0680  00C1               	movwf	??_I2C_WWW+1
  4389  0681  0741               	addwf	??_I2C_WWW+1,w
  4390  0682  3E44               	addlw	(low (I2C_WWW@d| 0))& (0+255)
  4391  0683  0084               	movwf	4
  4392  0684  0800               	movf	0,w
  4393  0685  00C2               	movwf	??_I2C_WWW+2
  4394  0686  0853               	movf	I2C_WWW@i_187,w
  4395  0687  00C3               	movwf	??_I2C_WWW+3
  4396  0688  0743               	addwf	??_I2C_WWW+3,w
  4397  0689  3E4A               	addlw	(low (I2C_WWW@e| 0))& (0+255)
  4398  068A  0084               	movwf	4
  4399  068B  0840               	movf	??_I2C_WWW,w
  4400  068C  0080               	movwf	0
  4401  068D  0A84               	incf	4,f
  4402  068E  0842               	movf	??_I2C_WWW+2,w
  4403  068F  0080               	movwf	0
  4404  0690                     l2424:
  4405  0690  3001               	movlw	1
  4406  0691  07D3               	addwf	I2C_WWW@i_187,f
  4407  0692  1803               	skipnc
  4408  0693  0AD4               	incf	I2C_WWW@i_187+1,f
  4409  0694  3000               	movlw	0
  4410  0695  07D4               	addwf	I2C_WWW@i_187+1,f
  4411  0696                     l2426:
  4412  0696  0854               	movf	I2C_WWW@i_187+1,w
  4413  0697  3A80               	xorlw	128
  4414  0698  00FF               	movwf	btemp+1
  4415  0699  3080               	movlw	128
  4416  069A  027F               	subwf	btemp+1,w
  4417  069B  1D03               	skipz
  4418  069C  2E9F               	goto	u3385
  4419  069D  3003               	movlw	3
  4420  069E  0253               	subwf	I2C_WWW@i_187,w
  4421  069F                     u3385:
  4422  069F  1C03               	skipc
  4423  06A0  2EA2               	goto	u3381
  4424  06A1  2EA3               	goto	u3380
  4425  06A2                     u3381:
  4426  06A2  2E76               	goto	l2422
  4427  06A3                     u3380:
  4428  06A3                     l2428:
  4429                           
  4430                           ;./I2Clib.h: 85:     dato[0] = ((float)e[0])*0.000598;
  4431  06A3  303A               	movlw	58
  4432  06A4  1283               	bcf	3,5	;RP0=0, select bank0
  4433  06A5  1303               	bcf	3,6	;RP1=0, select bank0
  4434  06A6  00A9               	movwf	___flmul@b+3
  4435  06A7  301C               	movlw	28
  4436  06A8  00A8               	movwf	___flmul@b+2
  4437  06A9  30C3               	movlw	195
  4438  06AA  00A7               	movwf	___flmul@b+1
  4439  06AB  301A               	movlw	26
  4440  06AC  00A6               	movwf	___flmul@b
  4441  06AD  084A               	movf	I2C_WWW@e,w
  4442  06AE  00F3               	movwf	___xxtofl@val
  4443  06AF  084B               	movf	I2C_WWW@e+1,w
  4444  06B0  00F4               	movwf	___xxtofl@val+1
  4445  06B1  3000               	movlw	0
  4446  06B2  1BF4               	btfsc	___xxtofl@val+1,7
  4447  06B3  30FF               	movlw	255
  4448  06B4  00F5               	movwf	___xxtofl@val+2
  4449  06B5  00F6               	movwf	___xxtofl@val+3
  4450  06B6  3001               	movlw	1
  4451  06B7  120A  158A  232A  120A  118A  	fcall	___xxtofl
  4452  06BC  0876               	movf	?___xxtofl+3,w
  4453  06BD  1283               	bcf	3,5	;RP0=0, select bank0
  4454  06BE  1303               	bcf	3,6	;RP1=0, select bank0
  4455  06BF  00AD               	movwf	___flmul@a+3
  4456  06C0  0875               	movf	?___xxtofl+2,w
  4457  06C1  00AC               	movwf	___flmul@a+2
  4458  06C2  0874               	movf	?___xxtofl+1,w
  4459  06C3  00AB               	movwf	___flmul@a+1
  4460  06C4  0873               	movf	?___xxtofl,w
  4461  06C5  00AA               	movwf	___flmul@a
  4462  06C6  120A  118A  2024  120A  118A  	fcall	___flmul
  4463  06CB  1283               	bcf	3,5	;RP0=0, select bank0
  4464  06CC  1303               	bcf	3,6	;RP1=0, select bank0
  4465  06CD  0852               	movf	I2C_WWW@dato,w
  4466  06CE  0084               	movwf	4
  4467  06CF  0826               	movf	?___flmul,w
  4468  06D0  1383               	bcf	3,7	;select IRP bank0
  4469  06D1  0080               	movwf	0
  4470  06D2  0A84               	incf	4,f
  4471  06D3  0827               	movf	?___flmul+1,w
  4472  06D4  0080               	movwf	0
  4473  06D5  0A84               	incf	4,f
  4474  06D6  0828               	movf	?___flmul+2,w
  4475  06D7  0080               	movwf	0
  4476  06D8  0A84               	incf	4,f
  4477  06D9  0829               	movf	?___flmul+3,w
  4478  06DA  0080               	movwf	0
  4479                           
  4480                           ;./I2Clib.h: 86:     dato[1] = ((float)e[1])*0.000598;
  4481  06DB  303A               	movlw	58
  4482  06DC  00A9               	movwf	___flmul@b+3
  4483  06DD  301C               	movlw	28
  4484  06DE  00A8               	movwf	___flmul@b+2
  4485  06DF  30C3               	movlw	195
  4486  06E0  00A7               	movwf	___flmul@b+1
  4487  06E1  301A               	movlw	26
  4488  06E2  00A6               	movwf	___flmul@b
  4489  06E3  084C               	movf	I2C_WWW@e+2,w
  4490  06E4  00F3               	movwf	___xxtofl@val
  4491  06E5  084D               	movf	I2C_WWW@e+3,w
  4492  06E6  00F4               	movwf	___xxtofl@val+1
  4493  06E7  3000               	movlw	0
  4494  06E8  1BF4               	btfsc	___xxtofl@val+1,7
  4495  06E9  30FF               	movlw	255
  4496  06EA  00F5               	movwf	___xxtofl@val+2
  4497  06EB  00F6               	movwf	___xxtofl@val+3
  4498  06EC  3001               	movlw	1
  4499  06ED  120A  158A  232A  120A  118A  	fcall	___xxtofl
  4500  06F2  0876               	movf	?___xxtofl+3,w
  4501  06F3  1283               	bcf	3,5	;RP0=0, select bank0
  4502  06F4  1303               	bcf	3,6	;RP1=0, select bank0
  4503  06F5  00AD               	movwf	___flmul@a+3
  4504  06F6  0875               	movf	?___xxtofl+2,w
  4505  06F7  00AC               	movwf	___flmul@a+2
  4506  06F8  0874               	movf	?___xxtofl+1,w
  4507  06F9  00AB               	movwf	___flmul@a+1
  4508  06FA  0873               	movf	?___xxtofl,w
  4509  06FB  00AA               	movwf	___flmul@a
  4510  06FC  120A  118A  2024  120A  118A  	fcall	___flmul
  4511  0701  1283               	bcf	3,5	;RP0=0, select bank0
  4512  0702  1303               	bcf	3,6	;RP1=0, select bank0
  4513  0703  0852               	movf	I2C_WWW@dato,w
  4514  0704  3E04               	addlw	4
  4515  0705  0084               	movwf	4
  4516  0706  0826               	movf	?___flmul,w
  4517  0707  1383               	bcf	3,7	;select IRP bank0
  4518  0708  0080               	movwf	0
  4519  0709  0A84               	incf	4,f
  4520  070A  0827               	movf	?___flmul+1,w
  4521  070B  0080               	movwf	0
  4522  070C  0A84               	incf	4,f
  4523  070D  0828               	movf	?___flmul+2,w
  4524  070E  0080               	movwf	0
  4525  070F  0A84               	incf	4,f
  4526  0710  0829               	movf	?___flmul+3,w
  4527  0711  0080               	movwf	0
  4528                           
  4529                           ;./I2Clib.h: 87:     dato[2] = ((float)e[2])*0.000598;
  4530  0712  303A               	movlw	58
  4531  0713  00A9               	movwf	___flmul@b+3
  4532  0714  301C               	movlw	28
  4533  0715  00A8               	movwf	___flmul@b+2
  4534  0716  30C3               	movlw	195
  4535  0717  00A7               	movwf	___flmul@b+1
  4536  0718  301A               	movlw	26
  4537  0719  00A6               	movwf	___flmul@b
  4538  071A  084E               	movf	I2C_WWW@e+4,w
  4539  071B  00F3               	movwf	___xxtofl@val
  4540  071C  084F               	movf	I2C_WWW@e+5,w
  4541  071D  00F4               	movwf	___xxtofl@val+1
  4542  071E  3000               	movlw	0
  4543  071F  1BF4               	btfsc	___xxtofl@val+1,7
  4544  0720  30FF               	movlw	255
  4545  0721  00F5               	movwf	___xxtofl@val+2
  4546  0722  00F6               	movwf	___xxtofl@val+3
  4547  0723  3001               	movlw	1
  4548  0724  120A  158A  232A  120A  118A  	fcall	___xxtofl
  4549  0729  0876               	movf	?___xxtofl+3,w
  4550  072A  1283               	bcf	3,5	;RP0=0, select bank0
  4551  072B  1303               	bcf	3,6	;RP1=0, select bank0
  4552  072C  00AD               	movwf	___flmul@a+3
  4553  072D  0875               	movf	?___xxtofl+2,w
  4554  072E  00AC               	movwf	___flmul@a+2
  4555  072F  0874               	movf	?___xxtofl+1,w
  4556  0730  00AB               	movwf	___flmul@a+1
  4557  0731  0873               	movf	?___xxtofl,w
  4558  0732  00AA               	movwf	___flmul@a
  4559  0733  120A  118A  2024  120A  118A  	fcall	___flmul
  4560  0738  1283               	bcf	3,5	;RP0=0, select bank0
  4561  0739  1303               	bcf	3,6	;RP1=0, select bank0
  4562  073A  0852               	movf	I2C_WWW@dato,w
  4563  073B  3E08               	addlw	8
  4564  073C  0084               	movwf	4
  4565  073D  0826               	movf	?___flmul,w
  4566  073E  1383               	bcf	3,7	;select IRP bank0
  4567  073F  0080               	movwf	0
  4568  0740  0A84               	incf	4,f
  4569  0741  0827               	movf	?___flmul+1,w
  4570  0742  0080               	movwf	0
  4571  0743  0A84               	incf	4,f
  4572  0744  0828               	movf	?___flmul+2,w
  4573  0745  0080               	movwf	0
  4574  0746  0A84               	incf	4,f
  4575  0747  0829               	movf	?___flmul+3,w
  4576  0748  0080               	movwf	0
  4577  0749                     l118:
  4578  0749  0008               	return
  4579  074A                     __end_of_I2C_WWW:
  4580                           
  4581                           	psect	text15
  4582  0B2A                     __ptext15:	
  4583 ;; *************** function ___xxtofl *****************
  4584 ;; Defined at:
  4585 ;;		line 10 in file "D:\Program Files\Microchip\xc8\v2.31\pic\sources\c90\common\xxtofl.c"
  4586 ;; Parameters:    Size  Location     Type
  4587 ;;  sign            1    wreg     unsigned char 
  4588 ;;  val             4    3[COMMON] long 
  4589 ;; Auto vars:     Size  Location     Type
  4590 ;;  sign            1    0[BANK0 ] unsigned char 
  4591 ;;  arg             4    2[BANK0 ] unsigned long 
  4592 ;;  exp             1    1[BANK0 ] unsigned char 
  4593 ;; Return value:  Size  Location     Type
  4594 ;;                  4    3[COMMON] unsigned char 
  4595 ;; Registers used:
  4596 ;;		wreg, status,2, status,0
  4597 ;; Tracked objects:
  4598 ;;		On entry : 0/0
  4599 ;;		On exit  : 0/0
  4600 ;;		Unchanged: 0/0
  4601 ;; Data sizes:     COMMON   BANK0   BANK1   BANK3   BANK2
  4602 ;;      Params:         4       0       0       0       0
  4603 ;;      Locals:         0       6       0       0       0
  4604 ;;      Temps:          4       0       0       0       0
  4605 ;;      Totals:         8       6       0       0       0
  4606 ;;Total ram usage:       14 bytes
  4607 ;; Hardware stack levels used:    1
  4608 ;; Hardware stack levels required when called:    1
  4609 ;; This function calls:
  4610 ;;		Nothing
  4611 ;; This function is called by:
  4612 ;;		_I2C_WWW
  4613 ;;		_ftoa
  4614 ;; This function uses a non-reentrant model
  4615 ;;
  4616                           
  4617                           
  4618                           ;psect for function ___xxtofl
  4619  0B2A                     ___xxtofl:
  4620                           
  4621                           ;incstack = 0
  4622                           ; Regs used in ___xxtofl: [wreg+status,2+status,0]
  4623                           ;___xxtofl@sign stored from wreg
  4624  0B2A  1283               	bcf	3,5	;RP0=0, select bank0
  4625  0B2B  1303               	bcf	3,6	;RP1=0, select bank0
  4626  0B2C  00A0               	movwf	___xxtofl@sign
  4627  0B2D                     l2234:
  4628  0B2D  0820               	movf	___xxtofl@sign,w
  4629  0B2E  1903               	btfsc	3,2
  4630  0B2F  2B31               	goto	u3031
  4631  0B30  2B32               	goto	u3030
  4632  0B31                     u3031:
  4633  0B31  2B46               	goto	l2240
  4634  0B32                     u3030:
  4635  0B32                     l2236:
  4636  0B32  1FF6               	btfss	___xxtofl@val+3,7
  4637  0B33  2B35               	goto	u3041
  4638  0B34  2B36               	goto	u3040
  4639  0B35                     u3041:
  4640  0B35  2B46               	goto	l2240
  4641  0B36                     u3040:
  4642  0B36                     l2238:
  4643  0B36  0973               	comf	___xxtofl@val,w
  4644  0B37  00A2               	movwf	___xxtofl@arg
  4645  0B38  0974               	comf	___xxtofl@val+1,w
  4646  0B39  00A3               	movwf	___xxtofl@arg+1
  4647  0B3A  0975               	comf	___xxtofl@val+2,w
  4648  0B3B  00A4               	movwf	___xxtofl@arg+2
  4649  0B3C  0976               	comf	___xxtofl@val+3,w
  4650  0B3D  00A5               	movwf	___xxtofl@arg+3
  4651  0B3E  0AA2               	incf	___xxtofl@arg,f
  4652  0B3F  1903               	skipnz
  4653  0B40  0AA3               	incf	___xxtofl@arg+1,f
  4654  0B41  1903               	skipnz
  4655  0B42  0AA4               	incf	___xxtofl@arg+2,f
  4656  0B43  1903               	skipnz
  4657  0B44  0AA5               	incf	___xxtofl@arg+3,f
  4658  0B45  2B4E               	goto	l678
  4659  0B46                     l2240:
  4660  0B46  0876               	movf	___xxtofl@val+3,w
  4661  0B47  00A5               	movwf	___xxtofl@arg+3
  4662  0B48  0875               	movf	___xxtofl@val+2,w
  4663  0B49  00A4               	movwf	___xxtofl@arg+2
  4664  0B4A  0874               	movf	___xxtofl@val+1,w
  4665  0B4B  00A3               	movwf	___xxtofl@arg+1
  4666  0B4C  0873               	movf	___xxtofl@val,w
  4667  0B4D  00A2               	movwf	___xxtofl@arg
  4668  0B4E                     l678:
  4669  0B4E  0876               	movf	___xxtofl@val+3,w
  4670  0B4F  0475               	iorwf	___xxtofl@val+2,w
  4671  0B50  0474               	iorwf	___xxtofl@val+1,w
  4672  0B51  0473               	iorwf	___xxtofl@val,w
  4673  0B52  1D03               	skipz
  4674  0B53  2B55               	goto	u3051
  4675  0B54  2B56               	goto	u3050
  4676  0B55                     u3051:
  4677  0B55  2B5F               	goto	l2246
  4678  0B56                     u3050:
  4679  0B56                     l2242:
  4680  0B56  3000               	movlw	0
  4681  0B57  00F6               	movwf	?___xxtofl+3
  4682  0B58  3000               	movlw	0
  4683  0B59  00F5               	movwf	?___xxtofl+2
  4684  0B5A  3000               	movlw	0
  4685  0B5B  00F4               	movwf	?___xxtofl+1
  4686  0B5C  3000               	movlw	0
  4687  0B5D  00F3               	movwf	?___xxtofl
  4688  0B5E  2BE5               	goto	l680
  4689  0B5F                     l2246:
  4690  0B5F  3096               	movlw	150
  4691  0B60  00F7               	movwf	??___xxtofl
  4692  0B61  0877               	movf	??___xxtofl,w
  4693  0B62  00A1               	movwf	___xxtofl@exp
  4694  0B63  2B71               	goto	l2250
  4695  0B64                     l2248:
  4696  0B64  3001               	movlw	1
  4697  0B65  00F7               	movwf	??___xxtofl
  4698  0B66  0877               	movf	??___xxtofl,w
  4699  0B67  07A1               	addwf	___xxtofl@exp,f
  4700  0B68  3001               	movlw	1
  4701  0B69                     u3065:
  4702  0B69  1003               	clrc
  4703  0B6A  0CA5               	rrf	___xxtofl@arg+3,f
  4704  0B6B  0CA4               	rrf	___xxtofl@arg+2,f
  4705  0B6C  0CA3               	rrf	___xxtofl@arg+1,f
  4706  0B6D  0CA2               	rrf	___xxtofl@arg,f
  4707  0B6E  3EFF               	addlw	-1
  4708  0B6F  1D03               	skipz
  4709  0B70  2B69               	goto	u3065
  4710  0B71                     l2250:
  4711  0B71  30FE               	movlw	254
  4712  0B72  0525               	andwf	___xxtofl@arg+3,w
  4713  0B73  1D03               	btfss	3,2
  4714  0B74  2B76               	goto	u3071
  4715  0B75  2B77               	goto	u3070
  4716  0B76                     u3071:
  4717  0B76  2B64               	goto	l2248
  4718  0B77                     u3070:
  4719  0B77  2B93               	goto	l684
  4720  0B78                     l2252:
  4721  0B78  3001               	movlw	1
  4722  0B79  00F7               	movwf	??___xxtofl
  4723  0B7A  0877               	movf	??___xxtofl,w
  4724  0B7B  07A1               	addwf	___xxtofl@exp,f
  4725  0B7C                     l2254:
  4726  0B7C  3001               	movlw	1
  4727  0B7D  07A2               	addwf	___xxtofl@arg,f
  4728  0B7E  3000               	movlw	0
  4729  0B7F  1803               	skipnc
  4730  0B80  3001               	movlw	1
  4731  0B81  07A3               	addwf	___xxtofl@arg+1,f
  4732  0B82  3000               	movlw	0
  4733  0B83  1803               	skipnc
  4734  0B84  3001               	movlw	1
  4735  0B85  07A4               	addwf	___xxtofl@arg+2,f
  4736  0B86  3000               	movlw	0
  4737  0B87  1803               	skipnc
  4738  0B88  3001               	movlw	1
  4739  0B89  07A5               	addwf	___xxtofl@arg+3,f
  4740  0B8A                     l2256:
  4741  0B8A  3001               	movlw	1
  4742  0B8B                     u3085:
  4743  0B8B  1003               	clrc
  4744  0B8C  0CA5               	rrf	___xxtofl@arg+3,f
  4745  0B8D  0CA4               	rrf	___xxtofl@arg+2,f
  4746  0B8E  0CA3               	rrf	___xxtofl@arg+1,f
  4747  0B8F  0CA2               	rrf	___xxtofl@arg,f
  4748  0B90  3EFF               	addlw	-1
  4749  0B91  1D03               	skipz
  4750  0B92  2B8B               	goto	u3085
  4751  0B93                     l684:
  4752  0B93  30FF               	movlw	255
  4753  0B94  0525               	andwf	___xxtofl@arg+3,w
  4754  0B95  1D03               	btfss	3,2
  4755  0B96  2B98               	goto	u3091
  4756  0B97  2B99               	goto	u3090
  4757  0B98                     u3091:
  4758  0B98  2B78               	goto	l2252
  4759  0B99                     u3090:
  4760  0B99  2BA5               	goto	l2260
  4761  0B9A                     l2258:
  4762  0B9A  3001               	movlw	1
  4763  0B9B  02A1               	subwf	___xxtofl@exp,f
  4764  0B9C  3001               	movlw	1
  4765  0B9D  00F7               	movwf	??___xxtofl
  4766  0B9E                     u3105:
  4767  0B9E  1003               	clrc
  4768  0B9F  0DA2               	rlf	___xxtofl@arg,f
  4769  0BA0  0DA3               	rlf	___xxtofl@arg+1,f
  4770  0BA1  0DA4               	rlf	___xxtofl@arg+2,f
  4771  0BA2  0DA5               	rlf	___xxtofl@arg+3,f
  4772  0BA3  0BF7               	decfsz	??___xxtofl,f
  4773  0BA4  2B9E               	goto	u3105
  4774  0BA5                     l2260:
  4775  0BA5  1BA4               	btfsc	___xxtofl@arg+2,7
  4776  0BA6  2BA8               	goto	u3111
  4777  0BA7  2BA9               	goto	u3110
  4778  0BA8                     u3111:
  4779  0BA8  2BAF               	goto	l691
  4780  0BA9                     u3110:
  4781  0BA9                     l2262:
  4782  0BA9  3002               	movlw	2
  4783  0BAA  0221               	subwf	___xxtofl@exp,w
  4784  0BAB  1803               	skipnc
  4785  0BAC  2BAE               	goto	u3121
  4786  0BAD  2BAF               	goto	u3120
  4787  0BAE                     u3121:
  4788  0BAE  2B9A               	goto	l2258
  4789  0BAF                     u3120:
  4790  0BAF                     l691:
  4791  0BAF  1821               	btfsc	___xxtofl@exp,0
  4792  0BB0  2BB2               	goto	u3131
  4793  0BB1  2BB3               	goto	u3130
  4794  0BB2                     u3131:
  4795  0BB2  2BBB               	goto	l692
  4796  0BB3                     u3130:
  4797  0BB3                     l2264:
  4798  0BB3  30FF               	movlw	255
  4799  0BB4  05A2               	andwf	___xxtofl@arg,f
  4800  0BB5  30FF               	movlw	255
  4801  0BB6  05A3               	andwf	___xxtofl@arg+1,f
  4802  0BB7  307F               	movlw	127
  4803  0BB8  05A4               	andwf	___xxtofl@arg+2,f
  4804  0BB9  30FF               	movlw	255
  4805  0BBA  05A5               	andwf	___xxtofl@arg+3,f
  4806  0BBB                     l692:
  4807  0BBB  1003               	clrc
  4808  0BBC  0CA1               	rrf	___xxtofl@exp,f
  4809  0BBD                     l2266:
  4810  0BBD  0821               	movf	___xxtofl@exp,w
  4811  0BBE  00F7               	movwf	??___xxtofl
  4812  0BBF  01F8               	clrf	??___xxtofl+1
  4813  0BC0  01F9               	clrf	??___xxtofl+2
  4814  0BC1  01FA               	clrf	??___xxtofl+3
  4815  0BC2  3018               	movlw	24
  4816  0BC3                     u3145:
  4817  0BC3  1003               	clrc
  4818  0BC4  0DF7               	rlf	??___xxtofl,f
  4819  0BC5  0DF8               	rlf	??___xxtofl+1,f
  4820  0BC6  0DF9               	rlf	??___xxtofl+2,f
  4821  0BC7  0DFA               	rlf	??___xxtofl+3,f
  4822  0BC8                     u3140:
  4823  0BC8  3EFF               	addlw	-1
  4824  0BC9  1D03               	skipz
  4825  0BCA  2BC3               	goto	u3145
  4826  0BCB  0877               	movf	??___xxtofl,w
  4827  0BCC  04A2               	iorwf	___xxtofl@arg,f
  4828  0BCD  0878               	movf	??___xxtofl+1,w
  4829  0BCE  04A3               	iorwf	___xxtofl@arg+1,f
  4830  0BCF  0879               	movf	??___xxtofl+2,w
  4831  0BD0  04A4               	iorwf	___xxtofl@arg+2,f
  4832  0BD1  087A               	movf	??___xxtofl+3,w
  4833  0BD2  04A5               	iorwf	___xxtofl@arg+3,f
  4834  0BD3                     l2268:
  4835  0BD3  0820               	movf	___xxtofl@sign,w
  4836  0BD4  1903               	btfsc	3,2
  4837  0BD5  2BD7               	goto	u3151
  4838  0BD6  2BD8               	goto	u3150
  4839  0BD7                     u3151:
  4840  0BD7  2BDD               	goto	l2274
  4841  0BD8                     u3150:
  4842  0BD8                     l2270:
  4843  0BD8  1FF6               	btfss	___xxtofl@val+3,7
  4844  0BD9  2BDB               	goto	u3161
  4845  0BDA  2BDC               	goto	u3160
  4846  0BDB                     u3161:
  4847  0BDB  2BDD               	goto	l2274
  4848  0BDC                     u3160:
  4849  0BDC                     l2272:
  4850  0BDC  17A5               	bsf	___xxtofl@arg+3,7
  4851  0BDD                     l2274:
  4852  0BDD  0825               	movf	___xxtofl@arg+3,w
  4853  0BDE  00F6               	movwf	?___xxtofl+3
  4854  0BDF  0824               	movf	___xxtofl@arg+2,w
  4855  0BE0  00F5               	movwf	?___xxtofl+2
  4856  0BE1  0823               	movf	___xxtofl@arg+1,w
  4857  0BE2  00F4               	movwf	?___xxtofl+1
  4858  0BE3  0822               	movf	___xxtofl@arg,w
  4859  0BE4  00F3               	movwf	?___xxtofl
  4860  0BE5                     l680:
  4861  0BE5  0008               	return
  4862  0BE6                     __end_of___xxtofl:
  4863                           
  4864                           	psect	text16
  4865  0024                     __ptext16:	
  4866 ;; *************** function ___flmul *****************
  4867 ;; Defined at:
  4868 ;;		line 8 in file "D:\Program Files\Microchip\xc8\v2.31\pic\sources\c90\common\sprcmul.c"
  4869 ;; Parameters:    Size  Location     Type
  4870 ;;  b               4    6[BANK0 ] unsigned char 
  4871 ;;  a               4   10[BANK0 ] unsigned char 
  4872 ;; Auto vars:     Size  Location     Type
  4873 ;;  prod            4   26[BANK0 ] struct .
  4874 ;;  grs             4   20[BANK0 ] unsigned long 
  4875 ;;  temp            2   30[BANK0 ] struct .
  4876 ;;  bexp            1   25[BANK0 ] unsigned char 
  4877 ;;  aexp            1   24[BANK0 ] unsigned char 
  4878 ;;  sign            1   19[BANK0 ] unsigned char 
  4879 ;; Return value:  Size  Location     Type
  4880 ;;                  4    6[BANK0 ] unsigned char 
  4881 ;; Registers used:
  4882 ;;		wreg, status,2, status,0, btemp+1, pclath, cstack
  4883 ;; Tracked objects:
  4884 ;;		On entry : 0/0
  4885 ;;		On exit  : 0/0
  4886 ;;		Unchanged: 0/0
  4887 ;; Data sizes:     COMMON   BANK0   BANK1   BANK3   BANK2
  4888 ;;      Params:         0       8       0       0       0
  4889 ;;      Locals:         0      13       0       0       0
  4890 ;;      Temps:          0       5       0       0       0
  4891 ;;      Totals:         0      26       0       0       0
  4892 ;;Total ram usage:       26 bytes
  4893 ;; Hardware stack levels used:    1
  4894 ;; Hardware stack levels required when called:    2
  4895 ;; This function calls:
  4896 ;;		__Umul8_16
  4897 ;; This function is called by:
  4898 ;;		_I2C_WWW
  4899 ;;		_ftoa
  4900 ;; This function uses a non-reentrant model
  4901 ;;
  4902                           
  4903                           
  4904                           ;psect for function ___flmul
  4905  0024                     ___flmul:
  4906  0024                     l2094:	
  4907                           ;incstack = 0
  4908                           ; Regs used in ___flmul: [wreg+status,2+status,0+btemp+1+pclath+cstack]
  4909                           
  4910  0024  1283               	bcf	3,5	;RP0=0, select bank0
  4911  0025  1303               	bcf	3,6	;RP1=0, select bank0
  4912  0026  0829               	movf	___flmul@b+3,w
  4913  0027  3980               	andlw	128
  4914  0028  00AE               	movwf	??___flmul
  4915  0029  082E               	movf	??___flmul,w
  4916  002A  00B3               	movwf	___flmul@sign
  4917  002B                     l2096:
  4918  002B  0829               	movf	___flmul@b+3,w
  4919  002C  00AE               	movwf	??___flmul
  4920  002D  072E               	addwf	??___flmul,w
  4921  002E  00AF               	movwf	??___flmul+1
  4922  002F  082F               	movf	??___flmul+1,w
  4923  0030  00B9               	movwf	___flmul@bexp
  4924  0031                     l2098:
  4925  0031  1FA8               	btfss	___flmul@b+2,7
  4926  0032  2834               	goto	u2661
  4927  0033  2835               	goto	u2660
  4928  0034                     u2661:
  4929  0034  2836               	goto	l2102
  4930  0035                     u2660:
  4931  0035                     l2100:
  4932  0035  1439               	bsf	___flmul@bexp,0
  4933  0036                     l2102:
  4934  0036  0839               	movf	___flmul@bexp,w
  4935  0037  1903               	btfsc	3,2
  4936  0038  283A               	goto	u2671
  4937  0039  283B               	goto	u2670
  4938  003A                     u2671:
  4939  003A  284A               	goto	l2110
  4940  003B                     u2670:
  4941  003B                     l2104:
  4942  003B  0A39               	incf	___flmul@bexp,w
  4943  003C  1D03               	btfss	3,2
  4944  003D  283F               	goto	u2681
  4945  003E  2840               	goto	u2680
  4946  003F                     u2681:
  4947  003F  2848               	goto	l2108
  4948  0040                     u2680:
  4949  0040                     l2106:
  4950  0040  3000               	movlw	0
  4951  0041  00A9               	movwf	___flmul@b+3
  4952  0042  3000               	movlw	0
  4953  0043  00A8               	movwf	___flmul@b+2
  4954  0044  3000               	movlw	0
  4955  0045  00A7               	movwf	___flmul@b+1
  4956  0046  3000               	movlw	0
  4957  0047  00A6               	movwf	___flmul@b
  4958  0048                     l2108:
  4959  0048  17A8               	bsf	___flmul@b+2,7
  4960  0049  2852               	goto	l2112
  4961  004A                     l2110:
  4962  004A  3000               	movlw	0
  4963  004B  00A9               	movwf	___flmul@b+3
  4964  004C  3000               	movlw	0
  4965  004D  00A8               	movwf	___flmul@b+2
  4966  004E  3000               	movlw	0
  4967  004F  00A7               	movwf	___flmul@b+1
  4968  0050  3000               	movlw	0
  4969  0051  00A6               	movwf	___flmul@b
  4970  0052                     l2112:
  4971  0052  082D               	movf	___flmul@a+3,w
  4972  0053  3980               	andlw	128
  4973  0054  00AE               	movwf	??___flmul
  4974  0055  082E               	movf	??___flmul,w
  4975  0056  06B3               	xorwf	___flmul@sign,f
  4976  0057                     l2114:
  4977  0057  082D               	movf	___flmul@a+3,w
  4978  0058  00AE               	movwf	??___flmul
  4979  0059  072E               	addwf	??___flmul,w
  4980  005A  00AF               	movwf	??___flmul+1
  4981  005B  082F               	movf	??___flmul+1,w
  4982  005C  00B8               	movwf	___flmul@aexp
  4983  005D                     l2116:
  4984  005D  1FAC               	btfss	___flmul@a+2,7
  4985  005E  2860               	goto	u2691
  4986  005F  2861               	goto	u2690
  4987  0060                     u2691:
  4988  0060  2862               	goto	l2120
  4989  0061                     u2690:
  4990  0061                     l2118:
  4991  0061  1438               	bsf	___flmul@aexp,0
  4992  0062                     l2120:
  4993  0062  0838               	movf	___flmul@aexp,w
  4994  0063  1903               	btfsc	3,2
  4995  0064  2866               	goto	u2701
  4996  0065  2867               	goto	u2700
  4997  0066                     u2701:
  4998  0066  2876               	goto	l2128
  4999  0067                     u2700:
  5000  0067                     l2122:
  5001  0067  0A38               	incf	___flmul@aexp,w
  5002  0068  1D03               	btfss	3,2
  5003  0069  286B               	goto	u2711
  5004  006A  286C               	goto	u2710
  5005  006B                     u2711:
  5006  006B  2874               	goto	l2126
  5007  006C                     u2710:
  5008  006C                     l2124:
  5009  006C  3000               	movlw	0
  5010  006D  00AD               	movwf	___flmul@a+3
  5011  006E  3000               	movlw	0
  5012  006F  00AC               	movwf	___flmul@a+2
  5013  0070  3000               	movlw	0
  5014  0071  00AB               	movwf	___flmul@a+1
  5015  0072  3000               	movlw	0
  5016  0073  00AA               	movwf	___flmul@a
  5017  0074                     l2126:
  5018  0074  17AC               	bsf	___flmul@a+2,7
  5019  0075  287E               	goto	l2130
  5020  0076                     l2128:
  5021  0076  3000               	movlw	0
  5022  0077  00AD               	movwf	___flmul@a+3
  5023  0078  3000               	movlw	0
  5024  0079  00AC               	movwf	___flmul@a+2
  5025  007A  3000               	movlw	0
  5026  007B  00AB               	movwf	___flmul@a+1
  5027  007C  3000               	movlw	0
  5028  007D  00AA               	movwf	___flmul@a
  5029  007E                     l2130:
  5030  007E  0838               	movf	___flmul@aexp,w
  5031  007F  1903               	btfsc	3,2
  5032  0080  2882               	goto	u2721
  5033  0081  2883               	goto	u2720
  5034  0082                     u2721:
  5035  0082  2888               	goto	l2134
  5036  0083                     u2720:
  5037  0083                     l2132:
  5038  0083  0839               	movf	___flmul@bexp,w
  5039  0084  1D03               	btfss	3,2
  5040  0085  2887               	goto	u2731
  5041  0086  2888               	goto	u2730
  5042  0087                     u2731:
  5043  0087  2891               	goto	l2138
  5044  0088                     u2730:
  5045  0088                     l2134:
  5046  0088  3000               	movlw	0
  5047  0089  00A9               	movwf	?___flmul+3
  5048  008A  3000               	movlw	0
  5049  008B  00A8               	movwf	?___flmul+2
  5050  008C  3000               	movlw	0
  5051  008D  00A7               	movwf	?___flmul+1
  5052  008E  3000               	movlw	0
  5053  008F  00A6               	movwf	?___flmul
  5054  0090  2B84               	goto	l634
  5055  0091                     l2138:
  5056  0091  0826               	movf	___flmul@b,w
  5057  0092  00AE               	movwf	??___flmul
  5058  0093  082E               	movf	??___flmul,w
  5059  0094  00F3               	movwf	__Umul8_16@multiplicand
  5060  0095  082C               	movf	___flmul@a+2,w
  5061  0096  120A  158A  20CA  120A  118A  	fcall	__Umul8_16
  5062  009B  0874               	movf	?__Umul8_16+1,w
  5063  009C  1283               	bcf	3,5	;RP0=0, select bank0
  5064  009D  1303               	bcf	3,6	;RP1=0, select bank0
  5065  009E  00BF               	movwf	___flmul@temp+1
  5066  009F  0873               	movf	?__Umul8_16,w
  5067  00A0  00BE               	movwf	___flmul@temp
  5068  00A1                     l2140:
  5069  00A1  083E               	movf	___flmul@temp,w
  5070  00A2  00AE               	movwf	??___flmul
  5071  00A3  01AF               	clrf	??___flmul+1
  5072  00A4  01B0               	clrf	??___flmul+2
  5073  00A5  01B1               	clrf	??___flmul+3
  5074  00A6  0831               	movf	??___flmul+3,w
  5075  00A7  00B7               	movwf	___flmul@grs+3
  5076  00A8  0830               	movf	??___flmul+2,w
  5077  00A9  00B6               	movwf	___flmul@grs+2
  5078  00AA  082F               	movf	??___flmul+1,w
  5079  00AB  00B5               	movwf	___flmul@grs+1
  5080  00AC  082E               	movf	??___flmul,w
  5081  00AD  00B4               	movwf	___flmul@grs
  5082  00AE                     l2142:
  5083  00AE  083F               	movf	___flmul@temp+1,w
  5084  00AF  00AE               	movwf	??___flmul
  5085  00B0  01AF               	clrf	??___flmul+1
  5086  00B1  01B0               	clrf	??___flmul+2
  5087  00B2  01B1               	clrf	??___flmul+3
  5088  00B3  0831               	movf	??___flmul+3,w
  5089  00B4  00BD               	movwf	___flmul@prod+3
  5090  00B5  0830               	movf	??___flmul+2,w
  5091  00B6  00BC               	movwf	___flmul@prod+2
  5092  00B7  082F               	movf	??___flmul+1,w
  5093  00B8  00BB               	movwf	___flmul@prod+1
  5094  00B9  082E               	movf	??___flmul,w
  5095  00BA  00BA               	movwf	___flmul@prod
  5096  00BB  0827               	movf	___flmul@b+1,w
  5097  00BC  00AE               	movwf	??___flmul
  5098  00BD  082E               	movf	??___flmul,w
  5099  00BE  00F3               	movwf	__Umul8_16@multiplicand
  5100  00BF  082B               	movf	___flmul@a+1,w
  5101  00C0  120A  158A  20CA  120A  118A  	fcall	__Umul8_16
  5102  00C5  0874               	movf	?__Umul8_16+1,w
  5103  00C6  1283               	bcf	3,5	;RP0=0, select bank0
  5104  00C7  1303               	bcf	3,6	;RP1=0, select bank0
  5105  00C8  00BF               	movwf	___flmul@temp+1
  5106  00C9  0873               	movf	?__Umul8_16,w
  5107  00CA  00BE               	movwf	___flmul@temp
  5108  00CB                     l2144:
  5109  00CB  083E               	movf	___flmul@temp,w
  5110  00CC  00AE               	movwf	??___flmul
  5111  00CD  01AF               	clrf	??___flmul+1
  5112  00CE  01B0               	clrf	??___flmul+2
  5113  00CF  01B1               	clrf	??___flmul+3
  5114  00D0  082E               	movf	??___flmul,w
  5115  00D1  07B4               	addwf	___flmul@grs,f
  5116  00D2  082F               	movf	??___flmul+1,w
  5117  00D3  1103               	clrz
  5118  00D4  1803               	skipnc
  5119  00D5  3E01               	addlw	1
  5120  00D6  1903               	skipnz
  5121  00D7  28D9               	goto	u2741
  5122  00D8  07B5               	addwf	___flmul@grs+1,f
  5123  00D9                     u2741:
  5124  00D9  0830               	movf	??___flmul+2,w
  5125  00DA  1103               	clrz
  5126  00DB  1803               	skipnc
  5127  00DC  3E01               	addlw	1
  5128  00DD  1903               	skipnz
  5129  00DE  28E0               	goto	u2742
  5130  00DF  07B6               	addwf	___flmul@grs+2,f
  5131  00E0                     u2742:
  5132  00E0  0831               	movf	??___flmul+3,w
  5133  00E1  1103               	clrz
  5134  00E2  1803               	skipnc
  5135  00E3  3E01               	addlw	1
  5136  00E4  1903               	skipnz
  5137  00E5  28E7               	goto	u2743
  5138  00E6  07B7               	addwf	___flmul@grs+3,f
  5139  00E7                     u2743:
  5140  00E7                     l2146:
  5141  00E7  083F               	movf	___flmul@temp+1,w
  5142  00E8  00AE               	movwf	??___flmul
  5143  00E9  01AF               	clrf	??___flmul+1
  5144  00EA  01B0               	clrf	??___flmul+2
  5145  00EB  01B1               	clrf	??___flmul+3
  5146  00EC  082E               	movf	??___flmul,w
  5147  00ED  07BA               	addwf	___flmul@prod,f
  5148  00EE  082F               	movf	??___flmul+1,w
  5149  00EF  1103               	clrz
  5150  00F0  1803               	skipnc
  5151  00F1  3E01               	addlw	1
  5152  00F2  1903               	skipnz
  5153  00F3  28F5               	goto	u2751
  5154  00F4  07BB               	addwf	___flmul@prod+1,f
  5155  00F5                     u2751:
  5156  00F5  0830               	movf	??___flmul+2,w
  5157  00F6  1103               	clrz
  5158  00F7  1803               	skipnc
  5159  00F8  3E01               	addlw	1
  5160  00F9  1903               	skipnz
  5161  00FA  28FC               	goto	u2752
  5162  00FB  07BC               	addwf	___flmul@prod+2,f
  5163  00FC                     u2752:
  5164  00FC  0831               	movf	??___flmul+3,w
  5165  00FD  1103               	clrz
  5166  00FE  1803               	skipnc
  5167  00FF  3E01               	addlw	1
  5168  0100  1903               	skipnz
  5169  0101  2903               	goto	u2753
  5170  0102  07BD               	addwf	___flmul@prod+3,f
  5171  0103                     u2753:
  5172  0103  0828               	movf	___flmul@b+2,w
  5173  0104  00AE               	movwf	??___flmul
  5174  0105  082E               	movf	??___flmul,w
  5175  0106  00F3               	movwf	__Umul8_16@multiplicand
  5176  0107  082A               	movf	___flmul@a,w
  5177  0108  120A  158A  20CA  120A  118A  	fcall	__Umul8_16
  5178  010D  0874               	movf	?__Umul8_16+1,w
  5179  010E  1283               	bcf	3,5	;RP0=0, select bank0
  5180  010F  1303               	bcf	3,6	;RP1=0, select bank0
  5181  0110  00BF               	movwf	___flmul@temp+1
  5182  0111  0873               	movf	?__Umul8_16,w
  5183  0112  00BE               	movwf	___flmul@temp
  5184  0113                     l2148:
  5185  0113  083E               	movf	___flmul@temp,w
  5186  0114  00AE               	movwf	??___flmul
  5187  0115  01AF               	clrf	??___flmul+1
  5188  0116  01B0               	clrf	??___flmul+2
  5189  0117  01B1               	clrf	??___flmul+3
  5190  0118  082E               	movf	??___flmul,w
  5191  0119  07B4               	addwf	___flmul@grs,f
  5192  011A  082F               	movf	??___flmul+1,w
  5193  011B  1103               	clrz
  5194  011C  1803               	skipnc
  5195  011D  3E01               	addlw	1
  5196  011E  1903               	skipnz
  5197  011F  2921               	goto	u2761
  5198  0120  07B5               	addwf	___flmul@grs+1,f
  5199  0121                     u2761:
  5200  0121  0830               	movf	??___flmul+2,w
  5201  0122  1103               	clrz
  5202  0123  1803               	skipnc
  5203  0124  3E01               	addlw	1
  5204  0125  1903               	skipnz
  5205  0126  2928               	goto	u2762
  5206  0127  07B6               	addwf	___flmul@grs+2,f
  5207  0128                     u2762:
  5208  0128  0831               	movf	??___flmul+3,w
  5209  0129  1103               	clrz
  5210  012A  1803               	skipnc
  5211  012B  3E01               	addlw	1
  5212  012C  1903               	skipnz
  5213  012D  292F               	goto	u2763
  5214  012E  07B7               	addwf	___flmul@grs+3,f
  5215  012F                     u2763:
  5216  012F                     l2150:
  5217  012F  083F               	movf	___flmul@temp+1,w
  5218  0130  00AE               	movwf	??___flmul
  5219  0131  01AF               	clrf	??___flmul+1
  5220  0132  01B0               	clrf	??___flmul+2
  5221  0133  01B1               	clrf	??___flmul+3
  5222  0134  082E               	movf	??___flmul,w
  5223  0135  07BA               	addwf	___flmul@prod,f
  5224  0136  082F               	movf	??___flmul+1,w
  5225  0137  1103               	clrz
  5226  0138  1803               	skipnc
  5227  0139  3E01               	addlw	1
  5228  013A  1903               	skipnz
  5229  013B  293D               	goto	u2771
  5230  013C  07BB               	addwf	___flmul@prod+1,f
  5231  013D                     u2771:
  5232  013D  0830               	movf	??___flmul+2,w
  5233  013E  1103               	clrz
  5234  013F  1803               	skipnc
  5235  0140  3E01               	addlw	1
  5236  0141  1903               	skipnz
  5237  0142  2944               	goto	u2772
  5238  0143  07BC               	addwf	___flmul@prod+2,f
  5239  0144                     u2772:
  5240  0144  0831               	movf	??___flmul+3,w
  5241  0145  1103               	clrz
  5242  0146  1803               	skipnc
  5243  0147  3E01               	addlw	1
  5244  0148  1903               	skipnz
  5245  0149  294B               	goto	u2773
  5246  014A  07BD               	addwf	___flmul@prod+3,f
  5247  014B                     u2773:
  5248  014B                     l2152:
  5249  014B  3008               	movlw	8
  5250  014C  00AE               	movwf	??___flmul
  5251  014D                     u2785:
  5252  014D  1003               	clrc
  5253  014E  0DB4               	rlf	___flmul@grs,f
  5254  014F  0DB5               	rlf	___flmul@grs+1,f
  5255  0150  0DB6               	rlf	___flmul@grs+2,f
  5256  0151  0DB7               	rlf	___flmul@grs+3,f
  5257  0152  0BAE               	decfsz	??___flmul,f
  5258  0153  294D               	goto	u2785
  5259  0154                     l2154:
  5260  0154  0827               	movf	___flmul@b+1,w
  5261  0155  00AE               	movwf	??___flmul
  5262  0156  082E               	movf	??___flmul,w
  5263  0157  00F3               	movwf	__Umul8_16@multiplicand
  5264  0158  082A               	movf	___flmul@a,w
  5265  0159  120A  158A  20CA  120A  118A  	fcall	__Umul8_16
  5266  015E  0874               	movf	?__Umul8_16+1,w
  5267  015F  1283               	bcf	3,5	;RP0=0, select bank0
  5268  0160  1303               	bcf	3,6	;RP1=0, select bank0
  5269  0161  00BF               	movwf	___flmul@temp+1
  5270  0162  0873               	movf	?__Umul8_16,w
  5271  0163  00BE               	movwf	___flmul@temp
  5272  0164                     l2156:
  5273  0164  083E               	movf	___flmul@temp,w
  5274  0165  00AE               	movwf	??___flmul
  5275  0166  083F               	movf	___flmul@temp+1,w
  5276  0167  00AF               	movwf	??___flmul+1
  5277  0168  01B0               	clrf	??___flmul+2
  5278  0169  01B1               	clrf	??___flmul+3
  5279  016A  082E               	movf	??___flmul,w
  5280  016B  07B4               	addwf	___flmul@grs,f
  5281  016C  082F               	movf	??___flmul+1,w
  5282  016D  1103               	clrz
  5283  016E  1803               	skipnc
  5284  016F  3E01               	addlw	1
  5285  0170  1903               	skipnz
  5286  0171  2973               	goto	u2791
  5287  0172  07B5               	addwf	___flmul@grs+1,f
  5288  0173                     u2791:
  5289  0173  0830               	movf	??___flmul+2,w
  5290  0174  1103               	clrz
  5291  0175  1803               	skipnc
  5292  0176  3E01               	addlw	1
  5293  0177  1903               	skipnz
  5294  0178  297A               	goto	u2792
  5295  0179  07B6               	addwf	___flmul@grs+2,f
  5296  017A                     u2792:
  5297  017A  0831               	movf	??___flmul+3,w
  5298  017B  1103               	clrz
  5299  017C  1803               	skipnc
  5300  017D  3E01               	addlw	1
  5301  017E  1903               	skipnz
  5302  017F  2981               	goto	u2793
  5303  0180  07B7               	addwf	___flmul@grs+3,f
  5304  0181                     u2793:
  5305  0181                     l2158:
  5306  0181  0826               	movf	___flmul@b,w
  5307  0182  00AE               	movwf	??___flmul
  5308  0183  082E               	movf	??___flmul,w
  5309  0184  00F3               	movwf	__Umul8_16@multiplicand
  5310  0185  082B               	movf	___flmul@a+1,w
  5311  0186  120A  158A  20CA  120A  118A  	fcall	__Umul8_16
  5312  018B  0874               	movf	?__Umul8_16+1,w
  5313  018C  1283               	bcf	3,5	;RP0=0, select bank0
  5314  018D  1303               	bcf	3,6	;RP1=0, select bank0
  5315  018E  00BF               	movwf	___flmul@temp+1
  5316  018F  0873               	movf	?__Umul8_16,w
  5317  0190  00BE               	movwf	___flmul@temp
  5318  0191                     l2160:
  5319  0191  083E               	movf	___flmul@temp,w
  5320  0192  00AE               	movwf	??___flmul
  5321  0193  083F               	movf	___flmul@temp+1,w
  5322  0194  00AF               	movwf	??___flmul+1
  5323  0195  01B0               	clrf	??___flmul+2
  5324  0196  01B1               	clrf	??___flmul+3
  5325  0197  082E               	movf	??___flmul,w
  5326  0198  07B4               	addwf	___flmul@grs,f
  5327  0199  082F               	movf	??___flmul+1,w
  5328  019A  1103               	clrz
  5329  019B  1803               	skipnc
  5330  019C  3E01               	addlw	1
  5331  019D  1903               	skipnz
  5332  019E  29A0               	goto	u2801
  5333  019F  07B5               	addwf	___flmul@grs+1,f
  5334  01A0                     u2801:
  5335  01A0  0830               	movf	??___flmul+2,w
  5336  01A1  1103               	clrz
  5337  01A2  1803               	skipnc
  5338  01A3  3E01               	addlw	1
  5339  01A4  1903               	skipnz
  5340  01A5  29A7               	goto	u2802
  5341  01A6  07B6               	addwf	___flmul@grs+2,f
  5342  01A7                     u2802:
  5343  01A7  0831               	movf	??___flmul+3,w
  5344  01A8  1103               	clrz
  5345  01A9  1803               	skipnc
  5346  01AA  3E01               	addlw	1
  5347  01AB  1903               	skipnz
  5348  01AC  29AE               	goto	u2803
  5349  01AD  07B7               	addwf	___flmul@grs+3,f
  5350  01AE                     u2803:
  5351  01AE                     l2162:
  5352  01AE  3008               	movlw	8
  5353  01AF  00AE               	movwf	??___flmul
  5354  01B0                     u2815:
  5355  01B0  1003               	clrc
  5356  01B1  0DB4               	rlf	___flmul@grs,f
  5357  01B2  0DB5               	rlf	___flmul@grs+1,f
  5358  01B3  0DB6               	rlf	___flmul@grs+2,f
  5359  01B4  0DB7               	rlf	___flmul@grs+3,f
  5360  01B5  0BAE               	decfsz	??___flmul,f
  5361  01B6  29B0               	goto	u2815
  5362  01B7  0826               	movf	___flmul@b,w
  5363  01B8  00AE               	movwf	??___flmul
  5364  01B9  082E               	movf	??___flmul,w
  5365  01BA  00F3               	movwf	__Umul8_16@multiplicand
  5366  01BB  082A               	movf	___flmul@a,w
  5367  01BC  120A  158A  20CA  120A  118A  	fcall	__Umul8_16
  5368  01C1  0874               	movf	?__Umul8_16+1,w
  5369  01C2  1283               	bcf	3,5	;RP0=0, select bank0
  5370  01C3  1303               	bcf	3,6	;RP1=0, select bank0
  5371  01C4  00BF               	movwf	___flmul@temp+1
  5372  01C5  0873               	movf	?__Umul8_16,w
  5373  01C6  00BE               	movwf	___flmul@temp
  5374  01C7                     l2164:
  5375  01C7  083E               	movf	___flmul@temp,w
  5376  01C8  00AE               	movwf	??___flmul
  5377  01C9  083F               	movf	___flmul@temp+1,w
  5378  01CA  00AF               	movwf	??___flmul+1
  5379  01CB  01B0               	clrf	??___flmul+2
  5380  01CC  01B1               	clrf	??___flmul+3
  5381  01CD  082E               	movf	??___flmul,w
  5382  01CE  07B4               	addwf	___flmul@grs,f
  5383  01CF  082F               	movf	??___flmul+1,w
  5384  01D0  1103               	clrz
  5385  01D1  1803               	skipnc
  5386  01D2  3E01               	addlw	1
  5387  01D3  1903               	skipnz
  5388  01D4  29D6               	goto	u2821
  5389  01D5  07B5               	addwf	___flmul@grs+1,f
  5390  01D6                     u2821:
  5391  01D6  0830               	movf	??___flmul+2,w
  5392  01D7  1103               	clrz
  5393  01D8  1803               	skipnc
  5394  01D9  3E01               	addlw	1
  5395  01DA  1903               	skipnz
  5396  01DB  29DD               	goto	u2822
  5397  01DC  07B6               	addwf	___flmul@grs+2,f
  5398  01DD                     u2822:
  5399  01DD  0831               	movf	??___flmul+3,w
  5400  01DE  1103               	clrz
  5401  01DF  1803               	skipnc
  5402  01E0  3E01               	addlw	1
  5403  01E1  1903               	skipnz
  5404  01E2  29E4               	goto	u2823
  5405  01E3  07B7               	addwf	___flmul@grs+3,f
  5406  01E4                     u2823:
  5407  01E4                     l2166:
  5408  01E4  0827               	movf	___flmul@b+1,w
  5409  01E5  00AE               	movwf	??___flmul
  5410  01E6  082E               	movf	??___flmul,w
  5411  01E7  00F3               	movwf	__Umul8_16@multiplicand
  5412  01E8  082C               	movf	___flmul@a+2,w
  5413  01E9  120A  158A  20CA  120A  118A  	fcall	__Umul8_16
  5414  01EE  0874               	movf	?__Umul8_16+1,w
  5415  01EF  1283               	bcf	3,5	;RP0=0, select bank0
  5416  01F0  1303               	bcf	3,6	;RP1=0, select bank0
  5417  01F1  00BF               	movwf	___flmul@temp+1
  5418  01F2  0873               	movf	?__Umul8_16,w
  5419  01F3  00BE               	movwf	___flmul@temp
  5420  01F4  083E               	movf	___flmul@temp,w
  5421  01F5  00AE               	movwf	??___flmul
  5422  01F6  083F               	movf	___flmul@temp+1,w
  5423  01F7  00AF               	movwf	??___flmul+1
  5424  01F8  01B0               	clrf	??___flmul+2
  5425  01F9  01B1               	clrf	??___flmul+3
  5426  01FA  082E               	movf	??___flmul,w
  5427  01FB  07BA               	addwf	___flmul@prod,f
  5428  01FC  082F               	movf	??___flmul+1,w
  5429  01FD  1103               	clrz
  5430  01FE  1803               	skipnc
  5431  01FF  3E01               	addlw	1
  5432  0200  1903               	skipnz
  5433  0201  2A03               	goto	u2831
  5434  0202  07BB               	addwf	___flmul@prod+1,f
  5435  0203                     u2831:
  5436  0203  0830               	movf	??___flmul+2,w
  5437  0204  1103               	clrz
  5438  0205  1803               	skipnc
  5439  0206  3E01               	addlw	1
  5440  0207  1903               	skipnz
  5441  0208  2A0A               	goto	u2832
  5442  0209  07BC               	addwf	___flmul@prod+2,f
  5443  020A                     u2832:
  5444  020A  0831               	movf	??___flmul+3,w
  5445  020B  1103               	clrz
  5446  020C  1803               	skipnc
  5447  020D  3E01               	addlw	1
  5448  020E  1903               	skipnz
  5449  020F  2A11               	goto	u2833
  5450  0210  07BD               	addwf	___flmul@prod+3,f
  5451  0211                     u2833:
  5452  0211                     l2168:
  5453  0211  0828               	movf	___flmul@b+2,w
  5454  0212  00AE               	movwf	??___flmul
  5455  0213  082E               	movf	??___flmul,w
  5456  0214  00F3               	movwf	__Umul8_16@multiplicand
  5457  0215  082B               	movf	___flmul@a+1,w
  5458  0216  120A  158A  20CA  120A  118A  	fcall	__Umul8_16
  5459  021B  0874               	movf	?__Umul8_16+1,w
  5460  021C  1283               	bcf	3,5	;RP0=0, select bank0
  5461  021D  1303               	bcf	3,6	;RP1=0, select bank0
  5462  021E  00BF               	movwf	___flmul@temp+1
  5463  021F  0873               	movf	?__Umul8_16,w
  5464  0220  00BE               	movwf	___flmul@temp
  5465  0221                     l2170:
  5466  0221  083E               	movf	___flmul@temp,w
  5467  0222  00AE               	movwf	??___flmul
  5468  0223  083F               	movf	___flmul@temp+1,w
  5469  0224  00AF               	movwf	??___flmul+1
  5470  0225  01B0               	clrf	??___flmul+2
  5471  0226  01B1               	clrf	??___flmul+3
  5472  0227  082E               	movf	??___flmul,w
  5473  0228  07BA               	addwf	___flmul@prod,f
  5474  0229  082F               	movf	??___flmul+1,w
  5475  022A  1103               	clrz
  5476  022B  1803               	skipnc
  5477  022C  3E01               	addlw	1
  5478  022D  1903               	skipnz
  5479  022E  2A30               	goto	u2841
  5480  022F  07BB               	addwf	___flmul@prod+1,f
  5481  0230                     u2841:
  5482  0230  0830               	movf	??___flmul+2,w
  5483  0231  1103               	clrz
  5484  0232  1803               	skipnc
  5485  0233  3E01               	addlw	1
  5486  0234  1903               	skipnz
  5487  0235  2A37               	goto	u2842
  5488  0236  07BC               	addwf	___flmul@prod+2,f
  5489  0237                     u2842:
  5490  0237  0831               	movf	??___flmul+3,w
  5491  0238  1103               	clrz
  5492  0239  1803               	skipnc
  5493  023A  3E01               	addlw	1
  5494  023B  1903               	skipnz
  5495  023C  2A3E               	goto	u2843
  5496  023D  07BD               	addwf	___flmul@prod+3,f
  5497  023E                     u2843:
  5498  023E  0828               	movf	___flmul@b+2,w
  5499  023F  00AE               	movwf	??___flmul
  5500  0240  082E               	movf	??___flmul,w
  5501  0241  00F3               	movwf	__Umul8_16@multiplicand
  5502  0242  082C               	movf	___flmul@a+2,w
  5503  0243  120A  158A  20CA  120A  118A  	fcall	__Umul8_16
  5504  0248  0874               	movf	?__Umul8_16+1,w
  5505  0249  1283               	bcf	3,5	;RP0=0, select bank0
  5506  024A  1303               	bcf	3,6	;RP1=0, select bank0
  5507  024B  00BF               	movwf	___flmul@temp+1
  5508  024C  0873               	movf	?__Umul8_16,w
  5509  024D  00BE               	movwf	___flmul@temp
  5510  024E                     l2172:
  5511  024E  083E               	movf	___flmul@temp,w
  5512  024F  00AE               	movwf	??___flmul
  5513  0250  083F               	movf	___flmul@temp+1,w
  5514  0251  00AF               	movwf	??___flmul+1
  5515  0252  01B0               	clrf	??___flmul+2
  5516  0253  01B1               	clrf	??___flmul+3
  5517  0254  3008               	movlw	8
  5518  0255                     u2855:
  5519  0255  1003               	clrc
  5520  0256  0DAE               	rlf	??___flmul,f
  5521  0257  0DAF               	rlf	??___flmul+1,f
  5522  0258  0DB0               	rlf	??___flmul+2,f
  5523  0259  0DB1               	rlf	??___flmul+3,f
  5524  025A                     u2850:
  5525  025A  3EFF               	addlw	-1
  5526  025B  1D03               	skipz
  5527  025C  2A55               	goto	u2855
  5528  025D  082E               	movf	??___flmul,w
  5529  025E  07BA               	addwf	___flmul@prod,f
  5530  025F  082F               	movf	??___flmul+1,w
  5531  0260  1103               	clrz
  5532  0261  1803               	skipnc
  5533  0262  3E01               	addlw	1
  5534  0263  1903               	skipnz
  5535  0264  2A66               	goto	u2861
  5536  0265  07BB               	addwf	___flmul@prod+1,f
  5537  0266                     u2861:
  5538  0266  0830               	movf	??___flmul+2,w
  5539  0267  1103               	clrz
  5540  0268  1803               	skipnc
  5541  0269  3E01               	addlw	1
  5542  026A  1903               	skipnz
  5543  026B  2A6D               	goto	u2862
  5544  026C  07BC               	addwf	___flmul@prod+2,f
  5545  026D                     u2862:
  5546  026D  0831               	movf	??___flmul+3,w
  5547  026E  1103               	clrz
  5548  026F  1803               	skipnc
  5549  0270  3E01               	addlw	1
  5550  0271  1903               	skipnz
  5551  0272  2A74               	goto	u2863
  5552  0273  07BD               	addwf	___flmul@prod+3,f
  5553  0274                     u2863:
  5554  0274                     l2174:
  5555  0274  0834               	movf	___flmul@grs,w
  5556  0275  00AE               	movwf	??___flmul
  5557  0276  0835               	movf	___flmul@grs+1,w
  5558  0277  00AF               	movwf	??___flmul+1
  5559  0278  0836               	movf	___flmul@grs+2,w
  5560  0279  00B0               	movwf	??___flmul+2
  5561  027A  0837               	movf	___flmul@grs+3,w
  5562  027B  00B1               	movwf	??___flmul+3
  5563  027C  3018               	movlw	24
  5564  027D                     u2875:
  5565  027D  1003               	clrc
  5566  027E  0CB1               	rrf	??___flmul+3,f
  5567  027F  0CB0               	rrf	??___flmul+2,f
  5568  0280  0CAF               	rrf	??___flmul+1,f
  5569  0281  0CAE               	rrf	??___flmul,f
  5570  0282                     u2870:
  5571  0282  3EFF               	addlw	-1
  5572  0283  1D03               	skipz
  5573  0284  2A7D               	goto	u2875
  5574  0285  082E               	movf	??___flmul,w
  5575  0286  07BA               	addwf	___flmul@prod,f
  5576  0287  082F               	movf	??___flmul+1,w
  5577  0288  1103               	clrz
  5578  0289  1803               	skipnc
  5579  028A  3E01               	addlw	1
  5580  028B  1903               	skipnz
  5581  028C  2A8E               	goto	u2881
  5582  028D  07BB               	addwf	___flmul@prod+1,f
  5583  028E                     u2881:
  5584  028E  0830               	movf	??___flmul+2,w
  5585  028F  1103               	clrz
  5586  0290  1803               	skipnc
  5587  0291  3E01               	addlw	1
  5588  0292  1903               	skipnz
  5589  0293  2A95               	goto	u2882
  5590  0294  07BC               	addwf	___flmul@prod+2,f
  5591  0295                     u2882:
  5592  0295  0831               	movf	??___flmul+3,w
  5593  0296  1103               	clrz
  5594  0297  1803               	skipnc
  5595  0298  3E01               	addlw	1
  5596  0299  1903               	skipnz
  5597  029A  2A9C               	goto	u2883
  5598  029B  07BD               	addwf	___flmul@prod+3,f
  5599  029C                     u2883:
  5600  029C                     l2176:
  5601  029C  3008               	movlw	8
  5602  029D  00AE               	movwf	??___flmul
  5603  029E                     u2895:
  5604  029E  1003               	clrc
  5605  029F  0DB4               	rlf	___flmul@grs,f
  5606  02A0  0DB5               	rlf	___flmul@grs+1,f
  5607  02A1  0DB6               	rlf	___flmul@grs+2,f
  5608  02A2  0DB7               	rlf	___flmul@grs+3,f
  5609  02A3  0BAE               	decfsz	??___flmul,f
  5610  02A4  2A9E               	goto	u2895
  5611  02A5                     l2178:
  5612  02A5  0839               	movf	___flmul@bexp,w
  5613  02A6  0738               	addwf	___flmul@aexp,w
  5614  02A7  00AE               	movwf	??___flmul
  5615  02A8  01AF               	clrf	??___flmul+1
  5616  02A9  0DAF               	rlf	??___flmul+1,f
  5617  02AA  082E               	movf	??___flmul,w
  5618  02AB  3E82               	addlw	130
  5619  02AC  00BE               	movwf	___flmul@temp
  5620  02AD  082F               	movf	??___flmul+1,w
  5621  02AE  1803               	skipnc
  5622  02AF  3E01               	addlw	1
  5623  02B0  3EFF               	addlw	255
  5624  02B1  00BF               	movwf	___flmul@temp+1
  5625  02B2  2AD0               	goto	l2190
  5626  02B3                     l2180:
  5627  02B3  3001               	movlw	1
  5628  02B4  00AE               	movwf	??___flmul
  5629  02B5                     u2905:
  5630  02B5  1003               	clrc
  5631  02B6  0DBA               	rlf	___flmul@prod,f
  5632  02B7  0DBB               	rlf	___flmul@prod+1,f
  5633  02B8  0DBC               	rlf	___flmul@prod+2,f
  5634  02B9  0DBD               	rlf	___flmul@prod+3,f
  5635  02BA  0BAE               	decfsz	??___flmul,f
  5636  02BB  2AB5               	goto	u2905
  5637  02BC                     l2182:
  5638  02BC  1FB7               	btfss	___flmul@grs+3,7
  5639  02BD  2ABF               	goto	u2911
  5640  02BE  2AC0               	goto	u2910
  5641  02BF                     u2911:
  5642  02BF  2AC1               	goto	l2186
  5643  02C0                     u2910:
  5644  02C0                     l2184:
  5645  02C0  143A               	bsf	___flmul@prod,0
  5646  02C1                     l2186:
  5647  02C1  3001               	movlw	1
  5648  02C2  00AE               	movwf	??___flmul
  5649  02C3                     u2925:
  5650  02C3  1003               	clrc
  5651  02C4  0DB4               	rlf	___flmul@grs,f
  5652  02C5  0DB5               	rlf	___flmul@grs+1,f
  5653  02C6  0DB6               	rlf	___flmul@grs+2,f
  5654  02C7  0DB7               	rlf	___flmul@grs+3,f
  5655  02C8  0BAE               	decfsz	??___flmul,f
  5656  02C9  2AC3               	goto	u2925
  5657  02CA                     l2188:
  5658  02CA  30FF               	movlw	255
  5659  02CB  07BE               	addwf	___flmul@temp,f
  5660  02CC  1803               	skipnc
  5661  02CD  0ABF               	incf	___flmul@temp+1,f
  5662  02CE  30FF               	movlw	255
  5663  02CF  07BF               	addwf	___flmul@temp+1,f
  5664  02D0                     l2190:
  5665  02D0  1FBC               	btfss	___flmul@prod+2,7
  5666  02D1  2AD3               	goto	u2931
  5667  02D2  2AD4               	goto	u2930
  5668  02D3                     u2931:
  5669  02D3  2AB3               	goto	l2180
  5670  02D4                     u2930:
  5671  02D4                     l2192:
  5672  02D4  01B8               	clrf	___flmul@aexp
  5673  02D5                     l2194:
  5674  02D5  1FB7               	btfss	___flmul@grs+3,7
  5675  02D6  2AD8               	goto	u2941
  5676  02D7  2AD9               	goto	u2940
  5677  02D8                     u2941:
  5678  02D8  2AF5               	goto	l2202
  5679  02D9                     u2940:
  5680  02D9                     l2196:
  5681  02D9  30FF               	movlw	255
  5682  02DA  0534               	andwf	___flmul@grs,w
  5683  02DB  00AE               	movwf	??___flmul
  5684  02DC  30FF               	movlw	255
  5685  02DD  0535               	andwf	___flmul@grs+1,w
  5686  02DE  00AF               	movwf	??___flmul+1
  5687  02DF  30FF               	movlw	255
  5688  02E0  0536               	andwf	___flmul@grs+2,w
  5689  02E1  00B0               	movwf	??___flmul+2
  5690  02E2  307F               	movlw	127
  5691  02E3  0537               	andwf	___flmul@grs+3,w
  5692  02E4  00B1               	movwf	??___flmul+3
  5693  02E5  0831               	movf	??___flmul+3,w
  5694  02E6  0430               	iorwf	??___flmul+2,w
  5695  02E7  042F               	iorwf	??___flmul+1,w
  5696  02E8  042E               	iorwf	??___flmul,w
  5697  02E9  1903               	skipnz
  5698  02EA  2AEC               	goto	u2951
  5699  02EB  2AED               	goto	u2950
  5700  02EC                     u2951:
  5701  02EC  2AF0               	goto	l640
  5702  02ED                     u2950:
  5703  02ED                     l2198:
  5704  02ED  01B8               	clrf	___flmul@aexp
  5705  02EE  0AB8               	incf	___flmul@aexp,f
  5706  02EF  2AF5               	goto	l2202
  5707  02F0                     l640:
  5708  02F0  1C3A               	btfss	___flmul@prod,0
  5709  02F1  2AF3               	goto	u2961
  5710  02F2  2AF4               	goto	u2960
  5711  02F3                     u2961:
  5712  02F3  2AF5               	goto	l2202
  5713  02F4                     u2960:
  5714  02F4  2AED               	goto	l2198
  5715  02F5                     l2202:
  5716  02F5  0838               	movf	___flmul@aexp,w
  5717  02F6  1903               	btfsc	3,2
  5718  02F7  2AF9               	goto	u2971
  5719  02F8  2AFA               	goto	u2970
  5720  02F9                     u2971:
  5721  02F9  2B2B               	goto	l2212
  5722  02FA                     u2970:
  5723  02FA                     l2204:
  5724  02FA  3001               	movlw	1
  5725  02FB  07BA               	addwf	___flmul@prod,f
  5726  02FC  3000               	movlw	0
  5727  02FD  1803               	skipnc
  5728  02FE  3001               	movlw	1
  5729  02FF  07BB               	addwf	___flmul@prod+1,f
  5730  0300  3000               	movlw	0
  5731  0301  1803               	skipnc
  5732  0302  3001               	movlw	1
  5733  0303  07BC               	addwf	___flmul@prod+2,f
  5734  0304  3000               	movlw	0
  5735  0305  1803               	skipnc
  5736  0306  3001               	movlw	1
  5737  0307  07BD               	addwf	___flmul@prod+3,f
  5738  0308                     l2206:
  5739  0308  1C3D               	btfss	___flmul@prod+3,0
  5740  0309  2B0B               	goto	u2981
  5741  030A  2B0C               	goto	u2980
  5742  030B                     u2981:
  5743  030B  2B2B               	goto	l2212
  5744  030C                     u2980:
  5745  030C                     l2208:
  5746  030C  083A               	movf	___flmul@prod,w
  5747  030D  00AE               	movwf	??___flmul
  5748  030E  083B               	movf	___flmul@prod+1,w
  5749  030F  00AF               	movwf	??___flmul+1
  5750  0310  083C               	movf	___flmul@prod+2,w
  5751  0311  00B0               	movwf	??___flmul+2
  5752  0312  083D               	movf	___flmul@prod+3,w
  5753  0313  00B1               	movwf	??___flmul+3
  5754  0314  3001               	movlw	1
  5755  0315  00B2               	movwf	??___flmul+4
  5756  0316                     u2995:
  5757  0316  0D31               	rlf	??___flmul+3,w
  5758  0317  0CB1               	rrf	??___flmul+3,f
  5759  0318  0CB0               	rrf	??___flmul+2,f
  5760  0319  0CAF               	rrf	??___flmul+1,f
  5761  031A  0CAE               	rrf	??___flmul,f
  5762  031B                     u2990:
  5763  031B  0BB2               	decfsz	??___flmul+4,f
  5764  031C  2B16               	goto	u2995
  5765  031D  0831               	movf	??___flmul+3,w
  5766  031E  00BD               	movwf	___flmul@prod+3
  5767  031F  0830               	movf	??___flmul+2,w
  5768  0320  00BC               	movwf	___flmul@prod+2
  5769  0321  082F               	movf	??___flmul+1,w
  5770  0322  00BB               	movwf	___flmul@prod+1
  5771  0323  082E               	movf	??___flmul,w
  5772  0324  00BA               	movwf	___flmul@prod
  5773  0325                     l2210:
  5774  0325  3001               	movlw	1
  5775  0326  07BE               	addwf	___flmul@temp,f
  5776  0327  1803               	skipnc
  5777  0328  0ABF               	incf	___flmul@temp+1,f
  5778  0329  3000               	movlw	0
  5779  032A  07BF               	addwf	___flmul@temp+1,f
  5780  032B                     l2212:
  5781  032B  083F               	movf	___flmul@temp+1,w
  5782  032C  3A80               	xorlw	128
  5783  032D  00FF               	movwf	btemp+1
  5784  032E  3080               	movlw	128
  5785  032F  027F               	subwf	btemp+1,w
  5786  0330  1D03               	skipz
  5787  0331  2B34               	goto	u3005
  5788  0332  30FF               	movlw	255
  5789  0333  023E               	subwf	___flmul@temp,w
  5790  0334                     u3005:
  5791  0334  1C03               	skipc
  5792  0335  2B37               	goto	u3001
  5793  0336  2B38               	goto	u3000
  5794  0337                     u3001:
  5795  0337  2B43               	goto	l2216
  5796  0338                     u3000:
  5797  0338                     l2214:
  5798  0338  307F               	movlw	127
  5799  0339  1283               	bcf	3,5	;RP0=0, select bank0
  5800  033A  1303               	bcf	3,6	;RP1=0, select bank0
  5801  033B  00BD               	movwf	___flmul@prod+3
  5802  033C  3080               	movlw	128
  5803  033D  00BC               	movwf	___flmul@prod+2
  5804  033E  3000               	movlw	0
  5805  033F  00BB               	movwf	___flmul@prod+1
  5806  0340  3000               	movlw	0
  5807  0341  00BA               	movwf	___flmul@prod
  5808  0342  2B78               	goto	l646
  5809  0343                     l2216:
  5810  0343  1283               	bcf	3,5	;RP0=0, select bank0
  5811  0344  1303               	bcf	3,6	;RP1=0, select bank0
  5812  0345  083F               	movf	___flmul@temp+1,w
  5813  0346  3A80               	xorlw	128
  5814  0347  00FF               	movwf	btemp+1
  5815  0348  3080               	movlw	128
  5816  0349  027F               	subwf	btemp+1,w
  5817  034A  1D03               	skipz
  5818  034B  2B4E               	goto	u3015
  5819  034C  3001               	movlw	1
  5820  034D  023E               	subwf	___flmul@temp,w
  5821  034E                     u3015:
  5822  034E  1803               	skipnc
  5823  034F  2B51               	goto	u3011
  5824  0350  2B52               	goto	u3010
  5825  0351                     u3011:
  5826  0351  2B5E               	goto	l2222
  5827  0352                     u3010:
  5828  0352                     l2218:
  5829  0352  3000               	movlw	0
  5830  0353  1283               	bcf	3,5	;RP0=0, select bank0
  5831  0354  1303               	bcf	3,6	;RP1=0, select bank0
  5832  0355  00BD               	movwf	___flmul@prod+3
  5833  0356  3000               	movlw	0
  5834  0357  00BC               	movwf	___flmul@prod+2
  5835  0358  3000               	movlw	0
  5836  0359  00BB               	movwf	___flmul@prod+1
  5837  035A  3000               	movlw	0
  5838  035B  00BA               	movwf	___flmul@prod
  5839  035C                     l2220:
  5840  035C  01B3               	clrf	___flmul@sign
  5841  035D  2B78               	goto	l646
  5842  035E                     l2222:
  5843  035E  1283               	bcf	3,5	;RP0=0, select bank0
  5844  035F  1303               	bcf	3,6	;RP1=0, select bank0
  5845  0360  083E               	movf	___flmul@temp,w
  5846  0361  00AE               	movwf	??___flmul
  5847  0362  082E               	movf	??___flmul,w
  5848  0363  00B9               	movwf	___flmul@bexp
  5849  0364  30FF               	movlw	255
  5850  0365  05BA               	andwf	___flmul@prod,f
  5851  0366  30FF               	movlw	255
  5852  0367  05BB               	andwf	___flmul@prod+1,f
  5853  0368  307F               	movlw	127
  5854  0369  05BC               	andwf	___flmul@prod+2,f
  5855  036A  3000               	movlw	0
  5856  036B  05BD               	andwf	___flmul@prod+3,f
  5857  036C                     l2224:
  5858  036C  1C39               	btfss	___flmul@bexp,0
  5859  036D  2B6F               	goto	u3021
  5860  036E  2B70               	goto	u3020
  5861  036F                     u3021:
  5862  036F  2B71               	goto	l2228
  5863  0370                     u3020:
  5864  0370                     l2226:
  5865  0370  17BC               	bsf	___flmul@prod+2,7
  5866  0371                     l2228:
  5867  0371  0839               	movf	___flmul@bexp,w
  5868  0372  00AE               	movwf	??___flmul
  5869  0373  1003               	clrc
  5870  0374  0C2E               	rrf	??___flmul,w
  5871  0375  00AF               	movwf	??___flmul+1
  5872  0376  082F               	movf	??___flmul+1,w
  5873  0377  00BD               	movwf	___flmul@prod+3
  5874  0378                     l646:
  5875  0378  0833               	movf	___flmul@sign,w
  5876  0379  00AE               	movwf	??___flmul
  5877  037A  082E               	movf	??___flmul,w
  5878  037B  04BD               	iorwf	___flmul@prod+3,f
  5879  037C                     l2230:
  5880  037C  083D               	movf	___flmul@prod+3,w
  5881  037D  00A9               	movwf	?___flmul+3
  5882  037E  083C               	movf	___flmul@prod+2,w
  5883  037F  00A8               	movwf	?___flmul+2
  5884  0380  083B               	movf	___flmul@prod+1,w
  5885  0381  00A7               	movwf	?___flmul+1
  5886  0382  083A               	movf	___flmul@prod,w
  5887  0383  00A6               	movwf	?___flmul
  5888  0384                     l634:
  5889  0384  0008               	return
  5890  0385                     __end_of___flmul:
  5891                           
  5892                           	psect	text17
  5893  08CA                     __ptext17:	
  5894 ;; *************** function __Umul8_16 *****************
  5895 ;; Defined at:
  5896 ;;		line 4 in file "D:\Program Files\Microchip\xc8\v2.31\pic\sources\c90\common\Umul8_16.c"
  5897 ;; Parameters:    Size  Location     Type
  5898 ;;  multiplier      1    wreg     unsigned char 
  5899 ;;  multiplicand    1    3[COMMON] unsigned char 
  5900 ;; Auto vars:     Size  Location     Type
  5901 ;;  multiplier      1    4[BANK0 ] unsigned char 
  5902 ;;  word_mpld       2    2[BANK0 ] unsigned int 
  5903 ;;  product         2    0[BANK0 ] unsigned int 
  5904 ;; Return value:  Size  Location     Type
  5905 ;;                  2    3[COMMON] unsigned int 
  5906 ;; Registers used:
  5907 ;;		wreg, status,2, status,0
  5908 ;; Tracked objects:
  5909 ;;		On entry : 0/0
  5910 ;;		On exit  : 0/0
  5911 ;;		Unchanged: 0/0
  5912 ;; Data sizes:     COMMON   BANK0   BANK1   BANK3   BANK2
  5913 ;;      Params:         2       0       0       0       0
  5914 ;;      Locals:         0       5       0       0       0
  5915 ;;      Temps:          2       0       0       0       0
  5916 ;;      Totals:         4       5       0       0       0
  5917 ;;Total ram usage:        9 bytes
  5918 ;; Hardware stack levels used:    1
  5919 ;; Hardware stack levels required when called:    1
  5920 ;; This function calls:
  5921 ;;		Nothing
  5922 ;; This function is called by:
  5923 ;;		___flmul
  5924 ;; This function uses a non-reentrant model
  5925 ;;
  5926                           
  5927                           
  5928                           ;psect for function __Umul8_16
  5929  08CA                     __Umul8_16:
  5930                           
  5931                           ;incstack = 0
  5932                           ; Regs used in __Umul8_16: [wreg+status,2+status,0]
  5933                           ;__Umul8_16@multiplier stored from wreg
  5934  08CA  1283               	bcf	3,5	;RP0=0, select bank0
  5935  08CB  1303               	bcf	3,6	;RP1=0, select bank0
  5936  08CC  00A4               	movwf	__Umul8_16@multiplier
  5937  08CD                     l1962:
  5938  08CD  01A0               	clrf	__Umul8_16@product
  5939  08CE  01A1               	clrf	__Umul8_16@product+1
  5940  08CF                     l1964:
  5941  08CF  0873               	movf	__Umul8_16@multiplicand,w
  5942  08D0  00F5               	movwf	??__Umul8_16
  5943  08D1  01F6               	clrf	??__Umul8_16+1
  5944  08D2  0875               	movf	??__Umul8_16,w
  5945  08D3  00A2               	movwf	__Umul8_16@word_mpld
  5946  08D4  0876               	movf	??__Umul8_16+1,w
  5947  08D5  00A3               	movwf	__Umul8_16@word_mpld+1
  5948  08D6                     l1966:
  5949  08D6  1C24               	btfss	__Umul8_16@multiplier,0
  5950  08D7  28D9               	goto	u2381
  5951  08D8  28DA               	goto	u2380
  5952  08D9                     u2381:
  5953  08D9  28E0               	goto	l653
  5954  08DA                     u2380:
  5955  08DA                     l1968:
  5956  08DA  0822               	movf	__Umul8_16@word_mpld,w
  5957  08DB  07A0               	addwf	__Umul8_16@product,f
  5958  08DC  1803               	skipnc
  5959  08DD  0AA1               	incf	__Umul8_16@product+1,f
  5960  08DE  0823               	movf	__Umul8_16@word_mpld+1,w
  5961  08DF  07A1               	addwf	__Umul8_16@product+1,f
  5962  08E0                     l653:
  5963  08E0  3001               	movlw	1
  5964  08E1                     u2395:
  5965  08E1  1003               	clrc
  5966  08E2  0DA2               	rlf	__Umul8_16@word_mpld,f
  5967  08E3  0DA3               	rlf	__Umul8_16@word_mpld+1,f
  5968  08E4  3EFF               	addlw	-1
  5969  08E5  1D03               	skipz
  5970  08E6  28E1               	goto	u2395
  5971  08E7  1003               	clrc
  5972  08E8  0CA4               	rrf	__Umul8_16@multiplier,f
  5973  08E9                     l1970:
  5974  08E9  0824               	movf	__Umul8_16@multiplier,w
  5975  08EA  1D03               	btfss	3,2
  5976  08EB  28ED               	goto	u2401
  5977  08EC  28EE               	goto	u2400
  5978  08ED                     u2401:
  5979  08ED  28D6               	goto	l1966
  5980  08EE                     u2400:
  5981  08EE                     l1972:
  5982  08EE  0821               	movf	__Umul8_16@product+1,w
  5983  08EF  00F4               	movwf	?__Umul8_16+1
  5984  08F0  0820               	movf	__Umul8_16@product,w
  5985  08F1  00F3               	movwf	?__Umul8_16
  5986  08F2                     l655:
  5987  08F2  0008               	return
  5988  08F3                     __end_of__Umul8_16:
  5989                           
  5990                           	psect	text18
  5991  17D3                     __ptext18:	
  5992 ;; *************** function _I2C_Master_RepeatedStart *****************
  5993 ;; Defined at:
  5994 ;;		line 24 in file "./I2Clib.h"
  5995 ;; Parameters:    Size  Location     Type
  5996 ;;		None
  5997 ;; Auto vars:     Size  Location     Type
  5998 ;;		None
  5999 ;; Return value:  Size  Location     Type
  6000 ;;                  1    wreg      void 
  6001 ;; Registers used:
  6002 ;;		wreg, status,2, status,0, pclath, cstack
  6003 ;; Tracked objects:
  6004 ;;		On entry : 0/0
  6005 ;;		On exit  : 0/0
  6006 ;;		Unchanged: 0/0
  6007 ;; Data sizes:     COMMON   BANK0   BANK1   BANK3   BANK2
  6008 ;;      Params:         0       0       0       0       0
  6009 ;;      Locals:         0       0       0       0       0
  6010 ;;      Temps:          0       0       0       0       0
  6011 ;;      Totals:         0       0       0       0       0
  6012 ;;Total ram usage:        0 bytes
  6013 ;; Hardware stack levels used:    1
  6014 ;; Hardware stack levels required when called:    2
  6015 ;; This function calls:
  6016 ;;		_I2C_Master_Wait
  6017 ;; This function is called by:
  6018 ;;		_I2C_WWW
  6019 ;; This function uses a non-reentrant model
  6020 ;;
  6021                           
  6022                           
  6023                           ;psect for function _I2C_Master_RepeatedStart
  6024  17D3                     _I2C_Master_RepeatedStart:
  6025  17D3                     l1992:	
  6026                           ;incstack = 0
  6027                           ; Regs used in _I2C_Master_RepeatedStart: [wreg+status,2+status,0+pclath+cstack]
  6028                           
  6029                           
  6030                           ;./I2Clib.h: 26:     I2C_Master_Wait();
  6031  17D3  160A  118A  27F3  160A  118A  	fcall	_I2C_Master_Wait
  6032  17D8                     l1994:
  6033                           
  6034                           ;./I2Clib.h: 27:     RSEN = 1;
  6035  17D8  1683               	bsf	3,5	;RP0=1, select bank1
  6036  17D9  1303               	bcf	3,6	;RP1=0, select bank1
  6037  17DA  1491               	bsf	17,1	;volatile
  6038  17DB                     l93:
  6039  17DB  0008               	return
  6040  17DC                     __end_of_I2C_Master_RepeatedStart:
  6041                           
  6042                           	psect	text19
  6043  0923                     __ptext19:	
  6044 ;; *************** function _I2C_Master_Read *****************
  6045 ;; Defined at:
  6046 ;;		line 43 in file "./I2Clib.h"
  6047 ;; Parameters:    Size  Location     Type
  6048 ;;  a               2    3[COMMON] unsigned short 
  6049 ;; Auto vars:     Size  Location     Type
  6050 ;;  temp            2    7[COMMON] unsigned short 
  6051 ;; Return value:  Size  Location     Type
  6052 ;;                  2    3[COMMON] unsigned short 
  6053 ;; Registers used:
  6054 ;;		wreg, status,2, status,0, pclath, cstack
  6055 ;; Tracked objects:
  6056 ;;		On entry : 0/0
  6057 ;;		On exit  : 0/0
  6058 ;;		Unchanged: 0/0
  6059 ;; Data sizes:     COMMON   BANK0   BANK1   BANK3   BANK2
  6060 ;;      Params:         2       0       0       0       0
  6061 ;;      Locals:         2       0       0       0       0
  6062 ;;      Temps:          2       0       0       0       0
  6063 ;;      Totals:         6       0       0       0       0
  6064 ;;Total ram usage:        6 bytes
  6065 ;; Hardware stack levels used:    1
  6066 ;; Hardware stack levels required when called:    2
  6067 ;; This function calls:
  6068 ;;		_I2C_Master_Wait
  6069 ;; This function is called by:
  6070 ;;		_I2C_WWW
  6071 ;; This function uses a non-reentrant model
  6072 ;;
  6073                           
  6074                           
  6075                           ;psect for function _I2C_Master_Read
  6076  0923                     _I2C_Master_Read:
  6077  0923                     l2004:	
  6078                           ;incstack = 0
  6079                           ; Regs used in _I2C_Master_Read: [wreg+status,2+status,0+pclath+cstack]
  6080                           
  6081                           
  6082                           ;./I2Clib.h: 43: unsigned short I2C_Master_Read(unsigned short a);./I2Clib.h: 44: {;./I2
      +                          Clib.h: 45:     unsigned short temp;;./I2Clib.h: 46:     I2C_Master_Wait();
  6083  0923  160A  118A  27F3  120A  158A  	fcall	_I2C_Master_Wait
  6084  0928                     l2006:
  6085                           
  6086                           ;./I2Clib.h: 47:     RCEN = 1;
  6087  0928  1683               	bsf	3,5	;RP0=1, select bank1
  6088  0929  1303               	bcf	3,6	;RP1=0, select bank1
  6089  092A  1591               	bsf	17,3	;volatile
  6090                           
  6091                           ;./I2Clib.h: 48:     I2C_Master_Wait();
  6092  092B  160A  118A  27F3  120A  158A  	fcall	_I2C_Master_Wait
  6093  0930                     l105:	
  6094                           ;./I2Clib.h: 49:     while(!SSPIF);
  6095                           
  6096  0930  1283               	bcf	3,5	;RP0=0, select bank0
  6097  0931  1303               	bcf	3,6	;RP1=0, select bank0
  6098  0932  1D8C               	btfss	12,3	;volatile
  6099  0933  2935               	goto	u2441
  6100  0934  2936               	goto	u2440
  6101  0935                     u2441:
  6102  0935  2930               	goto	l105
  6103  0936                     u2440:
  6104  0936                     l2008:
  6105                           
  6106                           ;./I2Clib.h: 50:     temp = SSPBUF;
  6107  0936  0813               	movf	19,w	;volatile
  6108  0937  00F5               	movwf	??_I2C_Master_Read
  6109  0938  01F6               	clrf	??_I2C_Master_Read+1
  6110  0939  0875               	movf	??_I2C_Master_Read,w
  6111  093A  00F7               	movwf	I2C_Master_Read@temp
  6112  093B  0876               	movf	??_I2C_Master_Read+1,w
  6113  093C  00F8               	movwf	I2C_Master_Read@temp+1
  6114  093D                     l2010:
  6115                           
  6116                           ;./I2Clib.h: 51:     I2C_Master_Wait();
  6117  093D  160A  118A  27F3  120A  158A  	fcall	_I2C_Master_Wait
  6118  0942                     l2012:
  6119                           
  6120                           ;./I2Clib.h: 52:     ACKDT = (a)?1:0;
  6121  0942  0873               	movf	I2C_Master_Read@a,w
  6122  0943  0474               	iorwf	I2C_Master_Read@a+1,w
  6123  0944  1D03               	btfss	3,2
  6124  0945  2947               	goto	u2451
  6125  0946  294B               	goto	u2450
  6126  0947                     u2451:
  6127  0947  1683               	bsf	3,5	;RP0=1, select bank1
  6128  0948  1303               	bcf	3,6	;RP1=0, select bank1
  6129  0949  1691               	bsf	17,5	;volatile
  6130  094A  294E               	goto	u2464
  6131  094B                     u2450:
  6132  094B  1683               	bsf	3,5	;RP0=1, select bank1
  6133  094C  1303               	bcf	3,6	;RP1=0, select bank1
  6134  094D  1291               	bcf	17,5	;volatile
  6135  094E                     u2464:
  6136  094E                     l2014:
  6137                           
  6138                           ;./I2Clib.h: 53:     ACKEN = 1;
  6139  094E  1611               	bsf	17,4	;volatile
  6140  094F                     l2016:
  6141                           
  6142                           ;./I2Clib.h: 54:     return temp;
  6143  094F  0878               	movf	I2C_Master_Read@temp+1,w
  6144  0950  00F4               	movwf	?_I2C_Master_Read+1
  6145  0951  0877               	movf	I2C_Master_Read@temp,w
  6146  0952  00F3               	movwf	?_I2C_Master_Read
  6147  0953                     l108:
  6148  0953  0008               	return
  6149  0954                     __end_of_I2C_Master_Read:
  6150                           
  6151                           	psect	text20
  6152  0954                     __ptext20:	
  6153 ;; *************** function _I2C_Master_Init *****************
  6154 ;; Defined at:
  6155 ;;		line 3 in file "./I2Clib.h"
  6156 ;; Parameters:    Size  Location     Type
  6157 ;;  c               4    6[BANK0 ] const unsigned long 
  6158 ;; Auto vars:     Size  Location     Type
  6159 ;;		None
  6160 ;; Return value:  Size  Location     Type
  6161 ;;                  1    wreg      void 
  6162 ;; Registers used:
  6163 ;;		wreg, status,2, status,0, pclath, cstack
  6164 ;; Tracked objects:
  6165 ;;		On entry : 0/0
  6166 ;;		On exit  : 0/0
  6167 ;;		Unchanged: 0/0
  6168 ;; Data sizes:     COMMON   BANK0   BANK1   BANK3   BANK2
  6169 ;;      Params:         0       4       0       0       0
  6170 ;;      Locals:         0       0       0       0       0
  6171 ;;      Temps:          0       4       0       0       0
  6172 ;;      Totals:         0       8       0       0       0
  6173 ;;Total ram usage:        8 bytes
  6174 ;; Hardware stack levels used:    1
  6175 ;; Hardware stack levels required when called:    2
  6176 ;; This function calls:
  6177 ;;		___lldiv
  6178 ;; This function is called by:
  6179 ;;		_main
  6180 ;; This function uses a non-reentrant model
  6181 ;;
  6182                           
  6183                           
  6184                           ;psect for function _I2C_Master_Init
  6185  0954                     _I2C_Master_Init:
  6186  0954                     l2386:	
  6187                           ;incstack = 0
  6188                           ; Regs used in _I2C_Master_Init: [wreg+status,2+status,0+pclath+cstack]
  6189                           
  6190                           
  6191                           ;./I2Clib.h: 3: void I2C_Master_Init(const unsigned long c);./I2Clib.h: 4: {;./I2Clib.h:
      +                           5:     SSPCON = 0b00101000;
  6192  0954  3028               	movlw	40
  6193  0955  1283               	bcf	3,5	;RP0=0, select bank0
  6194  0956  1303               	bcf	3,6	;RP1=0, select bank0
  6195  0957  0094               	movwf	20	;volatile
  6196  0958                     l2388:
  6197                           
  6198                           ;./I2Clib.h: 6:     SSPCON2 = 0;
  6199  0958  1683               	bsf	3,5	;RP0=1, select bank1
  6200  0959  1303               	bcf	3,6	;RP1=0, select bank1
  6201  095A  0191               	clrf	17	;volatile
  6202  095B                     l2390:
  6203                           
  6204                           ;./I2Clib.h: 7:     SSPADD = (4000000/(4*c))-1;
  6205  095B  1283               	bcf	3,5	;RP0=0, select bank0
  6206  095C  1303               	bcf	3,6	;RP1=0, select bank0
  6207  095D  0826               	movf	I2C_Master_Init@c,w
  6208  095E  00AA               	movwf	??_I2C_Master_Init
  6209  095F  0827               	movf	I2C_Master_Init@c+1,w
  6210  0960  00AB               	movwf	??_I2C_Master_Init+1
  6211  0961  0828               	movf	I2C_Master_Init@c+2,w
  6212  0962  00AC               	movwf	??_I2C_Master_Init+2
  6213  0963  0829               	movf	I2C_Master_Init@c+3,w
  6214  0964  00AD               	movwf	??_I2C_Master_Init+3
  6215  0965  3002               	movlw	2
  6216  0966                     u3365:
  6217  0966  1003               	clrc
  6218  0967  0DAA               	rlf	??_I2C_Master_Init,f
  6219  0968  0DAB               	rlf	??_I2C_Master_Init+1,f
  6220  0969  0DAC               	rlf	??_I2C_Master_Init+2,f
  6221  096A  0DAD               	rlf	??_I2C_Master_Init+3,f
  6222  096B                     u3360:
  6223  096B  3EFF               	addlw	-1
  6224  096C  1D03               	skipz
  6225  096D  2966               	goto	u3365
  6226  096E  082D               	movf	??_I2C_Master_Init+3,w
  6227  096F  00F6               	movwf	___lldiv@divisor+3
  6228  0970  082C               	movf	??_I2C_Master_Init+2,w
  6229  0971  00F5               	movwf	___lldiv@divisor+2
  6230  0972  082B               	movf	??_I2C_Master_Init+1,w
  6231  0973  00F4               	movwf	___lldiv@divisor+1
  6232  0974  082A               	movf	??_I2C_Master_Init,w
  6233  0975  00F3               	movwf	___lldiv@divisor
  6234  0976  3000               	movlw	0
  6235  0977  00FA               	movwf	___lldiv@dividend+3
  6236  0978  303D               	movlw	61
  6237  0979  00F9               	movwf	___lldiv@dividend+2
  6238  097A  3009               	movlw	9
  6239  097B  00F8               	movwf	___lldiv@dividend+1
  6240  097C  3000               	movlw	0
  6241  097D  00F7               	movwf	___lldiv@dividend
  6242  097E  120A  158A  2246  120A  158A  	fcall	___lldiv
  6243  0983  0873               	movf	?___lldiv,w
  6244  0984  3EFF               	addlw	255
  6245  0985  1683               	bsf	3,5	;RP0=1, select bank1
  6246  0986  1303               	bcf	3,6	;RP1=0, select bank1
  6247  0987  0093               	movwf	19	;volatile
  6248  0988                     l2392:
  6249                           
  6250                           ;./I2Clib.h: 8:     SSPSTAT = 0x80;
  6251  0988  3080               	movlw	128
  6252  0989  0094               	movwf	20	;volatile
  6253  098A                     l2394:
  6254                           
  6255                           ;./I2Clib.h: 9:     TRISC3 = 1;
  6256  098A  1587               	bsf	7,3	;volatile
  6257  098B                     l2396:
  6258                           
  6259                           ;./I2Clib.h: 10:     TRISC4 = 1;
  6260  098B  1607               	bsf	7,4	;volatile
  6261  098C                     l81:
  6262  098C  0008               	return
  6263  098D                     __end_of_I2C_Master_Init:
  6264                           
  6265                           	psect	text21
  6266  0A46                     __ptext21:	
  6267 ;; *************** function ___lldiv *****************
  6268 ;; Defined at:
  6269 ;;		line 5 in file "D:\Program Files\Microchip\xc8\v2.31\pic\sources\c90\common\__lldiv.c"
  6270 ;; Parameters:    Size  Location     Type
  6271 ;;  divisor         4    3[COMMON] unsigned long 
  6272 ;;  dividend        4    7[COMMON] unsigned long 
  6273 ;; Auto vars:     Size  Location     Type
  6274 ;;  quotient        4    1[BANK0 ] unsigned long 
  6275 ;;  counter         1    5[BANK0 ] unsigned char 
  6276 ;; Return value:  Size  Location     Type
  6277 ;;                  4    3[COMMON] unsigned long 
  6278 ;; Registers used:
  6279 ;;		wreg, status,2, status,0
  6280 ;; Tracked objects:
  6281 ;;		On entry : 0/0
  6282 ;;		On exit  : 0/0
  6283 ;;		Unchanged: 0/0
  6284 ;; Data sizes:     COMMON   BANK0   BANK1   BANK3   BANK2
  6285 ;;      Params:         8       0       0       0       0
  6286 ;;      Locals:         0       5       0       0       0
  6287 ;;      Temps:          0       1       0       0       0
  6288 ;;      Totals:         8       6       0       0       0
  6289 ;;Total ram usage:       14 bytes
  6290 ;; Hardware stack levels used:    1
  6291 ;; Hardware stack levels required when called:    1
  6292 ;; This function calls:
  6293 ;;		Nothing
  6294 ;; This function is called by:
  6295 ;;		_I2C_Master_Init
  6296 ;;		_sprintf
  6297 ;; This function uses a non-reentrant model
  6298 ;;
  6299                           
  6300                           
  6301                           ;psect for function ___lldiv
  6302  0A46                     ___lldiv:
  6303  0A46                     l1724:	
  6304                           ;incstack = 0
  6305                           ; Regs used in ___lldiv: [wreg+status,2+status,0]
  6306                           
  6307  0A46  3000               	movlw	0
  6308  0A47  1283               	bcf	3,5	;RP0=0, select bank0
  6309  0A48  1303               	bcf	3,6	;RP1=0, select bank0
  6310  0A49  00A4               	movwf	___lldiv@quotient+3
  6311  0A4A  3000               	movlw	0
  6312  0A4B  00A3               	movwf	___lldiv@quotient+2
  6313  0A4C  3000               	movlw	0
  6314  0A4D  00A2               	movwf	___lldiv@quotient+1
  6315  0A4E  3000               	movlw	0
  6316  0A4F  00A1               	movwf	___lldiv@quotient
  6317  0A50  0876               	movf	___lldiv@divisor+3,w
  6318  0A51  0475               	iorwf	___lldiv@divisor+2,w
  6319  0A52  0474               	iorwf	___lldiv@divisor+1,w
  6320  0A53  0473               	iorwf	___lldiv@divisor,w
  6321  0A54  1903               	skipnz
  6322  0A55  2A57               	goto	u1791
  6323  0A56  2A58               	goto	u1790
  6324  0A57                     u1791:
  6325  0A57  2AA5               	goto	l1744
  6326  0A58                     u1790:
  6327  0A58                     l1726:
  6328  0A58  01A5               	clrf	___lldiv@counter
  6329  0A59  0AA5               	incf	___lldiv@counter,f
  6330  0A5A  2A68               	goto	l1730
  6331  0A5B                     l1728:
  6332  0A5B  3001               	movlw	1
  6333  0A5C  00A0               	movwf	??___lldiv
  6334  0A5D                     u1805:
  6335  0A5D  1003               	clrc
  6336  0A5E  0DF3               	rlf	___lldiv@divisor,f
  6337  0A5F  0DF4               	rlf	___lldiv@divisor+1,f
  6338  0A60  0DF5               	rlf	___lldiv@divisor+2,f
  6339  0A61  0DF6               	rlf	___lldiv@divisor+3,f
  6340  0A62  0BA0               	decfsz	??___lldiv,f
  6341  0A63  2A5D               	goto	u1805
  6342  0A64  3001               	movlw	1
  6343  0A65  00A0               	movwf	??___lldiv
  6344  0A66  0820               	movf	??___lldiv,w
  6345  0A67  07A5               	addwf	___lldiv@counter,f
  6346  0A68                     l1730:
  6347  0A68  1FF6               	btfss	___lldiv@divisor+3,7
  6348  0A69  2A6B               	goto	u1811
  6349  0A6A  2A6C               	goto	u1810
  6350  0A6B                     u1811:
  6351  0A6B  2A5B               	goto	l1728
  6352  0A6C                     u1810:
  6353  0A6C                     l1732:
  6354  0A6C  3001               	movlw	1
  6355  0A6D  00A0               	movwf	??___lldiv
  6356  0A6E                     u1825:
  6357  0A6E  1003               	clrc
  6358  0A6F  0DA1               	rlf	___lldiv@quotient,f
  6359  0A70  0DA2               	rlf	___lldiv@quotient+1,f
  6360  0A71  0DA3               	rlf	___lldiv@quotient+2,f
  6361  0A72  0DA4               	rlf	___lldiv@quotient+3,f
  6362  0A73  0BA0               	decfsz	??___lldiv,f
  6363  0A74  2A6E               	goto	u1825
  6364  0A75                     l1734:
  6365  0A75  0876               	movf	___lldiv@divisor+3,w
  6366  0A76  027A               	subwf	___lldiv@dividend+3,w
  6367  0A77  1D03               	skipz
  6368  0A78  2A83               	goto	u1835
  6369  0A79  0875               	movf	___lldiv@divisor+2,w
  6370  0A7A  0279               	subwf	___lldiv@dividend+2,w
  6371  0A7B  1D03               	skipz
  6372  0A7C  2A83               	goto	u1835
  6373  0A7D  0874               	movf	___lldiv@divisor+1,w
  6374  0A7E  0278               	subwf	___lldiv@dividend+1,w
  6375  0A7F  1D03               	skipz
  6376  0A80  2A83               	goto	u1835
  6377  0A81  0873               	movf	___lldiv@divisor,w
  6378  0A82  0277               	subwf	___lldiv@dividend,w
  6379  0A83                     u1835:
  6380  0A83  1C03               	skipc
  6381  0A84  2A86               	goto	u1831
  6382  0A85  2A87               	goto	u1830
  6383  0A86                     u1831:
  6384  0A86  2A96               	goto	l1740
  6385  0A87                     u1830:
  6386  0A87                     l1736:
  6387  0A87  0873               	movf	___lldiv@divisor,w
  6388  0A88  02F7               	subwf	___lldiv@dividend,f
  6389  0A89  0874               	movf	___lldiv@divisor+1,w
  6390  0A8A  1C03               	skipc
  6391  0A8B  0F74               	incfsz	___lldiv@divisor+1,w
  6392  0A8C  02F8               	subwf	___lldiv@dividend+1,f
  6393  0A8D  0875               	movf	___lldiv@divisor+2,w
  6394  0A8E  1C03               	skipc
  6395  0A8F  0F75               	incfsz	___lldiv@divisor+2,w
  6396  0A90  02F9               	subwf	___lldiv@dividend+2,f
  6397  0A91  0876               	movf	___lldiv@divisor+3,w
  6398  0A92  1C03               	skipc
  6399  0A93  0F76               	incfsz	___lldiv@divisor+3,w
  6400  0A94  02FA               	subwf	___lldiv@dividend+3,f
  6401  0A95                     l1738:
  6402  0A95  1421               	bsf	___lldiv@quotient,0
  6403  0A96                     l1740:
  6404  0A96  3001               	movlw	1
  6405  0A97                     u1845:
  6406  0A97  1003               	clrc
  6407  0A98  0CF6               	rrf	___lldiv@divisor+3,f
  6408  0A99  0CF5               	rrf	___lldiv@divisor+2,f
  6409  0A9A  0CF4               	rrf	___lldiv@divisor+1,f
  6410  0A9B  0CF3               	rrf	___lldiv@divisor,f
  6411  0A9C  3EFF               	addlw	-1
  6412  0A9D  1D03               	skipz
  6413  0A9E  2A97               	goto	u1845
  6414  0A9F                     l1742:
  6415  0A9F  3001               	movlw	1
  6416  0AA0  02A5               	subwf	___lldiv@counter,f
  6417  0AA1  1D03               	btfss	3,2
  6418  0AA2  2AA4               	goto	u1851
  6419  0AA3  2AA5               	goto	u1850
  6420  0AA4                     u1851:
  6421  0AA4  2A6C               	goto	l1732
  6422  0AA5                     u1850:
  6423  0AA5                     l1744:
  6424  0AA5  0824               	movf	___lldiv@quotient+3,w
  6425  0AA6  00F6               	movwf	?___lldiv+3
  6426  0AA7  0823               	movf	___lldiv@quotient+2,w
  6427  0AA8  00F5               	movwf	?___lldiv+2
  6428  0AA9  0822               	movf	___lldiv@quotient+1,w
  6429  0AAA  00F4               	movwf	?___lldiv+1
  6430  0AAB  0821               	movf	___lldiv@quotient,w
  6431  0AAC  00F3               	movwf	?___lldiv
  6432  0AAD                     l281:
  6433  0AAD  0008               	return
  6434  0AAE                     __end_of___lldiv:
  6435                           
  6436                           	psect	text22
  6437  09E3                     __ptext22:	
  6438 ;; *************** function _I2C_ConfigM *****************
  6439 ;; Defined at:
  6440 ;;		line 57 in file "./I2Clib.h"
  6441 ;; Parameters:    Size  Location     Type
  6442 ;;		None
  6443 ;; Auto vars:     Size  Location     Type
  6444 ;;		None
  6445 ;; Return value:  Size  Location     Type
  6446 ;;                  1    wreg      void 
  6447 ;; Registers used:
  6448 ;;		wreg, status,2, status,0, pclath, cstack
  6449 ;; Tracked objects:
  6450 ;;		On entry : 0/0
  6451 ;;		On exit  : 0/0
  6452 ;;		Unchanged: 0/0
  6453 ;; Data sizes:     COMMON   BANK0   BANK1   BANK3   BANK2
  6454 ;;      Params:         0       0       0       0       0
  6455 ;;      Locals:         0       0       0       0       0
  6456 ;;      Temps:          0       0       0       0       0
  6457 ;;      Totals:         0       0       0       0       0
  6458 ;;Total ram usage:        0 bytes
  6459 ;; Hardware stack levels used:    1
  6460 ;; Hardware stack levels required when called:    3
  6461 ;; This function calls:
  6462 ;;		_I2C_Master_Start
  6463 ;;		_I2C_Master_Stop
  6464 ;;		_I2C_Master_Write
  6465 ;; This function is called by:
  6466 ;;		_main
  6467 ;; This function uses a non-reentrant model
  6468 ;;
  6469                           
  6470                           
  6471                           ;psect for function _I2C_ConfigM
  6472  09E3                     _I2C_ConfigM:
  6473  09E3                     l2398:	
  6474                           ;incstack = 0
  6475                           ; Regs used in _I2C_ConfigM: [wreg+status,2+status,0+pclath+cstack]
  6476                           
  6477                           
  6478                           ;./I2Clib.h: 58:     I2C_Master_Start();
  6479  09E3  160A  118A  27C1  120A  158A  	fcall	_I2C_Master_Start
  6480                           
  6481                           ;./I2Clib.h: 59:     I2C_Master_Write(0xD0);
  6482  09E8  30D0               	movlw	208
  6483  09E9  00F3               	movwf	I2C_Master_Write@d
  6484  09EA  3000               	movlw	0
  6485  09EB  00F4               	movwf	I2C_Master_Write@d+1
  6486  09EC  120A  158A  203E  120A  158A  	fcall	_I2C_Master_Write
  6487                           
  6488                           ;./I2Clib.h: 60:     I2C_Master_Write(0x6B);
  6489  09F1  306B               	movlw	107
  6490  09F2  00F3               	movwf	I2C_Master_Write@d
  6491  09F3  3000               	movlw	0
  6492  09F4  00F4               	movwf	I2C_Master_Write@d+1
  6493  09F5  120A  158A  203E  120A  158A  	fcall	_I2C_Master_Write
  6494                           
  6495                           ;./I2Clib.h: 61:     I2C_Master_Write(0x01);
  6496  09FA  3001               	movlw	1
  6497  09FB  00F3               	movwf	I2C_Master_Write@d
  6498  09FC  3000               	movlw	0
  6499  09FD  00F4               	movwf	I2C_Master_Write@d+1
  6500  09FE  120A  158A  203E  120A  158A  	fcall	_I2C_Master_Write
  6501                           
  6502                           ;./I2Clib.h: 62:     I2C_Master_Stop();
  6503  0A03  160A  118A  27CA  120A  158A  	fcall	_I2C_Master_Stop
  6504                           
  6505                           ;./I2Clib.h: 63:     I2C_Master_Start();
  6506  0A08  160A  118A  27C1  120A  158A  	fcall	_I2C_Master_Start
  6507                           
  6508                           ;./I2Clib.h: 64:     I2C_Master_Write(0xD0);
  6509  0A0D  30D0               	movlw	208
  6510  0A0E  00F3               	movwf	I2C_Master_Write@d
  6511  0A0F  3000               	movlw	0
  6512  0A10  00F4               	movwf	I2C_Master_Write@d+1
  6513  0A11  120A  158A  203E  120A  158A  	fcall	_I2C_Master_Write
  6514                           
  6515                           ;./I2Clib.h: 65:     I2C_Master_Write(0x19);
  6516  0A16  3019               	movlw	25
  6517  0A17  00F3               	movwf	I2C_Master_Write@d
  6518  0A18  3000               	movlw	0
  6519  0A19  00F4               	movwf	I2C_Master_Write@d+1
  6520  0A1A  120A  158A  203E  120A  158A  	fcall	_I2C_Master_Write
  6521                           
  6522                           ;./I2Clib.h: 66:     I2C_Master_Write(0x07);
  6523  0A1F  3007               	movlw	7
  6524  0A20  00F3               	movwf	I2C_Master_Write@d
  6525  0A21  3000               	movlw	0
  6526  0A22  00F4               	movwf	I2C_Master_Write@d+1
  6527  0A23  120A  158A  203E  120A  158A  	fcall	_I2C_Master_Write
  6528                           
  6529                           ;./I2Clib.h: 67:     I2C_Master_Write(0x00);
  6530  0A28  3000               	movlw	0
  6531  0A29  00F3               	movwf	I2C_Master_Write@d
  6532  0A2A  00F4               	movwf	I2C_Master_Write@d+1
  6533  0A2B  120A  158A  203E  120A  158A  	fcall	_I2C_Master_Write
  6534                           
  6535                           ;./I2Clib.h: 68:     I2C_Master_Write(0x00);
  6536  0A30  3000               	movlw	0
  6537  0A31  00F3               	movwf	I2C_Master_Write@d
  6538  0A32  00F4               	movwf	I2C_Master_Write@d+1
  6539  0A33  120A  158A  203E  120A  158A  	fcall	_I2C_Master_Write
  6540                           
  6541                           ;./I2Clib.h: 69:     I2C_Master_Write(0x00);
  6542  0A38  3000               	movlw	0
  6543  0A39  00F3               	movwf	I2C_Master_Write@d
  6544  0A3A  00F4               	movwf	I2C_Master_Write@d+1
  6545  0A3B  120A  158A  203E  120A  158A  	fcall	_I2C_Master_Write
  6546                           
  6547                           ;./I2Clib.h: 70:     I2C_Master_Stop();
  6548  0A40  160A  118A  27CA  120A  158A  	fcall	_I2C_Master_Stop
  6549  0A45                     l111:
  6550  0A45  0008               	return
  6551  0A46                     __end_of_I2C_ConfigM:
  6552                           
  6553                           	psect	text23
  6554  083E                     __ptext23:	
  6555 ;; *************** function _I2C_Master_Write *****************
  6556 ;; Defined at:
  6557 ;;		line 36 in file "./I2Clib.h"
  6558 ;; Parameters:    Size  Location     Type
  6559 ;;  d               2    3[COMMON] unsigned int 
  6560 ;; Auto vars:     Size  Location     Type
  6561 ;;		None
  6562 ;; Return value:  Size  Location     Type
  6563 ;;                  1    wreg      void 
  6564 ;; Registers used:
  6565 ;;		wreg, status,2, status,0, pclath, cstack
  6566 ;; Tracked objects:
  6567 ;;		On entry : 0/0
  6568 ;;		On exit  : 0/0
  6569 ;;		Unchanged: 0/0
  6570 ;; Data sizes:     COMMON   BANK0   BANK1   BANK3   BANK2
  6571 ;;      Params:         2       0       0       0       0
  6572 ;;      Locals:         0       0       0       0       0
  6573 ;;      Temps:          0       0       0       0       0
  6574 ;;      Totals:         2       0       0       0       0
  6575 ;;Total ram usage:        2 bytes
  6576 ;; Hardware stack levels used:    1
  6577 ;; Hardware stack levels required when called:    2
  6578 ;; This function calls:
  6579 ;;		_I2C_Master_Wait
  6580 ;; This function is called by:
  6581 ;;		_I2C_ConfigM
  6582 ;;		_I2C_WWW
  6583 ;; This function uses a non-reentrant model
  6584 ;;
  6585                           
  6586                           
  6587                           ;psect for function _I2C_Master_Write
  6588  083E                     _I2C_Master_Write:
  6589  083E                     l2000:	
  6590                           ;incstack = 0
  6591                           ; Regs used in _I2C_Master_Write: [wreg+status,2+status,0+pclath+cstack]
  6592                           
  6593                           
  6594                           ;./I2Clib.h: 36: void I2C_Master_Write(unsigned d);./I2Clib.h: 37: {;./I2Clib.h: 38:    
      +                           I2C_Master_Wait();
  6595  083E  160A  118A  27F3  120A  158A  	fcall	_I2C_Master_Wait
  6596  0843                     l2002:
  6597                           
  6598                           ;./I2Clib.h: 39:     SSPBUF = d;
  6599  0843  0873               	movf	I2C_Master_Write@d,w
  6600  0844  1283               	bcf	3,5	;RP0=0, select bank0
  6601  0845  1303               	bcf	3,6	;RP1=0, select bank0
  6602  0846  0093               	movwf	19	;volatile
  6603  0847                     l99:	
  6604                           ;./I2Clib.h: 40:     while(!PIR1bits.SSPIF);
  6605                           
  6606  0847  1D8C               	btfss	12,3	;volatile
  6607  0848  284A               	goto	u2431
  6608  0849  284B               	goto	u2430
  6609  084A                     u2431:
  6610  084A  2847               	goto	l99
  6611  084B                     u2430:
  6612  084B                     l102:
  6613  084B  0008               	return
  6614  084C                     __end_of_I2C_Master_Write:
  6615                           
  6616                           	psect	text24
  6617  17CA                     __ptext24:	
  6618 ;; *************** function _I2C_Master_Stop *****************
  6619 ;; Defined at:
  6620 ;;		line 30 in file "./I2Clib.h"
  6621 ;; Parameters:    Size  Location     Type
  6622 ;;		None
  6623 ;; Auto vars:     Size  Location     Type
  6624 ;;		None
  6625 ;; Return value:  Size  Location     Type
  6626 ;;                  1    wreg      void 
  6627 ;; Registers used:
  6628 ;;		wreg, status,2, status,0, pclath, cstack
  6629 ;; Tracked objects:
  6630 ;;		On entry : 0/0
  6631 ;;		On exit  : 0/0
  6632 ;;		Unchanged: 0/0
  6633 ;; Data sizes:     COMMON   BANK0   BANK1   BANK3   BANK2
  6634 ;;      Params:         0       0       0       0       0
  6635 ;;      Locals:         0       0       0       0       0
  6636 ;;      Temps:          0       0       0       0       0
  6637 ;;      Totals:         0       0       0       0       0
  6638 ;;Total ram usage:        0 bytes
  6639 ;; Hardware stack levels used:    1
  6640 ;; Hardware stack levels required when called:    2
  6641 ;; This function calls:
  6642 ;;		_I2C_Master_Wait
  6643 ;; This function is called by:
  6644 ;;		_I2C_ConfigM
  6645 ;;		_I2C_WWW
  6646 ;; This function uses a non-reentrant model
  6647 ;;
  6648                           
  6649                           
  6650                           ;psect for function _I2C_Master_Stop
  6651  17CA                     _I2C_Master_Stop:
  6652  17CA                     l1996:	
  6653                           ;incstack = 0
  6654                           ; Regs used in _I2C_Master_Stop: [wreg+status,2+status,0+pclath+cstack]
  6655                           
  6656                           
  6657                           ;./I2Clib.h: 32:     I2C_Master_Wait();
  6658  17CA  160A  118A  27F3  160A  118A  	fcall	_I2C_Master_Wait
  6659  17CF                     l1998:
  6660                           
  6661                           ;./I2Clib.h: 33:     PEN = 1;
  6662  17CF  1683               	bsf	3,5	;RP0=1, select bank1
  6663  17D0  1303               	bcf	3,6	;RP1=0, select bank1
  6664  17D1  1511               	bsf	17,2	;volatile
  6665  17D2                     l96:
  6666  17D2  0008               	return
  6667  17D3                     __end_of_I2C_Master_Stop:
  6668                           
  6669                           	psect	text25
  6670  17C1                     __ptext25:	
  6671 ;; *************** function _I2C_Master_Start *****************
  6672 ;; Defined at:
  6673 ;;		line 18 in file "./I2Clib.h"
  6674 ;; Parameters:    Size  Location     Type
  6675 ;;		None
  6676 ;; Auto vars:     Size  Location     Type
  6677 ;;		None
  6678 ;; Return value:  Size  Location     Type
  6679 ;;                  1    wreg      void 
  6680 ;; Registers used:
  6681 ;;		wreg, status,2, status,0, pclath, cstack
  6682 ;; Tracked objects:
  6683 ;;		On entry : 0/0
  6684 ;;		On exit  : 0/0
  6685 ;;		Unchanged: 0/0
  6686 ;; Data sizes:     COMMON   BANK0   BANK1   BANK3   BANK2
  6687 ;;      Params:         0       0       0       0       0
  6688 ;;      Locals:         0       0       0       0       0
  6689 ;;      Temps:          0       0       0       0       0
  6690 ;;      Totals:         0       0       0       0       0
  6691 ;;Total ram usage:        0 bytes
  6692 ;; Hardware stack levels used:    1
  6693 ;; Hardware stack levels required when called:    2
  6694 ;; This function calls:
  6695 ;;		_I2C_Master_Wait
  6696 ;; This function is called by:
  6697 ;;		_I2C_ConfigM
  6698 ;;		_I2C_WWW
  6699 ;; This function uses a non-reentrant model
  6700 ;;
  6701                           
  6702                           
  6703                           ;psect for function _I2C_Master_Start
  6704  17C1                     _I2C_Master_Start:
  6705  17C1                     l1988:	
  6706                           ;incstack = 0
  6707                           ; Regs used in _I2C_Master_Start: [wreg+status,2+status,0+pclath+cstack]
  6708                           
  6709                           
  6710                           ;./I2Clib.h: 20:     I2C_Master_Wait();
  6711  17C1  160A  118A  27F3  160A  118A  	fcall	_I2C_Master_Wait
  6712  17C6                     l1990:
  6713                           
  6714                           ;./I2Clib.h: 21:     SEN = 1;
  6715  17C6  1683               	bsf	3,5	;RP0=1, select bank1
  6716  17C7  1303               	bcf	3,6	;RP1=0, select bank1
  6717  17C8  1411               	bsf	17,0	;volatile
  6718  17C9                     l90:
  6719  17C9  0008               	return
  6720  17CA                     __end_of_I2C_Master_Start:
  6721                           
  6722                           	psect	text26
  6723  17F3                     __ptext26:	
  6724 ;; *************** function _I2C_Master_Wait *****************
  6725 ;; Defined at:
  6726 ;;		line 13 in file "./I2Clib.h"
  6727 ;; Parameters:    Size  Location     Type
  6728 ;;		None
  6729 ;; Auto vars:     Size  Location     Type
  6730 ;;		None
  6731 ;; Return value:  Size  Location     Type
  6732 ;;                  1    wreg      void 
  6733 ;; Registers used:
  6734 ;;		wreg, status,2
  6735 ;; Tracked objects:
  6736 ;;		On entry : 0/0
  6737 ;;		On exit  : 0/0
  6738 ;;		Unchanged: 0/0
  6739 ;; Data sizes:     COMMON   BANK0   BANK1   BANK3   BANK2
  6740 ;;      Params:         0       0       0       0       0
  6741 ;;      Locals:         0       0       0       0       0
  6742 ;;      Temps:          0       0       0       0       0
  6743 ;;      Totals:         0       0       0       0       0
  6744 ;;Total ram usage:        0 bytes
  6745 ;; Hardware stack levels used:    1
  6746 ;; Hardware stack levels required when called:    1
  6747 ;; This function calls:
  6748 ;;		Nothing
  6749 ;; This function is called by:
  6750 ;;		_I2C_Master_Start
  6751 ;;		_I2C_Master_RepeatedStart
  6752 ;;		_I2C_Master_Stop
  6753 ;;		_I2C_Master_Write
  6754 ;;		_I2C_Master_Read
  6755 ;; This function uses a non-reentrant model
  6756 ;;
  6757                           
  6758                           
  6759                           ;psect for function _I2C_Master_Wait
  6760  17F3                     _I2C_Master_Wait:
  6761  17F3                     l1706:	
  6762                           ;incstack = 0
  6763                           ; Regs used in _I2C_Master_Wait: [wreg+status,2]
  6764                           
  6765  17F3                     l84:	
  6766                           ;./I2Clib.h: 15:     while ((SSPSTAT & 0x04) || (SSPCON2 & 0x1F));
  6767                           
  6768  17F3  1683               	bsf	3,5	;RP0=1, select bank1
  6769  17F4  1303               	bcf	3,6	;RP1=0, select bank1
  6770  17F5  1914               	btfsc	20,2	;volatile
  6771  17F6  2FF8               	goto	u1731
  6772  17F7  2FF9               	goto	u1730
  6773  17F8                     u1731:
  6774  17F8  2FF3               	goto	l84
  6775  17F9                     u1730:
  6776  17F9                     l1708:
  6777  17F9  0811               	movf	17,w	;volatile
  6778  17FA  391F               	andlw	31
  6779  17FB  1D03               	btfss	3,2
  6780  17FC  2FFE               	goto	u1741
  6781  17FD  2FFF               	goto	u1740
  6782  17FE                     u1741:
  6783  17FE  2FF3               	goto	l84
  6784  17FF                     u1740:
  6785  17FF                     l87:
  6786  17FF  0008               	return
  6787  1800                     __end_of_I2C_Master_Wait:
  6788                           
  6789                           	psect	text27
  6790  084C                     __ptext27:	
  6791 ;; *************** function _ISR *****************
  6792 ;; Defined at:
  6793 ;;		line 98 in file "newmain.c"
  6794 ;; Parameters:    Size  Location     Type
  6795 ;;		None
  6796 ;; Auto vars:     Size  Location     Type
  6797 ;;		None
  6798 ;; Return value:  Size  Location     Type
  6799 ;;                  1    wreg      void 
  6800 ;; Registers used:
  6801 ;;		wreg
  6802 ;; Tracked objects:
  6803 ;;		On entry : 0/0
  6804 ;;		On exit  : 0/0
  6805 ;;		Unchanged: 0/0
  6806 ;; Data sizes:     COMMON   BANK0   BANK1   BANK3   BANK2
  6807 ;;      Params:         0       0       0       0       0
  6808 ;;      Locals:         0       0       0       0       0
  6809 ;;      Temps:          3       0       0       0       0
  6810 ;;      Totals:         3       0       0       0       0
  6811 ;;Total ram usage:        3 bytes
  6812 ;; Hardware stack levels used:    1
  6813 ;; This function calls:
  6814 ;;		Nothing
  6815 ;; This function is called by:
  6816 ;;		Interrupt level 1
  6817 ;; This function uses a non-reentrant model
  6818 ;;
  6819                           
  6820                           
  6821                           ;psect for function _ISR
  6822  084C                     _ISR:
  6823  084C                     i1l2538:
  6824                           
  6825                           ;newmain.c: 99:     if (PIR1bits.RCIF == 1) {
  6826  084C  1283               	bcf	3,5	;RP0=0, select bank0
  6827  084D  1303               	bcf	3,6	;RP1=0, select bank0
  6828  084E  1E8C               	btfss	12,5	;volatile
  6829  084F  2851               	goto	u344_21
  6830  0850  2852               	goto	u344_20
  6831  0851                     u344_21:
  6832  0851  2857               	goto	i1l145
  6833  0852                     u344_20:
  6834  0852                     i1l2540:
  6835                           
  6836                           ;newmain.c: 100:         ledsu=RCREG;
  6837  0852  081A               	movf	26,w	;volatile
  6838  0853  00F0               	movwf	??_ISR
  6839  0854  0870               	movf	??_ISR,w
  6840  0855  00E0               	movwf	_ledsu
  6841  0856                     i1l2542:
  6842                           
  6843                           ;newmain.c: 101:         PIR1bits.RCIF = 0;
  6844  0856  128C               	bcf	12,5	;volatile
  6845  0857                     i1l145:
  6846  0857  0872               	movf	??_ISR+2,w
  6847  0858  008A               	movwf	10
  6848  0859  0E71               	swapf	??_ISR+1,w
  6849  085A  0083               	movwf	3
  6850  085B  0EFE               	swapf	btemp,f
  6851  085C  0E7E               	swapf	btemp,w
  6852  085D  0009               	retfie
  6853  085E                     __end_of_ISR:
  6854  007E                     btemp	set	126	;btemp
  6855  007E                     wtemp0	set	126
  6856                           
  6857                           	psect	intentry
  6858  0004                     __pintentry:	
  6859                           ;incstack = 0
  6860                           ; Regs used in _ISR: [wreg]
  6861                           
  6862  0004                     interrupt_function:
  6863  007E                     saved_w	set	btemp
  6864  0004  00FE               	movwf	btemp
  6865  0005  0E03               	swapf	3,w
  6866  0006  00F1               	movwf	??_ISR+1
  6867  0007  080A               	movf	10,w
  6868  0008  00F2               	movwf	??_ISR+2
  6869  0009  120A  158A  284C   	ljmp	_ISR
  6870                           
  6871                           	psect	config
  6872                           
  6873                           ;Config register CONFIG1 @ 0x2007
  6874                           ;	Oscillator Selection bits
  6875                           ;	FOSC = INTRC_NOCLKOUT, INTOSCIO oscillator: I/O function on RA6/OSC2/CLKOUT pin, I/O f
      +                          unction on RA7/OSC1/CLKIN
  6876                           ;	Watchdog Timer Enable bit
  6877                           ;	WDTE = OFF, WDT disabled and can be enabled by SWDTEN bit of the WDTCON register
  6878                           ;	Power-up Timer Enable bit
  6879                           ;	PWRTE = OFF, PWRT disabled
  6880                           ;	RE3/MCLR pin function select bit
  6881                           ;	MCLRE = OFF, RE3/MCLR pin function is digital input, MCLR internally tied to VDD
  6882                           ;	Code Protection bit
  6883                           ;	CP = OFF, Program memory code protection is disabled
  6884                           ;	Data Code Protection bit
  6885                           ;	CPD = OFF, Data memory code protection is disabled
  6886                           ;	Brown Out Reset Selection bits
  6887                           ;	BOREN = OFF, BOR disabled
  6888                           ;	Internal External Switchover bit
  6889                           ;	IESO = OFF, Internal/External Switchover mode is disabled
  6890                           ;	Fail-Safe Clock Monitor Enabled bit
  6891                           ;	FCMEN = OFF, Fail-Safe Clock Monitor is disabled
  6892                           ;	Low Voltage Programming Enable bit
  6893                           ;	LVP = OFF, RB3 pin has digital I/O, HV on MCLR must be used for programming
  6894                           ;	In-Circuit Debugger Mode bit
  6895                           ;	DEBUG = 0x1, unprogrammed default
  6896  2007                     	org	8199
  6897  2007  20D4               	dw	8404
  6898                           
  6899                           ;Config register CONFIG2 @ 0x2008
  6900                           ;	Brown-out Reset Selection bit
  6901                           ;	BOR4V = BOR40V, Brown-out Reset set to 4.0V
  6902                           ;	Flash Program Memory Self Write Enable bits
  6903                           ;	WRT = OFF, Write protection off
  6904  2008                     	org	8200
  6905  2008  3FFF               	dw	16383

Data Sizes:
    Strings     11
    Constant    40
    Data        0
    BSS         30
    Persistent  0
    Stack       0

Auto Spaces:
    Space          Size  Autos    Used
    COMMON           14     11      11
    BANK0            80     64      77
    BANK1            80      0      17
    BANK3            96      0       0
    BANK2            96      0       0

Pointer List with Targets:

    ftoa@status	PTR int  size(1) Largest target is 2
		 -> main@status(BANK0[2]), 

    sprintf@f	PTR const unsigned char  size(1) Largest target is 11
		 -> STR_1(CODE[11]), 

    sprintf@sp	PTR unsigned char  size(1) Largest target is 17
		 -> ftoa@buf(BANK1[17]), 

    sprintf@ap	PTR void [1] size(1) Largest target is 2
		 -> ?_sprintf(BANK0[2]), 

    ftoa@cp	PTR unsigned char  size(1) Largest target is 17
		 -> ftoa@buf(BANK1[17]), 

    UARTSendString@str	PTR const unsigned char  size(1) Largest target is 17
		 -> ftoa@buf(BANK1[17]), 

    sp__ftoa	PTR unsigned char  size(1) Largest target is 17
		 -> ftoa@buf(BANK1[17]), 

    main@regs	PTR unsigned char  size(1) Largest target is 17
		 -> ftoa@buf(BANK1[17]), 

    I2C_WWW@dato	PTR float  size(1) Largest target is 12
		 -> I2gato(BANK0[12]), 


Critical Paths under _main in COMMON

    _ftoa->___flge
    _ftoa->___xxtofl
    _sprintf->___lldiv
    ___llmod->___lldiv
    ___flsub->___fladd
    ___flsub->___xxtofl
    _UARTSendString->_UARTSendChar
    _I2C_WWW->___xxtofl
    ___flmul->___xxtofl
    _I2C_Master_Init->___lldiv
    _I2C_ConfigM->_I2C_Master_Write

Critical Paths under _ISR in COMMON

    None.

Critical Paths under _main in BANK0

    _main->_ftoa
    _ftoa->___fltol
    _sprintf->___llmod
    ___llmod->___lldiv
    ___fltol->___flmul
    ___flsub->___fladd
    _I2C_WWW->___flmul
    ___flmul->___xxtofl
    _I2C_Master_Init->___lldiv

Critical Paths under _ISR in BANK0

    None.

Critical Paths under _main in BANK1

    None.

Critical Paths under _ISR in BANK1

    None.

Critical Paths under _main in BANK3

    None.

Critical Paths under _ISR in BANK3

    None.

Critical Paths under _main in BANK2

    None.

Critical Paths under _ISR in BANK2

    None.

Call Graph Tables:

 ---------------------------------------------------------------------------------
 (Depth) Function   	        Calls       Base Space   Used Autos Params    Refs
 ---------------------------------------------------------------------------------
 (0) _main                                                 6     6      0   16846
                                             58 BANK0      6     6      0
                        _I2C_ConfigM
                    _I2C_Master_Init
                            _I2C_WWW
                       _UARTSendChar
                     _UARTSendString
                               _ftoa
                              _setup
 ---------------------------------------------------------------------------------
 (1) _setup                                                0     0      0       0
 ---------------------------------------------------------------------------------
 (1) _ftoa                                                15    10      5    9612
                                             43 BANK0     15    10      5
                             ___flge
                            ___flmul
                            ___flneg
                            ___flsub
                            ___fltol
                           ___xxtofl
                            _sprintf
 ---------------------------------------------------------------------------------
 (2) _sprintf                                             34    25      9    2262
                                             16 BANK0     26    17      9
                            ___lldiv
                            ___llmod
                             ___wmul
                            _isdigit
 ---------------------------------------------------------------------------------
 (3) _isdigit                                              2     2      0      68
                                              3 COMMON     2     2      0
 ---------------------------------------------------------------------------------
 (3) ___wmul                                               6     2      4     396
                                              3 COMMON     6     2      4
 ---------------------------------------------------------------------------------
 (3) ___llmod                                             10     2      8     311
                                              6 BANK0     10     2      8
                            ___lldiv (ARG)
 ---------------------------------------------------------------------------------
 (2) ___fltol                                             11     7      4     381
                                             32 BANK0     11     7      4
                            ___flmul (ARG)
 ---------------------------------------------------------------------------------
 (2) ___flsub                                              8     0      8    2333
                                             12 BANK0      8     0      8
                            ___fladd
                           ___xxtofl (ARG)
 ---------------------------------------------------------------------------------
 (3) ___fladd                                             20    12      8    2136
                                              3 COMMON     8     0      8
                                              0 BANK0     12    12      0
 ---------------------------------------------------------------------------------
 (2) ___flneg                                              4     0      4     121
                                              3 COMMON     4     0      4
 ---------------------------------------------------------------------------------
 (2) ___flge                                              12     4      8     334
                                              3 COMMON     8     0      8
                                              0 BANK0      4     4      0
 ---------------------------------------------------------------------------------
 (1) _UARTSendString                                       5     4      1     484
                                              4 COMMON     5     4      1
                       _UARTSendChar
 ---------------------------------------------------------------------------------
 (2) _UARTSendChar                                         1     1      0      22
                                              3 COMMON     1     1      0
 ---------------------------------------------------------------------------------
 (1) _I2C_WWW                                             21    21      0    5095
                                             32 BANK0     21    21      0
                    _I2C_Master_Read
           _I2C_Master_RepeatedStart
                   _I2C_Master_Start
                    _I2C_Master_Stop
                   _I2C_Master_Write
                            ___flmul
                           ___xxtofl
 ---------------------------------------------------------------------------------
 (2) ___xxtofl                                            14    10      4     626
                                              3 COMMON     8     4      4
                                              0 BANK0      6     6      0
 ---------------------------------------------------------------------------------
 (2) ___flmul                                             26    18      8    2873
                                              6 BANK0     26    18      8
                          __Umul8_16
                           ___xxtofl (ARG)
 ---------------------------------------------------------------------------------
 (3) __Umul8_16                                            9     7      2     799
                                              3 COMMON     4     2      2
                                              0 BANK0      5     5      0
 ---------------------------------------------------------------------------------
 (2) _I2C_Master_RepeatedStart                             0     0      0       0
                    _I2C_Master_Wait
 ---------------------------------------------------------------------------------
 (2) _I2C_Master_Read                                      6     4      2     197
                                              3 COMMON     6     4      2
                    _I2C_Master_Wait
 ---------------------------------------------------------------------------------
 (1) _I2C_Master_Init                                      8     4      4     564
                                              6 BANK0      8     4      4
                            ___lldiv
 ---------------------------------------------------------------------------------
 (3) ___lldiv                                             14     6      8     466
                                              3 COMMON     8     0      8
                                              0 BANK0      6     6      0
 ---------------------------------------------------------------------------------
 (1) _I2C_ConfigM                                          0     0      0     934
                   _I2C_Master_Start
                    _I2C_Master_Stop
                   _I2C_Master_Write
 ---------------------------------------------------------------------------------
 (2) _I2C_Master_Write                                     2     0      2     934
                                              3 COMMON     2     0      2
                    _I2C_Master_Wait
 ---------------------------------------------------------------------------------
 (2) _I2C_Master_Stop                                      0     0      0       0
                    _I2C_Master_Wait
 ---------------------------------------------------------------------------------
 (2) _I2C_Master_Start                                     0     0      0       0
                    _I2C_Master_Wait
 ---------------------------------------------------------------------------------
 (3) _I2C_Master_Wait                                      0     0      0       0
 ---------------------------------------------------------------------------------
 Estimated maximum stack depth 3
 ---------------------------------------------------------------------------------
 (Depth) Function   	        Calls       Base Space   Used Autos Params    Refs
 ---------------------------------------------------------------------------------
 (4) _ISR                                                  3     3      0       0
                                              0 COMMON     3     3      0
 ---------------------------------------------------------------------------------
 Estimated maximum stack depth 4
 ---------------------------------------------------------------------------------

 Call Graph Graphs:

 _main (ROOT)
   _I2C_ConfigM
     _I2C_Master_Start
       _I2C_Master_Wait
     _I2C_Master_Stop
       _I2C_Master_Wait
     _I2C_Master_Write
       _I2C_Master_Wait
   _I2C_Master_Init
     ___lldiv
   _I2C_WWW
     _I2C_Master_Read
       _I2C_Master_Wait
     _I2C_Master_RepeatedStart
       _I2C_Master_Wait
     _I2C_Master_Start
       _I2C_Master_Wait
     _I2C_Master_Stop
       _I2C_Master_Wait
     _I2C_Master_Write
       _I2C_Master_Wait
     ___flmul
       __Umul8_16
       ___xxtofl (ARG)
     ___xxtofl
   _UARTSendChar
   _UARTSendString
     _UARTSendChar
   _ftoa
     ___flge
     ___flmul
       __Umul8_16
       ___xxtofl (ARG)
     ___flneg
     ___flsub
       ___fladd
       ___xxtofl (ARG)
     ___fltol
       ___flmul (ARG)
         __Umul8_16
         ___xxtofl (ARG)
     ___xxtofl
     _sprintf
       ___lldiv
       ___llmod
         ___lldiv (ARG)
       ___wmul
       _isdigit
   _setup

 _ISR (ROOT)

 Address spaces:
Name               Size   Autos  Total    Cost      Usage
BITCOMMON            E      0       0       0        0.0%
EEDATA             100      0       0       0        0.0%
NULL                 0      0       0       0        0.0%
CODE                 0      0       0       0        0.0%
COMMON               E      B       B       1       78.6%
BITSFR0              0      0       0       1        0.0%
SFR0                 0      0       0       1        0.0%
BITSFR1              0      0       0       2        0.0%
SFR1                 0      0       0       2        0.0%
STACK                0      0       0       2        0.0%
ABS                  0      0      69       3        0.0%
BITBANK0            50      0       0       4        0.0%
BITSFR3              0      0       0       4        0.0%
SFR3                 0      0       0       4        0.0%
BANK0               50     40      4D       5       96.2%
BITSFR2              0      0       0       5        0.0%
SFR2                 0      0       0       5        0.0%
BITBANK1            50      0       0       6        0.0%
BANK1               50      0      11       7       21.2%
BITBANK3            60      0       0       8        0.0%
BANK3               60      0       0       9        0.0%
BITBANK2            60      0       0      10        0.0%
BANK2               60      0       0      11        0.0%
DATA                 0      0      69      12        0.0%


Microchip Technology PIC Macro Assembler V2.31 build 20201012212115 
Symbol Table                                                                                   Thu Mar 11 00:58:35 2021

                                pc 0002                                 l81 098C  
                               l90 17C9                                 l84 17F3  
                               l93 17DB                                 l87 17FF  
                               l96 17D2                                 l99 0847  
                               fsr 0004                ___wmul@multiplicand 0075  
              __Umul8_16@word_mpld 0022               __size_of_I2C_ConfigM 0063  
                              l102 084B                                l111 0A45  
                              l105 0930                                l108 0953  
                              l118 0749                                l151 17F2  
                              l139 0880                                l148 17E8  
                              l245 08B1                                l422 07D4  
                              l159 0922                                l423 07ED  
                              l431 0B29                                l247 08C9  
                              l281 0AAD                                l441 0B29  
                              l419 0768                                l427 17E6  
                              l701 0CBA                                l542 048F  
                              l438 0B14                                l551 060C  
                              l640 02F0                                l544 0466  
                              l634 0384                                l538 03E8  
                              l730 0E9C                                l563 057E  
                              l467 09E2                                l580 0600  
                              l572 05DE                                l653 08E0  
                              l581 060C                                l646 0378  
                              l655 08F2                                l559 055A  
                              l727 0E76                                l680 0BE5  
                              l584 08A4                                l569 05A0  
                              l754 07FF                                l738 0F46  
                              l691 0BAF                                l692 0BBB  
                              l684 0B93                                l749 0FFF  
                              l678 0B4E                                _PEN 048A  
                              _ISR 084C                                _SEN 0488  
                  __end_of_I2C_WWW 074A                                fsr0 0004  
                              indf 0000                       ___flmul@aexp 0038  
                     ___flmul@bexp 0039                       ___flmul@sign 0033  
                     ___flmul@temp 003E                       ___flmul@prod 003A  
                             ?_ISR 0070                       ___fltol@exp1 004A  
                             l2000 083E                               l2002 0843  
                             l2010 093D                               l2012 0942  
                             l2004 0923                               l2100 0035  
                             l2020 17E8                               l2014 094E  
                             l2006 0928                               l2110 004A  
                             l2102 0036                               l2022 17EE  
                             l2030 0784                               l2016 094F  
                             l2008 0936                               l2120 0062  
                             l2112 0052                               l2104 003B  
                             l2040 07EC                               l2032 0788  
                             l2024 074A                               l2210 0325  
                             l2202 02F5                               l2130 007E  
                             l2122 0067                               l2114 0057  
                             l2106 0040                               l2034 07AC  
                             l2026 0760                               l2220 035C  
                             l2204 02FA                               l2212 032B  
                             l2140 00A1                               l2132 0083  
                             l2124 006C                               l2116 005D  
                             l2108 0048                               l2036 07B0  
                             l2028 077C                               l2044 17DC  
                             l2060 0AD9                               l2052 0AAE  
                             l2300 0E21                               l2230 037C  
                             l2222 035E                               l2214 0338  
                             l2206 0308                               l2150 012F  
                             l2142 00AE                               l2134 0088  
                             l2126 0074                               l2118 0061  
                             l2038 07EA                               l2046 17E4  
                             l2062 0ADA                               l2054 0ABB  
                             l2310 0E5E                               l2302 0E2F  
                             l2224 036C                               l2216 0343  
                             l2208 030C                               l2160 0191  
                             l2152 014B                               l2144 00CB  
                             l2128 0076                               l2240 0B46  
                             l2400 0610                               l2048 17E6  
                             l2064 0AE2                               l2320 0E7D  
                             l2312 0E62                               l2304 0E33  
                             l2226 0370                               l2218 0352  
                             l2170 0221                               l2162 01AE  
                             l2154 0154                               l2146 00E7  
                             l2138 0091                               l2250 0B71  
                             l2242 0B56                               l2234 0B2D  
                             l2410 064B                               l2402 0635  
                             l2090 0885                               l2082 0B09  
                             l2074 0AF0                               l2066 0AE4  
                             l2058 0AC4                               l2330 0EC5  
                             l2322 0EA0                               l2306 0E36  
                             l2314 0E73                               l2228 0371  
                             l2180 02B3                               l2172 024E  
                             l2164 01C7                               l2156 0164  
                             l2148 0113                               l2260 0BA5  
                             l2252 0B78                               l2236 0B32  
                             l2412 0651                               l2084 0B19  
                             l2068 0AE8                               l2076 0B02  
                             l2332 0ECB                               l2324 0EAE  
                             l2316 0E78                               l2308 0E4B  
                             l2500 0CE2                               l2182 02BC  
                             l2190 02D0                               l2174 0274  
                             l2166 01E4                               l2158 0181  
                             l2094 0024                               l2270 0BD8  
                             l2262 0BA9                               l2254 0B7C  
                             l2246 0B5F                               l2238 0B36  
                             l2422 0676                               l2414 065E  
                             l2086 0B1E                               l1710 08A5  
                             l2350 0F27                               l2342 0EDB  
                             l2334 0ED3                               l2326 0EB3  
                             l2430 085E                               l2502 0CF2  
                             l2192 02D4                               l2184 02C0  
                             l2176 029C                               l2168 0211  
                             l2096 002B                               l2272 0BDC  
                             l2264 0BB3                               l2256 0B8A  
                             l2248 0B64                               l2424 0690  
                             l2416 0672                               l2408 0639  
                             l1800 03CB                               l2088 0881  
                             l1720 08C5                               l1712 08A7  
                             l2360 0F63                               l2352 0F2E  
                             l2336 0ED9                               l2328 0EC1  
                             l2280 0DBC                               l2440 0869  
                             l2432 0862                               l2520 0D41  
                             l2504 0CF4                               l2512 0CFD  
                             l1706 17F3                               l1730 0A68  
                             l2194 02D5                               l2186 02C1  
                             l2178 02A5                               l2098 0031  
                             l2274 0BDD                               l2266 0BBD  
                             l2258 0B9A                               l2426 0696  
                             l1802 03D0                               l1810 03E0  
                             l1714 08AB                               l2370 0FD0  
                             l2362 0F69                               l2354 0F3D  
                             l2346 0F12                               l2290 0DE1  
                             l2282 0DC2                               l2450 0870  
                             l2442 086A                               l2434 0864  
                             l2530 0D9F                               l2522 0D60  
                             l2506 0CF7                               l2514 0D13  
                             l1708 17F9                               l1740 0A96  
                             l1732 0A6C                               l1724 0A46  
                             l2196 02D9                               l2188 02CA  
                             l2268 0BD3                               l2428 06A3  
                             l1900 054C                               l1820 03FE  
                             l1812 03EE                               l1804 03D5  
                             l1716 08B8                               l2372 0FD7  
                             l2364 0F70                               l2356 0F53  
                             l2348 0F1C                               l2292 0DE5  
                             l2284 0DC9                               l2460 0BE6  
                             l2452 0872                               l2444 086D  
                             l2436 0865                               l2532 0DA5  
                             l2524 0D70                               l2516 0D31  
                             l2508 0CFA                               l1742 0A9F  
                             l1734 0A75                               l1726 0A58  
                             l2390 095B                               l2198 02ED  
                             l1910 0579                               l1902 0562  
                             l1830 0412                               l1822 0402  
                             l1814 03F2                               l1806 03DD  
                             l1750 0997                               l1718 08BF  
                             l2366 0F74                               l2374 0FDB  
                             l2358 0F5F                               l2294 0DFA  
                             l2286 0DCE                               l2278 0DB7  
                             l2470 0C29                               l2462 0BEC  
                             l2454 0876                               l2446 086E  
                             l2438 0866                               l2526 0D8F  
                             l2518 0D3B                               l1736 0A87  
                             l1728 0A5B                               l1744 0AA5  
                             l2392 0988                               l1920 058C  
                             l1912 057D                               l1904 0567  
                             l1840 0426                               l1832 0416  
                             l1824 0406                               l1816 03F6  
                             l1808 03DE                               l1760 09CB  
                             l1752 099A                               l2368 0F81  
                             l2296 0E0D                               l2288 0DD1  
                             l2376 0FE9                               l2472 0C42  
                             l2464 0C05                               l2456 0878  
                             l2448 086F                               l2528 0D99  
                             l1738 0A95                               l2394 098A  
                             l2386 0954                               l2490 0917  
                             l2482 08F4                               l1930 059D  
                             l1914 0582                               l1922 058E  
                             l1850 044A                               l1842 042A  
                             l1834 041A                               l1826 040A  
                             l1818 03FA                               l1770 038C  
                             l1762 09D4                               l1754 09A7  
                             l2378 0FFB                               l2298 0E11  
                             l2474 0C71                               l2466 0C0E  
                             l2458 087C                               l2396 098B  
                             l2388 0958                               l2484 08F9  
                             l1940 05BC                               l1916 0585  
                             l1908 0570                               l1924 0592  
                             l1860 047A                               l1852 046A  
                             l1844 042E                               l1836 041E  
                             l1828 040E                               l1780 03A1  
                             l1772 0392                               l1756 09AB  
                             l1764 09DA                               l1748 098D  
                             l2476 0C9F                               l2468 0C12  
                             l2492 0CBB                               l2398 09E3  
                             l2486 0904                               l1950 05F5  
                             l1942 05DA                               l1934 05A5  
                             l1926 0593                               l1918 0587  
                             l1862 0483                               l1854 0473  
                             l1838 0422                               l1846 0432  
                             l1790 03B9                               l1782 03A9  
                             l1774 0396                               l1758 09BD  
                             l2478 0CB9                               l2494 0CC9  
                             l2488 090A                               l1960 060B  
                             l1952 05F6                               l1944 05E3  
                             l1936 05AA                               l1928 0597  
                             l1880 04C9                               l1872 04A1  
                             l1856 0475                               l1864 0487  
                             l1848 0433                               l1792 03BF  
                             l1784 03AA                               l1776 0397  
                             l1768 0385                               l2584 0D05  
                             l2496 0CCE                               l1970 08E9  
                             l1962 08CD                               l1954 05FA  
                             l1946 05E8                               l1938 05B8  
                             l1882 04CB                               l1874 04B8  
                             l1866 0493                               l1890 04DE  
                             l1858 0479                               l1794 03C0  
                             l1778 039C                               l1786 03AC  
                             l2586 0E91                               l2498 0CDD  
                             l1972 08EE                               l1964 08CF  
                             l1956 05FC                               l1948 05F0  
                             l1892 04F4                               l1884 04CF  
                             l1876 04BC                               l1868 0498  
                             l1796 03C6                               l1788 03B4  
                             l1980 07F6                               l1990 17C6  
                             l1966 08D6                               l1958 0607  
                             l1894 0532                               l1886 04D0  
                             l1878 04C0                               l1798 03CA  
                             l1982 07FC                               l1992 17D3  
                             l1968 08DA                               l1896 0538  
                             l1888 04D9                               l1984 07FE  
                             l1976 07EF                               l1994 17D8  
                             l1898 053D                               l1978 07F0  
                             l1988 17C1                               l1996 17CA  
                             l1998 17CF                               STR_1 082E  
                             u2000 03F2                               u2001 03F1  
                             u2010 044A                               u2011 0449  
                             u2020 0453                               u2101 04AA  
                             u2021 0451                               u2110 04BC  
                             u2102 04B1                               u2030 0454  
                             u2111 04BB                               u2103 04B8  
                             u2015 0446                               u3000 0338  
                             u2200 0567                               u2120 04C0  
                             u2040 046A                               u3001 0337  
                             u2201 0566                               u2121 04BF  
                             u2041 0469                               u3010 0352  
                             u2130 04CF                               u2050 0479  
                             u3011 0351                               u2131 04CE  
                             u2051 0478                               u3020 0370  
                             u2300 05BC                               u2220 057D  
                             u3021 036F                               u3005 0334  
                             u2301 05BB                               u2221 057C  
                             u3110 0BA9                               u3030 0B32  
                             u2310 05CB                               u2230 0582  
                             u2150 04F4                               u2070 048F  
                             u3015 034E                               u3111 0BA8  
                             u3031 0B31                               u2231 0581  
                             u2215 0572                               u2151 04F3  
                             u2071 048E                               u2400 08EE  
                             u3120 0BAF                               u3040 0B36  
                             u2320 05DA                               u2240 058C  
                             u2080 0493                               u3200 0E2F  
                             u2401 08ED                               u3121 0BAE  
                             u3105 0B9E                               u3041 0B35  
                             u2321 05D9                               u2241 058B  
                             u2161 050B                               u2153 04F0  
                             u2145 04D2                               u2081 0492  
                             u2065 047C                               u3201 0E2E  
                             u3130 0BB3                               u3050 0B56  
                             u2330 05E3                               u2250 0592  
                             u2170 051F                               u2162 050C  
                             u2090 0498                               u2410 07F6  
                             u3210 0E72                               u3131 0BB2  
                             u3051 0B55                               u2331 05E2  
                             u2315 05C6                               u2251 0591  
                             u2171 0520                               u2163 0511  
                             u2091 0497                               u2411 07F5  
                             u3211 0E71                               u3140 0BC8  
                             u2500 0788                               u2340 05E8  
                             u2260 0597                               u2180 053D  
                             u2172 0525                               u2164 0512  
                             u2420 07FC                               u3300 0F53  
                             u3220 0EA0                               u2501 0787  
                             u2341 05E7                               u2261 0596  
                             u2181 053C                               u2173 0526  
                             u2165 0517                               u2421 07FB  
                             u3301 0F52                               u3221 0E9F  
                             u2430 084B                               u3150 0BD8  
                             u3070 0B77                               u2350 05F5  
                             u2270 059D                               u2190 0562  
                             u2166 0518                               u3310 0F69  
                             u3230 0ECB                               u2431 084A  
                             u3151 0BD7                               u3071 0B76  
                             u2511 0797                               u2351 05F4  
                             u2271 059C                               u2191 0561  
                             u3311 0F68                               u3231 0ECA  
                             u2440 0936                               u3160 0BDC  
                             u3400 0917                               u2520 07B0  
                             u2512 0798                               u2360 05FA  
                             u2280 05A4                               u3320 0F80  
                             u3240 0ED3                               u2441 0935  
                             u3161 0BDB                               u3145 0BC3  
                             u3065 0B69                               u3401 0916  
                             u2521 07AF                               u2513 079D  
                             u2361 05F9                               u2281 05A3  
                             u3321 0F7F                               u3305 0F4F  
                             u3241 0ED2                               u1730 17F9  
                             u1810 0A6C                               u2450 094B  
                             u3090 0B99                               u3410 0922  
                             u2514 079E                               u2370 060B  
                             u2290 05AA                               u2610 0B01  
                             u3170 0DC2                               u1731 17F8  
                             u1811 0A6B                               u2451 0947  
                             u3091 0B98                               u3411 0921  
                             u2531 07BF                               u2515 07A3  
                             u2371 060A                               u2291 05A9  
                             u2611 0B00                               u3171 0DC1  
                             u1740 17FF                               u2380 08DA  
                             u2700 0067                               u2540 07EA  
                             u2532 07C0                               u2516 07A4  
                             u2620 0B08                               u3340 0FE9  
                             u3260 0F11                               u3180 0DE1  
                             u3420 0CEE                               u1741 17FE  
                             u1805 0A5D                               u2381 08D9  
                             u2701 0066                               u3085 0B8B  
                             u3405 0913                               u2541 07E9  
                             u2533 07C5                               u2621 0B07  
                             u2605 0AF1                               u3341 0FE8  
                             u3261 0F10                               u3181 0DE0  
                             u3421 0CEA                               u1830 0A87  
                             u2710 006C                               u2470 17EE  
                             u2534 07C6                               u2550 17E4  
                             u1910 09DA                               u1750 08AB  
                             u3350 0FFB                               u3270 0F1C  
                             u3190 0E21                               u1831 0A86  
                             u2711 006B                               u2471 17ED  
                             u2535 07CB                               u2551 17E3  
                             u1911 09D9                               u1751 08AA  
                             u3351 0FFA                               u3335 0F8C  
                             u3271 0F1B                               u3255 0EDE  
                             u3191 0E20                               _PIE1 008C  
                             u3360 096B                               u2464 094E  
                             u2720 0083                               u2536 07CC  
                             u2480 0760                               u1920 0396  
                             u2640 0B19                               u2560 0ABB  
                             u3280 0F27                               u1825 0A6E  
                             u2801 01A0                               u2721 0082  
                             u2545 07E6                               u2481 075F  
                             u1921 0395                               u2641 0B18  
                             u2561 0ABA                               u1905 09CC  
                             u3281 0F26                               u3265 0F0D  
                             u1850 0AA5                               u2802 01A7  
                             u2730 0088                               u3370 065E  
                             u2490 077C                               u1930 039C  
                             u2650 0B1E                               u2570 0AD2  
                             u3290 0F3D                               u3434 0CF1  
                             u1851 0AA4                               u1835 0A83  
                             u2395 08E1                               u2803 01AE  
                             u2731 0087                               u3371 065D  
                             u2491 077B                               u1931 039B  
                             u2651 0B1D                               u2635 0B0B  
                             u3291 0F3C                               u2660 0035  
                             u3380 06A3                               u1940 03A1  
                             u2580 0AE8                               u1860 0997  
                             u1780 08C5                               u1845 0A97  
                             u3365 0966                               u2821 01D6  
                             u2741 00D9                               u2661 0034  
                             u3381 06A2                               u1941 03A0  
                             u2581 0AE7                               u1861 0996  
                             u1781 08C4                               u1765 08B2  
                             u3285 0F23                               u1790 0A58  
                             u2910 02C0                               u2822 01DD  
                             u2742 00E0                               u2670 003B  
                             u1950 03BF                               u2590 0AEF  
                             u3390 0C05                               u1791 0A57  
                             u2911 02BF                               u2831 0203  
                             u2823 01E4                               u2815 01B0  
                             u2751 00F5                               u2743 00E7  
                             u2671 003A                               u3375 065A  
                             u1951 03BE                               u2591 0AEE  
                             u2575 0ACD                               u1775 08B9  
                             u3295 0F39                               u3391 0C04  
                             u2832 020A                               u2752 00FC  
                             u2680 0040                               u1960 03CA  
                             u1880 09AB                               u2905 02B5  
                             u2841 0230                               u2833 0211  
                             u2761 0121                               u2753 0103  
                             u2681 003F                               u3385 069F  
                             u1961 03C9                               u1881 09AA  
                             u3457 0CC3                               u2930 02D4  
                             u2850 025A                               u2842 0237  
                             u2762 0128                               u2690 0061  
                             u1970 03D0                               u1890 09BD  
                             u2931 02D3                               u2843 023E  
                             u2771 013D                               u2763 012F  
                             u2691 0060                               u1971 03CF  
                             u1891 09BC                               u1875 099C  
                             u3467 0DAB                               u2940 02D9  
                             u2772 0144                               u1980 03D5  
                             u2941 02D8                               u2925 02C3  
                             u2861 0266                               u2773 014B  
                             u1981 03D4                               u2950 02ED  
                             u2870 0282                               u2862 026D  
                             u1990 03EE                               u2951 02EC  
                             u2863 0274                               u2855 0255  
                             u2791 0173                               u1991 03ED  
                             u1895 09B9                               u2960 02F4  
                             u2792 017A                               u2961 02F3  
                             u2881 028E                               u2793 0181  
                             u2785 014D                               u2970 02FA  
                             u2882 0295                               u2971 02F9  
                             u2883 029C                               u2875 027D  
                             u2980 030C                               _RCEN 048B  
                             u2981 030B                               u2990 031B  
                             u2895 029E                               u2995 0316  
                             _RSEN 0489   __end_of_I2C_Master_RepeatedStart 17DC  
                             _main 0CBB                               _ftoa 0BE6  
                             btemp 007E                               start 000C  
                            ??_ISR 0070                   ?_I2C_Master_Init 0026  
                 ?_I2C_Master_Read 0073                   ?_I2C_Master_Wait 0070  
                 ?_I2C_Master_Stop 0070                      ___fltol@sign1 0049  
                  __end_of___fladd 060D                              ?_main 0070  
                            _ACKEN 048C                              ?_ftoa 004B  
                            _ACKDT 048D                    __end_of___flneg 17E7  
                  __end_of___flmul 0385                    __end_of___flsub 08A5  
                  __end_of___fltol 0B2A                              _ANSEL 0188  
                  __end_of___lldiv 0AAE                    __end_of___llmod 09E3  
                            i1l145 0857                              _RCREG 001A  
                            _RCSTA 0018                              _SPBRG 0099  
                            _PORTA 0005                              _PORTB 0006  
                            _PORTD 0008                              _TRISA 0085  
                            _TRISB 0086                              _TRISC 0087  
                            _TRISD 0088                              _TRISE 0089  
                            _SSPIF 0063                              _TXREG 0019  
                            _TXSTA 0098                    __end_of_dpowers 082E  
                            _ledsu 0060                    __end_of_isdigit 0800  
                            _setup 085E                              ftoa@f 004B  
                            ftoa@l 0055                              pclath 000A  
                            status 0003                              wtemp0 007E  
                  __end_of_sprintf 1000                    __initialization 000F  
                     __end_of_main 0DB4                       __end_of_ftoa 0CBB  
                        ??_I2C_WWW 0040                             ??_main 005A  
                           ??_ftoa 0050                  ?_I2C_Master_Start 0070  
                ?_I2C_Master_Write 0073                 ??_I2C_Master_Start 0073  
               ??_I2C_Master_Write 0075                   ___llmod@dividend 002A  
                           ?_setup 0070                             _ANSELH 0189  
                           _I2gato 0061                             i1l2540 0852  
                           i1l2542 0856                             i1l2538 084C  
                           _INTCON 000B                             u344_20 0852  
                           u344_21 0851                             _SSPADD 0093  
                           _TRISC3 043B                             _TRISC4 043C  
                           _SSPCON 0014                             _SSPBUF 0013  
                 __end_of___xxtofl 0BE6           _I2C_Master_RepeatedStart 17D3  
                           ___flge 074A                          ??___fladd 0020  
                           ___wmul 08A5                          ??___flneg 0077  
                        ??___flmul 002E                          ??___flsub 007B  
                        ??___fltol 0044                          ??___lldiv 0020  
                        ??___llmod 002E            __size_of_UARTSendString 0030  
                           ftoa@cp 0059                          ??_isdigit 0073  
               __size_of__Umul8_16 0029                             saved_w 007E  
                        ??_sprintf 0039                         ___flge@ff1 0073  
                       ___flge@ff2 0077                       ___xxtofl@arg 0022  
                     ___xxtofl@exp 0021                       ___xxtofl@val 0073  
          __end_of__initialization 0020                         ___flneg@f1 0073  
                       ___fltol@f1 0040                     __pcstackCOMMON 0070  
                    __end_of_setup 0881           UARTSendString@max_length 0074  
                     I2C_WWW@i_187 0053                       sprintf@width 0045  
                          ??_setup 0073                         __pbssBANK0 0060  
                       __pbssBANK1 00A0                  __end_of__Umul8_16 08F3  
                       __pmaintext 0CBB                            ?___flge 0073  
                          ?___wmul 0073                      ??_I2C_ConfigM 0075  
                       __pintentry 0004                            _I2C_WWW 060D  
                        ?___xxtofl 0073                            _SSPCON2 0091  
                          _SSPSTAT 0094                         __stringtab 0800  
                    ?_UARTSendChar 0070                    __size_of___flge 00A4  
                          ___fladd 0385                            ___flneg 17DC  
                          ___flmul 0024                            ___flsub 0881  
                          ___fltol 0AAE                            ___lldiv 0A46  
                  __size_of___wmul 0025                            ___llmod 098D  
                   _UARTSendString 08F3                            __ptext1 085E  
                          __ptext2 0BE6                            __ptext3 0DB4  
                          __ptext4 07EE                            __ptext5 08A5  
                          __ptext6 098D                            __ptext7 0AAE  
                          __ptext8 0881                            __ptext9 0385  
                     __size_of_ISR 0012                            _dpowers 0806  
                          _isdigit 07EE                __end_of_I2C_ConfigM 0A46  
                       ??___xxtofl 0077           __size_of_I2C_Master_Init 0039  
         __size_of_I2C_Master_Read 0031           __size_of_I2C_Master_Wait 000D  
         __size_of_I2C_Master_Stop 0009                            _sprintf 0DB4  
                          clrloop0 17BA               end_of_initialization 0020  
                   ??_UARTSendChar 0073                            ftoa@buf 00A0  
                          ftoa@rem 0051         ??_I2C_Master_RepeatedStart 0073  
        __size_of_I2C_Master_Start 0009          __size_of_I2C_Master_Write 000E  
                  ___lldiv@divisor 0073                    ___lldiv@counter 0025  
           __end_of_UARTSendString 0923                   I2C_Master_Init@c 0026  
                 I2C_Master_Read@a 0073                          _PORTAbits 0005  
                      ___fladd@grs 002B                      ___xxtofl@sign 0020  
                      ___flmul@grs 0034                          _TXSTAbits 0098  
                       main@status 005D                    ?_UARTSendString 0074  
                   __end_of___flge 07EE                        _I2C_ConfigM 09E3  
                   __end_of___wmul 08CA                start_initialization 000F  
                      __end_of_ISR 085E                         ftoa@status 004F  
                         I2C_WWW@d 0044                           I2C_WWW@e 004A  
                         I2C_WWW@i 0050                  ??_I2C_Master_Init 002A  
                ??_I2C_Master_Read 0075                  ??_I2C_Master_Wait 0073  
                ??_I2C_Master_Stop 0073                    ___llmod@divisor 0026  
                  ___llmod@counter 002F                           ??___flge 0020  
                         ??___wmul 0077                          __Umul8_16 08CA  
                         ?_I2C_WWW 0070               __end_of_UARTSendChar 17F3  
                        ___fladd@a 0077                          ___fladd@b 0073  
                        ___flmul@a 002A                          ___flmul@b 0026  
                        ___flsub@a 002C                          ___flsub@b 0030  
                        ___latbits 0002                      __pcstackBANK0 0020  
                __size_of___xxtofl 00BC                        sprintf@flag 003E  
                      I2C_WWW@dato 0052                        sprintf@prec 0047  
                 _I2C_Master_Start 17C1                   _I2C_Master_Write 083E  
                    UARTSendChar@c 0073                           ?___fladd 0073  
                         ?___flneg 0073                           ?___flmul 0026  
                         ?___flsub 002C                           ?___fltol 0040  
                         ?___lldiv 0073                           ?___llmod 0026  
                       ?__Umul8_16 0073                          __pstrings 0800  
                         ?_isdigit 0070                           ?_sprintf 0030  
                   __size_of_setup 0023                  interrupt_function 0004  
                   ___wmul@product 0077                          clear_ram0 17B9  
                  UARTSendString@i 0077                           _PIR1bits 000C  
                 __size_of_I2C_WWW 013D                        __stringbase 0805  
                ___wmul@multiplier 0073                I2C_Master_Read@temp 0077  
                 ??_UARTSendString 0075              __size_of_UARTSendChar 000C  
                      ??__Umul8_16 0075  __size_of_I2C_Master_RepeatedStart 0009  
                 __size_of___fladd 0288                       ?_I2C_ConfigM 0070  
                 __size_of___flneg 000B                   __size_of___flmul 0361  
        ?_I2C_Master_RepeatedStart 0070                   __size_of___flsub 0024  
                 __size_of___fltol 007C                   __size_of___lldiv 0068  
                 __size_of___llmod 0056                 __end_of__stringtab 0806  
                      _isdigit$717 0073                         sprintf@val 0040  
                  _I2C_Master_Init 0954                    _I2C_Master_Read 0923  
                         ___xxtofl 0B2A                    _I2C_Master_Wait 17F3  
                  _I2C_Master_Stop 17CA                   __size_of_isdigit 0012  
                         __ptext10 17DC                           __ptext11 074A  
                         __ptext20 0954                           __ptext12 08F3  
                         __ptext21 0A46                           __ptext13 17E7  
                         __ptext22 09E3                           __ptext14 060D  
                         __ptext23 083E                           __ptext15 0B2A  
                         __ptext24 17CA                           __ptext16 0024  
                         __ptext25 17C1                           __ptext17 08CA  
                         __ptext26 17F3                           __ptext18 17D3  
                         __ptext27 084C                           __ptext19 0923  
                 __size_of_sprintf 024C                       _UARTSendChar 17E7  
                    __size_of_main 00F9                      __size_of_ftoa 00D5  
                         main@regs 005F           __end_of_I2C_Master_Start 17CA  
         __end_of_I2C_Master_Write 084C                           isdigit@c 0074  
                UARTSendString@str 0076                           intlevel1 0000  
                        sprintf@ap 003F                          sprintf@sp 0044  
                 ___lldiv@dividend 0077                          stringcode 0800  
          __end_of_I2C_Master_Init 098D            __end_of_I2C_Master_Read 0954  
          __end_of_I2C_Master_Wait 1800            __end_of_I2C_Master_Stop 17D3  
           __Umul8_16@multiplicand 0073                           sprintf@c 0049  
                         sprintf@f 0030                   ___lldiv@quotient 0021  
                I2C_Master_Write@d 0073                           stringdir 0800  
                         stringtab 0800                      ___fladd@signs 0028  
                     ___fladd@aexp 0029                       ___fladd@bexp 002A  
             __Umul8_16@multiplier 0024                  __Umul8_16@product 0020  
