

Microchip MPLAB XC8 Assembler V2.31 build 20201012212115 
                                                                                               Wed Mar 10 23:51:04 2021

Microchip MPLAB XC8 C Compiler v2.31 (Free license) build 20201012212115 Og1 
     1                           	processor	16F887
     2                           	pagewidth 120
     3                           	opt	flic
     4                           	psect	strings,global,class=STRING,delta=2,noexec
     5                           	psect	cinit,global,class=CODE,merge=1,delta=2
     6                           	psect	bssBANK0,global,class=BANK0,space=1,delta=1,noexec
     7                           	psect	bssBANK1,global,class=BANK1,space=1,delta=1,noexec
     8                           	psect	clrtext,global,class=CODE,delta=2
     9                           	psect	cstackCOMMON,global,class=COMMON,space=1,delta=1,noexec
    10                           	psect	cstackBANK0,global,class=BANK0,space=1,delta=1,noexec
    11                           	psect	maintext,global,class=CODE,split=1,delta=2
    12                           	psect	text1,local,class=CODE,merge=1,delta=2
    13                           	psect	text2,local,class=CODE,merge=1,delta=2,group=3
    14                           	psect	text3,local,class=CODE,merge=1,delta=2,group=1
    15                           	psect	text4,local,class=CODE,merge=1,delta=2,group=3
    16                           	psect	text5,local,class=CODE,merge=1,delta=2,group=2
    17                           	psect	text6,local,class=CODE,merge=1,delta=2,group=2
    18                           	psect	text7,local,class=CODE,merge=1,delta=2,group=2
    19                           	psect	text8,local,class=CODE,merge=1,delta=2,group=2
    20                           	psect	text9,local,class=CODE,merge=1,delta=2,group=2
    21                           	psect	text10,local,class=CODE,merge=1,delta=2,group=2
    22                           	psect	text11,local,class=CODE,merge=1,delta=2,group=2
    23                           	psect	text12,local,class=CODE,merge=1,delta=2
    24                           	psect	text13,local,class=CODE,merge=1,delta=2
    25                           	psect	text14,local,class=CODE,merge=1,delta=2
    26                           	psect	text15,local,class=CODE,merge=1,delta=2,group=2
    27                           	psect	text16,local,class=CODE,merge=1,delta=2,group=2
    28                           	psect	text17,local,class=CODE,merge=1,delta=2,group=2
    29                           	psect	text18,local,class=CODE,merge=1,delta=2
    30                           	psect	text19,local,class=CODE,merge=1,delta=2
    31                           	psect	text20,local,class=CODE,merge=1,delta=2
    32                           	psect	text21,local,class=CODE,merge=1,delta=2,group=2
    33                           	psect	text22,local,class=CODE,merge=1,delta=2
    34                           	psect	text23,local,class=CODE,merge=1,delta=2
    35                           	psect	text24,local,class=CODE,merge=1,delta=2
    36                           	psect	text25,local,class=CODE,merge=1,delta=2
    37                           	psect	text26,local,class=CODE,merge=1,delta=2
    38                           	psect	text27,local,class=CODE,merge=1,delta=2
    39                           	psect	intentry,global,class=CODE,delta=2
    40                           	psect	config,global,abs,ovrld,class=CONFIG,space=4,delta=2,noexec
    41                           	dabs	1,0x7E,2
    42  0000                     
    43                           ; Version 2.20
    44                           ; Generated 12/02/2020 GMT
    45                           ; 
    46                           ; Copyright © 2020, Microchip Technology Inc. and its subsidiaries ("Microchip")
    47                           ; All rights reserved.
    48                           ; 
    49                           ; This software is developed by Microchip Technology Inc. and its subsidiaries ("Microch
      +                          ip").
    50                           ; 
    51                           ; Redistribution and use in source and binary forms, with or without modification, are
    52                           ; permitted provided that the following conditions are met:
    53                           ; 
    54                           ;     1. Redistributions of source code must retain the above copyright notice, this lis
      +                          t of
    55                           ;        conditions and the following disclaimer.
    56                           ; 
    57                           ;     2. Redistributions in binary form must reproduce the above copyright notice, this 
      +                          list
    58                           ;        of conditions and the following disclaimer in the documentation and/or other
    59                           ;        materials provided with the distribution.
    60                           ; 
    61                           ;     3. Microchip's name may not be used to endorse or promote products derived from th
      +                          is
    62                           ;        software without specific prior written permission.
    63                           ; 
    64                           ; THIS SOFTWARE IS PROVIDED BY MICROCHIP "AS IS" AND ANY EXPRESS OR IMPLIED WARRANTIES,
    65                           ; INCLUDING, BUT NOT LIMITED TO, THE IMPLIED WARRANTIES OF MERCHANTABILITY AND FITNESS F
      +                          OR
    66                           ; PURPOSE ARE DISCLAIMED.  IN NO EVENT SHALL MICROCHIP BE LIABLE FOR ANY DIRECT, INDIREC
      +                          T,
    67                           ; INCIDENTAL, SPECIAL, EXEMPLARY, OR CONSEQUENTIAL DAMAGES (INCLUDING BUT NOT LIMITED TO
    68                           ; PROCUREMENT OF SUBSTITUTE GOODS OR SERVICES; LOSS OF USE, DATA OR PROFITS; OR BUSINESS
    69                           ; INTERRUPTION) HOWSOEVER CAUSED AND ON ANY THEORY OF LIABILITY, WHETHER IN CONTRACT, ST
      +                          RICT
    70                           ; LIABILITY, OR TORT (INCLUDING NEGLIGENCE OR OTHERWISE) ARISING IN ANY WAY OUT OF THE U
      +                          SE OF
    71                           ; THIS SOFTWARE, EVEN IF ADVISED OF THE POSSIBILITY OF SUCH DAMAGE.
    72                           ; 
    73                           ; 
    74                           ; Code-generator required, PIC16F887 Definitions
    75                           ; 
    76                           ; SFR Addresses
    77  0000                     	;# 
    78  0001                     	;# 
    79  0002                     	;# 
    80  0003                     	;# 
    81  0004                     	;# 
    82  0005                     	;# 
    83  0006                     	;# 
    84  0007                     	;# 
    85  0008                     	;# 
    86  0009                     	;# 
    87  000A                     	;# 
    88  000B                     	;# 
    89  000C                     	;# 
    90  000D                     	;# 
    91  000E                     	;# 
    92  000E                     	;# 
    93  000F                     	;# 
    94  0010                     	;# 
    95  0011                     	;# 
    96  0012                     	;# 
    97  0013                     	;# 
    98  0014                     	;# 
    99  0015                     	;# 
   100  0015                     	;# 
   101  0016                     	;# 
   102  0017                     	;# 
   103  0018                     	;# 
   104  0019                     	;# 
   105  001A                     	;# 
   106  001B                     	;# 
   107  001B                     	;# 
   108  001C                     	;# 
   109  001D                     	;# 
   110  001E                     	;# 
   111  001F                     	;# 
   112  0081                     	;# 
   113  0085                     	;# 
   114  0086                     	;# 
   115  0087                     	;# 
   116  0088                     	;# 
   117  0089                     	;# 
   118  008C                     	;# 
   119  008D                     	;# 
   120  008E                     	;# 
   121  008F                     	;# 
   122  0090                     	;# 
   123  0091                     	;# 
   124  0092                     	;# 
   125  0093                     	;# 
   126  0093                     	;# 
   127  0093                     	;# 
   128  0094                     	;# 
   129  0095                     	;# 
   130  0096                     	;# 
   131  0097                     	;# 
   132  0098                     	;# 
   133  0099                     	;# 
   134  009A                     	;# 
   135  009B                     	;# 
   136  009C                     	;# 
   137  009D                     	;# 
   138  009E                     	;# 
   139  009F                     	;# 
   140  0105                     	;# 
   141  0107                     	;# 
   142  0108                     	;# 
   143  0109                     	;# 
   144  010C                     	;# 
   145  010C                     	;# 
   146  010D                     	;# 
   147  010E                     	;# 
   148  010F                     	;# 
   149  0185                     	;# 
   150  0187                     	;# 
   151  0188                     	;# 
   152  0189                     	;# 
   153  018C                     	;# 
   154  018D                     	;# 
   155  0000                     	;# 
   156  0001                     	;# 
   157  0002                     	;# 
   158  0003                     	;# 
   159  0004                     	;# 
   160  0005                     	;# 
   161  0006                     	;# 
   162  0007                     	;# 
   163  0008                     	;# 
   164  0009                     	;# 
   165  000A                     	;# 
   166  000B                     	;# 
   167  000C                     	;# 
   168  000D                     	;# 
   169  000E                     	;# 
   170  000E                     	;# 
   171  000F                     	;# 
   172  0010                     	;# 
   173  0011                     	;# 
   174  0012                     	;# 
   175  0013                     	;# 
   176  0014                     	;# 
   177  0015                     	;# 
   178  0015                     	;# 
   179  0016                     	;# 
   180  0017                     	;# 
   181  0018                     	;# 
   182  0019                     	;# 
   183  001A                     	;# 
   184  001B                     	;# 
   185  001B                     	;# 
   186  001C                     	;# 
   187  001D                     	;# 
   188  001E                     	;# 
   189  001F                     	;# 
   190  0081                     	;# 
   191  0085                     	;# 
   192  0086                     	;# 
   193  0087                     	;# 
   194  0088                     	;# 
   195  0089                     	;# 
   196  008C                     	;# 
   197  008D                     	;# 
   198  008E                     	;# 
   199  008F                     	;# 
   200  0090                     	;# 
   201  0091                     	;# 
   202  0092                     	;# 
   203  0093                     	;# 
   204  0093                     	;# 
   205  0093                     	;# 
   206  0094                     	;# 
   207  0095                     	;# 
   208  0096                     	;# 
   209  0097                     	;# 
   210  0098                     	;# 
   211  0099                     	;# 
   212  009A                     	;# 
   213  009B                     	;# 
   214  009C                     	;# 
   215  009D                     	;# 
   216  009E                     	;# 
   217  009F                     	;# 
   218  0105                     	;# 
   219  0107                     	;# 
   220  0108                     	;# 
   221  0109                     	;# 
   222  010C                     	;# 
   223  010C                     	;# 
   224  010D                     	;# 
   225  010E                     	;# 
   226  010F                     	;# 
   227  0185                     	;# 
   228  0187                     	;# 
   229  0188                     	;# 
   230  0189                     	;# 
   231  018C                     	;# 
   232  018D                     	;# 
   233                           
   234                           	psect	strings
   235  0800                     __pstrings:
   236  0800                     stringtab:
   237  0800                     __stringtab:
   238  0800                     stringcode:	
   239                           ;	String table - string pointers are 1 byte each
   240                           
   241  0800                     stringdir:
   242  0800  3008               	movlw	high stringdir
   243  0801  008A               	movwf	10
   244  0802  0804               	movf	4,w
   245  0803  0A84               	incf	4,f
   246  0804  0782               	addwf	2,f
   247  0805                     __stringbase:
   248  0805  3400               	retlw	0
   249  0806                     __end_of__stringtab:
   250  0806                     _dpowers:
   251  0806  3401               	retlw	1
   252  0807  3400               	retlw	0
   253  0808  3400               	retlw	0
   254  0809  3400               	retlw	0
   255  080A  340A               	retlw	10
   256  080B  3400               	retlw	0
   257  080C  3400               	retlw	0
   258  080D  3400               	retlw	0
   259  080E  3464               	retlw	100
   260  080F  3400               	retlw	0
   261  0810  3400               	retlw	0
   262  0811  3400               	retlw	0
   263  0812  34E8               	retlw	232
   264  0813  3403               	retlw	3
   265  0814  3400               	retlw	0
   266  0815  3400               	retlw	0
   267  0816  3410               	retlw	16
   268  0817  3427               	retlw	39
   269  0818  3400               	retlw	0
   270  0819  3400               	retlw	0
   271  081A  34A0               	retlw	160
   272  081B  3486               	retlw	134
   273  081C  3401               	retlw	1
   274  081D  3400               	retlw	0
   275  081E  3440               	retlw	64
   276  081F  3442               	retlw	66
   277  0820  340F               	retlw	15
   278  0821  3400               	retlw	0
   279  0822  3480               	retlw	128
   280  0823  3496               	retlw	150
   281  0824  3498               	retlw	152
   282  0825  3400               	retlw	0
   283  0826  3400               	retlw	0
   284  0827  34E1               	retlw	225
   285  0828  34F5               	retlw	245
   286  0829  3405               	retlw	5
   287  082A  3400               	retlw	0
   288  082B  34CA               	retlw	202
   289  082C  349A               	retlw	154
   290  082D  343B               	retlw	59
   291  082E                     __end_of_dpowers:
   292  0019                     _TXREG	set	25
   293  001A                     _RCREG	set	26
   294  0018                     _RCSTA	set	24
   295  000B                     _INTCON	set	11
   296  0008                     _PORTD	set	8
   297  0005                     _PORTA	set	5
   298  0006                     _PORTB	set	6
   299  000C                     _PIR1bits	set	12
   300  0013                     _SSPBUF	set	19
   301  0014                     _SSPCON	set	20
   302  0063                     _SSPIF	set	99
   303  0098                     _TXSTAbits	set	152
   304  0099                     _SPBRG	set	153
   305  0098                     _TXSTA	set	152
   306  008C                     _PIE1	set	140
   307  0089                     _TRISE	set	137
   308  0088                     _TRISD	set	136
   309  0087                     _TRISC	set	135
   310  0086                     _TRISB	set	134
   311  0085                     _TRISA	set	133
   312  0094                     _SSPSTAT	set	148
   313  0093                     _SSPADD	set	147
   314  0091                     _SSPCON2	set	145
   315  048C                     _ACKEN	set	1164
   316  048D                     _ACKDT	set	1165
   317  048B                     _RCEN	set	1163
   318  048A                     _PEN	set	1162
   319  0489                     _RSEN	set	1161
   320  0488                     _SEN	set	1160
   321  043C                     _TRISC4	set	1084
   322  043B                     _TRISC3	set	1083
   323  0189                     _ANSELH	set	393
   324  0188                     _ANSEL	set	392
   325  082E                     STR_1:
   326  082E  3425               	retlw	37	;'%'
   327  082F  346C               	retlw	108	;'l'
   328  0830  3475               	retlw	117	;'u'
   329  0831  342E               	retlw	46	;'.'
   330  0832  3425               	retlw	37	;'%'
   331  0833  3436               	retlw	54	;'6'
   332  0834  342E               	retlw	46	;'.'
   333  0835  3436               	retlw	54	;'6'
   334  0836  346C               	retlw	108	;'l'
   335  0837  3475               	retlw	117	;'u'
   336  0838  3400               	retlw	0
   337                           
   338                           	psect	cinit
   339  000F                     start_initialization:	
   340                           ; #config settings
   341                           
   342  000F                     __initialization:
   343                           
   344                           ; Clear objects allocated to BANK0
   345  000F  1383               	bcf	3,7	;select IRP bank0
   346  0010  3060               	movlw	low __pbssBANK0
   347  0011  0084               	movwf	4
   348  0012  306D               	movlw	low (__pbssBANK0+13)
   349  0013  160A  118A  27B9  120A  118A  	fcall	clear_ram0
   350                           
   351                           ; Clear objects allocated to BANK1
   352  0018  30A0               	movlw	low __pbssBANK1
   353  0019  0084               	movwf	4
   354  001A  30B1               	movlw	low (__pbssBANK1+17)
   355  001B  160A  118A  27B9  120A  118A  	fcall	clear_ram0
   356  0020                     end_of_initialization:	
   357                           ;End of C runtime variable initialization code
   358                           
   359  0020                     __end_of__initialization:
   360  0020  0183               	clrf	3
   361  0021  120A  158A  2CC8   	ljmp	_main	;jump to C main() function
   362                           
   363                           	psect	bssBANK0
   364  0060                     __pbssBANK0:
   365  0060                     _ledsu:
   366  0060                     	ds	1
   367  0061                     _I2gato:
   368  0061                     	ds	12
   369                           
   370                           	psect	bssBANK1
   371  00A0                     __pbssBANK1:
   372  00A0                     ftoa@buf:
   373  00A0                     	ds	17
   374                           
   375                           	psect	clrtext
   376  17B9                     clear_ram0:	
   377                           ;	Called with FSR containing the base address, and
   378                           ;	W with the last address+1
   379                           
   380  17B9  0064               	clrwdt	;clear the watchdog before getting into this loop
   381  17BA                     clrloop0:
   382  17BA  0180               	clrf	0	;clear RAM location pointed to by FSR
   383  17BB  0A84               	incf	4,f	;increment pointer
   384  17BC  0604               	xorwf	4,w	;XOR with final address
   385  17BD  1903               	btfsc	3,2	;have we reached the end yet?
   386  17BE  3400               	retlw	0	;all done for this memory range, return
   387  17BF  0604               	xorwf	4,w	;XOR again to restore value
   388  17C0  2FBA               	goto	clrloop0	;do the next byte
   389                           
   390                           	psect	cstackCOMMON
   391  0070                     __pcstackCOMMON:
   392  0070                     ?_isdigit:
   393  0070                     ?_setup:	
   394                           ; 1 bit 
   395                           
   396  0070                     ?_UARTSendChar:	
   397                           ; 1 bytes @ 0x0
   398                           
   399  0070                     ?_I2C_Master_Wait:	
   400                           ; 1 bytes @ 0x0
   401                           
   402  0070                     ?_I2C_Master_Start:	
   403                           ; 1 bytes @ 0x0
   404                           
   405  0070                     ?_I2C_Master_RepeatedStart:	
   406                           ; 1 bytes @ 0x0
   407                           
   408  0070                     ?_I2C_Master_Stop:	
   409                           ; 1 bytes @ 0x0
   410                           
   411  0070                     ?_I2C_ConfigM:	
   412                           ; 1 bytes @ 0x0
   413                           
   414  0070                     ?_I2C_WWW:	
   415                           ; 1 bytes @ 0x0
   416                           
   417  0070                     ?_main:	
   418                           ; 1 bytes @ 0x0
   419                           
   420  0070                     ?_ISR:	
   421                           ; 1 bytes @ 0x0
   422                           
   423  0070                     ??_ISR:	
   424                           ; 1 bytes @ 0x0
   425                           
   426                           
   427                           ; 1 bytes @ 0x0
   428  0070                     	ds	3
   429  0073                     ?___flge:
   430  0073                     ??_setup:	
   431                           ; 1 bit 
   432                           
   433  0073                     ??_UARTSendChar:	
   434                           ; 1 bytes @ 0x3
   435                           
   436  0073                     ??_isdigit:	
   437                           ; 1 bytes @ 0x3
   438                           
   439  0073                     ??_I2C_Master_Wait:	
   440                           ; 1 bytes @ 0x3
   441                           
   442  0073                     ??_I2C_Master_Start:	
   443                           ; 1 bytes @ 0x3
   444                           
   445  0073                     ??_I2C_Master_RepeatedStart:	
   446                           ; 1 bytes @ 0x3
   447                           
   448  0073                     ??_I2C_Master_Stop:	
   449                           ; 1 bytes @ 0x3
   450                           
   451  0073                     ?_I2C_Master_Write:	
   452                           ; 1 bytes @ 0x3
   453                           
   454  0073                     ?__Umul8_16:	
   455                           ; 1 bytes @ 0x3
   456                           
   457  0073                     ?_I2C_Master_Read:	
   458                           ; 2 bytes @ 0x3
   459                           
   460  0073                     ?___wmul:	
   461                           ; 2 bytes @ 0x3
   462                           
   463  0073                     ?___lldiv:	
   464                           ; 2 bytes @ 0x3
   465                           
   466  0073                     ?___flneg:	
   467                           ; 4 bytes @ 0x3
   468                           
   469  0073                     ?___fladd:	
   470                           ; 4 bytes @ 0x3
   471                           
   472  0073                     ?___xxtofl:	
   473                           ; 4 bytes @ 0x3
   474                           
   475  0073                     UARTSendChar@c:	
   476                           ; 4 bytes @ 0x3
   477                           
   478  0073                     __Umul8_16@multiplicand:	
   479                           ; 1 bytes @ 0x3
   480                           
   481  0073                     _isdigit$688:	
   482                           ; 1 bytes @ 0x3
   483                           
   484  0073                     I2C_Master_Write@d:	
   485                           ; 1 bytes @ 0x3
   486                           
   487  0073                     I2C_Master_Read@a:	
   488                           ; 2 bytes @ 0x3
   489                           
   490  0073                     ___wmul@multiplier:	
   491                           ; 2 bytes @ 0x3
   492                           
   493  0073                     ___lldiv@divisor:	
   494                           ; 2 bytes @ 0x3
   495                           
   496  0073                     ___flge@ff1:	
   497                           ; 4 bytes @ 0x3
   498                           
   499  0073                     ___flneg@f1:	
   500                           ; 4 bytes @ 0x3
   501                           
   502  0073                     ___fladd@b:	
   503                           ; 4 bytes @ 0x3
   504                           
   505  0073                     ___xxtofl@val:	
   506                           ; 4 bytes @ 0x3
   507                           
   508                           
   509                           ; 4 bytes @ 0x3
   510  0073                     	ds	1
   511  0074                     ?_UARTSendString:
   512  0074                     UARTSendString@max_length:	
   513                           ; 1 bytes @ 0x4
   514                           
   515  0074                     isdigit@c:	
   516                           ; 1 bytes @ 0x4
   517                           
   518                           
   519                           ; 1 bytes @ 0x4
   520  0074                     	ds	1
   521  0075                     ??_UARTSendString:
   522  0075                     ??__Umul8_16:	
   523                           ; 1 bytes @ 0x5
   524                           
   525  0075                     ??_I2C_Master_Write:	
   526                           ; 1 bytes @ 0x5
   527                           
   528  0075                     ??_I2C_Master_Read:	
   529                           ; 1 bytes @ 0x5
   530                           
   531  0075                     ??_I2C_ConfigM:	
   532                           ; 1 bytes @ 0x5
   533                           
   534  0075                     ___wmul@multiplicand:	
   535                           ; 1 bytes @ 0x5
   536                           
   537                           
   538                           ; 2 bytes @ 0x5
   539  0075                     	ds	1
   540  0076                     UARTSendString@str:
   541                           
   542                           ; 1 bytes @ 0x6
   543  0076                     	ds	1
   544  0077                     ??___wmul:
   545  0077                     ??___flneg:	
   546                           ; 1 bytes @ 0x7
   547                           
   548  0077                     ??___xxtofl:	
   549                           ; 1 bytes @ 0x7
   550                           
   551  0077                     I2C_Master_Read@temp:	
   552                           ; 1 bytes @ 0x7
   553                           
   554  0077                     UARTSendString@i:	
   555                           ; 2 bytes @ 0x7
   556                           
   557  0077                     ___wmul@product:	
   558                           ; 2 bytes @ 0x7
   559                           
   560  0077                     ___lldiv@dividend:	
   561                           ; 2 bytes @ 0x7
   562                           
   563  0077                     ___flge@ff2:	
   564                           ; 4 bytes @ 0x7
   565                           
   566  0077                     ___fladd@a:	
   567                           ; 4 bytes @ 0x7
   568                           
   569                           
   570                           ; 4 bytes @ 0x7
   571  0077                     	ds	4
   572  007B                     ??___flsub:
   573                           
   574                           	psect	cstackBANK0
   575  0020                     __pcstackBANK0:	
   576                           ; 1 bytes @ 0xB
   577                           
   578  0020                     ??___lldiv:
   579  0020                     ??___flge:	
   580                           ; 1 bytes @ 0x0
   581                           
   582  0020                     ??___fladd:	
   583                           ; 1 bytes @ 0x0
   584                           
   585  0020                     ___xxtofl@sign:	
   586                           ; 1 bytes @ 0x0
   587                           
   588  0020                     __Umul8_16@product:	
   589                           ; 1 bytes @ 0x0
   590                           
   591                           
   592                           ; 2 bytes @ 0x0
   593  0020                     	ds	1
   594  0021                     ___xxtofl@exp:
   595  0021                     ___lldiv@quotient:	
   596                           ; 1 bytes @ 0x1
   597                           
   598                           
   599                           ; 4 bytes @ 0x1
   600  0021                     	ds	1
   601  0022                     __Umul8_16@word_mpld:
   602  0022                     ___xxtofl@arg:	
   603                           ; 2 bytes @ 0x2
   604                           
   605                           
   606                           ; 4 bytes @ 0x2
   607  0022                     	ds	2
   608  0024                     __Umul8_16@multiplier:
   609                           
   610                           ; 1 bytes @ 0x4
   611  0024                     	ds	1
   612  0025                     ___lldiv@counter:
   613                           
   614                           ; 1 bytes @ 0x5
   615  0025                     	ds	1
   616  0026                     ?_I2C_Master_Init:
   617  0026                     ?___llmod:	
   618                           ; 1 bytes @ 0x6
   619                           
   620  0026                     ?___flmul:	
   621                           ; 4 bytes @ 0x6
   622                           
   623  0026                     I2C_Master_Init@c:	
   624                           ; 4 bytes @ 0x6
   625                           
   626  0026                     ___llmod@divisor:	
   627                           ; 4 bytes @ 0x6
   628                           
   629  0026                     ___flmul@b:	
   630                           ; 4 bytes @ 0x6
   631                           
   632                           
   633                           ; 4 bytes @ 0x6
   634  0026                     	ds	2
   635  0028                     ___fladd@signs:
   636                           
   637                           ; 1 bytes @ 0x8
   638  0028                     	ds	1
   639  0029                     ___fladd@aexp:
   640                           
   641                           ; 1 bytes @ 0x9
   642  0029                     	ds	1
   643  002A                     ??_I2C_Master_Init:
   644  002A                     ___fladd@bexp:	
   645                           ; 1 bytes @ 0xA
   646                           
   647  002A                     ___llmod@dividend:	
   648                           ; 1 bytes @ 0xA
   649                           
   650  002A                     ___flmul@a:	
   651                           ; 4 bytes @ 0xA
   652                           
   653                           
   654                           ; 4 bytes @ 0xA
   655  002A                     	ds	1
   656  002B                     ___fladd@grs:
   657                           
   658                           ; 1 bytes @ 0xB
   659  002B                     	ds	1
   660  002C                     ?___flsub:
   661  002C                     ___flsub@a:	
   662                           ; 4 bytes @ 0xC
   663                           
   664                           
   665                           ; 4 bytes @ 0xC
   666  002C                     	ds	2
   667  002E                     ??___llmod:
   668  002E                     ??___flmul:	
   669                           ; 1 bytes @ 0xE
   670                           
   671                           
   672                           ; 1 bytes @ 0xE
   673  002E                     	ds	1
   674  002F                     ___llmod@counter:
   675                           
   676                           ; 1 bytes @ 0xF
   677  002F                     	ds	1
   678  0030                     ?_sprintf:
   679  0030                     sprintf@f:	
   680                           ; 2 bytes @ 0x10
   681                           
   682  0030                     ___flsub@b:	
   683                           ; 1 bytes @ 0x10
   684                           
   685                           
   686                           ; 4 bytes @ 0x10
   687  0030                     	ds	3
   688  0033                     ___flmul@sign:
   689                           
   690                           ; 1 bytes @ 0x13
   691  0033                     	ds	1
   692  0034                     ___flmul@grs:
   693                           
   694                           ; 4 bytes @ 0x14
   695  0034                     	ds	4
   696  0038                     ___flmul@aexp:
   697                           
   698                           ; 1 bytes @ 0x18
   699  0038                     	ds	1
   700  0039                     ??_sprintf:
   701  0039                     ___flmul@bexp:	
   702                           ; 1 bytes @ 0x19
   703                           
   704                           
   705                           ; 1 bytes @ 0x19
   706  0039                     	ds	1
   707  003A                     ___flmul@prod:
   708                           
   709                           ; 4 bytes @ 0x1A
   710  003A                     	ds	4
   711  003E                     sprintf@flag:
   712  003E                     ___flmul@temp:	
   713                           ; 1 bytes @ 0x1E
   714                           
   715                           
   716                           ; 2 bytes @ 0x1E
   717  003E                     	ds	1
   718  003F                     sprintf@ap:
   719                           
   720                           ; 1 bytes @ 0x1F
   721  003F                     	ds	1
   722  0040                     ??_I2C_WWW:
   723  0040                     ?___fltol:	
   724                           ; 1 bytes @ 0x20
   725                           
   726  0040                     ___fltol@f1:	
   727                           ; 4 bytes @ 0x20
   728                           
   729  0040                     sprintf@val:	
   730                           ; 4 bytes @ 0x20
   731                           
   732                           
   733                           ; 4 bytes @ 0x20
   734  0040                     	ds	4
   735  0044                     ??___fltol:
   736  0044                     sprintf@sp:	
   737                           ; 1 bytes @ 0x24
   738                           
   739  0044                     I2C_WWW@e:	
   740                           ; 1 bytes @ 0x24
   741                           
   742                           
   743                           ; 6 bytes @ 0x24
   744  0044                     	ds	1
   745  0045                     sprintf@width:
   746                           
   747                           ; 2 bytes @ 0x25
   748  0045                     	ds	2
   749  0047                     sprintf@prec:
   750                           
   751                           ; 2 bytes @ 0x27
   752  0047                     	ds	2
   753  0049                     ___fltol@sign1:
   754  0049                     sprintf@c:	
   755                           ; 1 bytes @ 0x29
   756                           
   757                           
   758                           ; 1 bytes @ 0x29
   759  0049                     	ds	1
   760  004A                     ___fltol@exp1:
   761  004A                     I2C_WWW@d:	
   762                           ; 1 bytes @ 0x2A
   763                           
   764                           
   765                           ; 6 bytes @ 0x2A
   766  004A                     	ds	1
   767  004B                     ?_ftoa:
   768  004B                     ftoa@f:	
   769                           ; 1 bytes @ 0x2B
   770                           
   771                           
   772                           ; 4 bytes @ 0x2B
   773  004B                     	ds	4
   774  004F                     ftoa@status:
   775                           
   776                           ; 1 bytes @ 0x2F
   777  004F                     	ds	1
   778  0050                     ??_ftoa:
   779  0050                     I2C_WWW@i:	
   780                           ; 1 bytes @ 0x30
   781                           
   782                           
   783                           ; 2 bytes @ 0x30
   784  0050                     	ds	1
   785  0051                     ftoa@rem:
   786                           
   787                           ; 4 bytes @ 0x31
   788  0051                     	ds	1
   789  0052                     I2C_WWW@dato:
   790                           
   791                           ; 1 bytes @ 0x32
   792  0052                     	ds	1
   793  0053                     I2C_WWW@i_166:
   794                           
   795                           ; 2 bytes @ 0x33
   796  0053                     	ds	2
   797  0055                     ftoa@l:
   798                           
   799                           ; 4 bytes @ 0x35
   800  0055                     	ds	4
   801  0059                     ftoa@cp:
   802                           
   803                           ; 1 bytes @ 0x39
   804  0059                     	ds	1
   805  005A                     ??_main:
   806                           
   807                           ; 1 bytes @ 0x3A
   808  005A                     	ds	3
   809  005D                     main@status:
   810                           
   811                           ; 2 bytes @ 0x3D
   812  005D                     	ds	2
   813  005F                     main@regs:
   814                           
   815                           ; 1 bytes @ 0x3F
   816  005F                     	ds	1
   817                           
   818                           	psect	maintext
   819  0CC8                     __pmaintext:	
   820 ;;
   821 ;;Main: autosize = 0, tempsize = 3, incstack = 0, save=0
   822 ;;
   823 ;; *************** function _main *****************
   824 ;; Defined at:
   825 ;;		line 39 in file "newmain.c"
   826 ;; Parameters:    Size  Location     Type
   827 ;;		None
   828 ;; Auto vars:     Size  Location     Type
   829 ;;  status          2   61[BANK0 ] int 
   830 ;;  regs            1   63[BANK0 ] PTR unsigned char 
   831 ;;		 -> ftoa@buf(17), 
   832 ;; Return value:  Size  Location     Type
   833 ;;                  1    wreg      void 
   834 ;; Registers used:
   835 ;;		wreg, fsr0l, fsr0h, status,2, status,0, btemp+1, pclath, cstack
   836 ;; Tracked objects:
   837 ;;		On entry : B00/0
   838 ;;		On exit  : 0/0
   839 ;;		Unchanged: 0/0
   840 ;; Data sizes:     COMMON   BANK0   BANK1   BANK3   BANK2
   841 ;;      Params:         0       0       0       0       0
   842 ;;      Locals:         0       3       0       0       0
   843 ;;      Temps:          0       3       0       0       0
   844 ;;      Totals:         0       6       0       0       0
   845 ;;Total ram usage:        6 bytes
   846 ;; Hardware stack levels required when called:    4
   847 ;; This function calls:
   848 ;;		_I2C_ConfigM
   849 ;;		_I2C_Master_Init
   850 ;;		_I2C_WWW
   851 ;;		_UARTSendChar
   852 ;;		_UARTSendString
   853 ;;		_ftoa
   854 ;;		_setup
   855 ;; This function is called by:
   856 ;;		Startup code after reset
   857 ;; This function uses a non-reentrant model
   858 ;;
   859                           
   860                           
   861                           ;psect for function _main
   862  0CC8                     _main:
   863  0CC8                     l2486:	
   864                           ;incstack = 0
   865                           ; Regs used in _main: [wreg-fsr0h+status,2+status,0+btemp+1+pclath+cstack]
   866                           
   867                           
   868                           ;newmain.c: 40:     setup();
   869  0CC8  120A  158A  206B  120A  158A  	fcall	_setup
   870                           
   871                           ;newmain.c: 41:     I2C_Master_Init(100000);
   872  0CCD  3000               	movlw	0
   873  0CCE  1283               	bcf	3,5	;RP0=0, select bank0
   874  0CCF  1303               	bcf	3,6	;RP1=0, select bank0
   875  0CD0  00A9               	movwf	I2C_Master_Init@c+3
   876  0CD1  3001               	movlw	1
   877  0CD2  00A8               	movwf	I2C_Master_Init@c+2
   878  0CD3  3086               	movlw	134
   879  0CD4  00A7               	movwf	I2C_Master_Init@c+1
   880  0CD5  30A0               	movlw	160
   881  0CD6  00A6               	movwf	I2C_Master_Init@c
   882  0CD7  120A  158A  2161  120A  158A  	fcall	_I2C_Master_Init
   883  0CDC                     l2488:
   884                           
   885                           ;newmain.c: 42:     _delay((unsigned long)((1000)*(4000000/4000.0)));
   886  0CDC  3006               	movlw	6
   887  0CDD  1283               	bcf	3,5	;RP0=0, select bank0
   888  0CDE  1303               	bcf	3,6	;RP1=0, select bank0
   889  0CDF  00DC               	movwf	??_main+2
   890  0CE0  3013               	movlw	19
   891  0CE1  00DB               	movwf	??_main+1
   892  0CE2  30AD               	movlw	173
   893  0CE3  00DA               	movwf	??_main
   894  0CE4                     u3417:
   895  0CE4  0BDA               	decfsz	??_main,f
   896  0CE5  2CE4               	goto	u3417
   897  0CE6  0BDB               	decfsz	??_main+1,f
   898  0CE7  2CE4               	goto	u3417
   899  0CE8  0BDC               	decfsz	??_main+2,f
   900  0CE9  2CE4               	goto	u3417
   901  0CEA                     l2490:
   902                           
   903                           ;newmain.c: 43:     I2C_ConfigM();
   904  0CEA  120A  158A  21F0  120A  158A  	fcall	_I2C_ConfigM
   905  0CEF  2CFB               	goto	l2502
   906  0CF0                     l2492:
   907                           
   908                           ;newmain.c: 48:                 PORTB=0;
   909  0CF0  0186               	clrf	6	;volatile
   910                           
   911                           ;newmain.c: 49:                 break;
   912  0CF1  2D13               	goto	l2504
   913  0CF2                     l2494:
   914                           
   915                           ;newmain.c: 51:                 PORTB=1;
   916  0CF2  3001               	movlw	1
   917  0CF3  0086               	movwf	6	;volatile
   918                           
   919                           ;newmain.c: 52:                 break;
   920  0CF4  2D13               	goto	l2504
   921  0CF5                     l2496:
   922                           
   923                           ;newmain.c: 54:                 PORTB=2;
   924  0CF5  3002               	movlw	2
   925  0CF6  0086               	movwf	6	;volatile
   926                           
   927                           ;newmain.c: 55:                 break;
   928  0CF7  2D13               	goto	l2504
   929  0CF8                     l2498:
   930                           
   931                           ;newmain.c: 57:                 PORTB=3;
   932  0CF8  3003               	movlw	3
   933  0CF9  0086               	movwf	6	;volatile
   934                           
   935                           ;newmain.c: 58:                 break;
   936  0CFA  2D13               	goto	l2504
   937  0CFB                     l2502:
   938  0CFB  1283               	bcf	3,5	;RP0=0, select bank0
   939  0CFC  1303               	bcf	3,6	;RP1=0, select bank0
   940  0CFD  0860               	movf	_ledsu,w
   941  0CFE  00DA               	movwf	??_main
   942  0CFF  01DB               	clrf	??_main+1
   943                           
   944                           ; Switch on 2 bytes has been partitioned into a top level switch of size 1, and 1 sub-sw
      +                          itches
   945                           ; Switch size 1, requested type "simple"
   946                           ; Number of cases is 1, Range of values is 0 to 0
   947                           ; switch strategies available:
   948                           ; Name         Instructions Cycles
   949                           ; simple_byte            4     3 (average)
   950                           ; direct_byte           11     8 (fixed)
   951                           ; jumptable            260     6 (fixed)
   952                           ;	Chosen strategy is simple_byte
   953  0D00  085B               	movf	??_main+1,w
   954  0D01  3A00               	xorlw	0	; case 0
   955  0D02  1903               	skipnz
   956  0D03  2D05               	goto	l2574
   957  0D04  2D13               	goto	l2504
   958  0D05                     l2574:
   959                           
   960                           ; Switch size 1, requested type "simple"
   961                           ; Number of cases is 4, Range of values is 0 to 3
   962                           ; switch strategies available:
   963                           ; Name         Instructions Cycles
   964                           ; simple_byte           13     7 (average)
   965                           ; direct_byte           20     8 (fixed)
   966                           ; jumptable            260     6 (fixed)
   967                           ;	Chosen strategy is simple_byte
   968  0D05  085A               	movf	??_main,w
   969  0D06  3A00               	xorlw	0	; case 0
   970  0D07  1903               	skipnz
   971  0D08  2CF0               	goto	l2492
   972  0D09  3A01               	xorlw	1	; case 1
   973  0D0A  1903               	skipnz
   974  0D0B  2CF2               	goto	l2494
   975  0D0C  3A03               	xorlw	3	; case 2
   976  0D0D  1903               	skipnz
   977  0D0E  2CF5               	goto	l2496
   978  0D0F  3A01               	xorlw	1	; case 3
   979  0D10  1903               	skipnz
   980  0D11  2CF8               	goto	l2498
   981  0D12  2D13               	goto	l2504
   982  0D13                     l2504:
   983                           
   984                           ;newmain.c: 60:         I2C_WWW(I2gato);
   985  0D13  3061               	movlw	(low (_I2gato| 0))& (0+255)
   986  0D14  120A  118A  260D  120A  158A  	fcall	_I2C_WWW
   987                           
   988                           ;newmain.c: 61:         char *regs;;newmain.c: 62:         int status;;newmain.c: 63:   
      +                                regs=ftoa(I2gato[0],&status);
   989  0D19  1283               	bcf	3,5	;RP0=0, select bank0
   990  0D1A  1303               	bcf	3,6	;RP1=0, select bank0
   991  0D1B  0864               	movf	_I2gato+3,w
   992  0D1C  00CE               	movwf	ftoa@f+3
   993  0D1D  0863               	movf	_I2gato+2,w
   994  0D1E  00CD               	movwf	ftoa@f+2
   995  0D1F  0862               	movf	_I2gato+1,w
   996  0D20  00CC               	movwf	ftoa@f+1
   997  0D21  0861               	movf	_I2gato,w
   998  0D22  00CB               	movwf	ftoa@f
   999  0D23  305D               	movlw	(low (main@status| 0))& (0+255)
  1000  0D24  00DA               	movwf	??_main
  1001  0D25  085A               	movf	??_main,w
  1002  0D26  00CF               	movwf	ftoa@status
  1003  0D27  120A  158A  23F3  120A  158A  	fcall	_ftoa
  1004  0D2C  1283               	bcf	3,5	;RP0=0, select bank0
  1005  0D2D  1303               	bcf	3,6	;RP1=0, select bank0
  1006  0D2E  00DB               	movwf	??_main+1
  1007  0D2F  085B               	movf	??_main+1,w
  1008  0D30  00DF               	movwf	main@regs
  1009  0D31                     l2506:
  1010                           
  1011                           ;newmain.c: 64:         UARTSendString(regs,6);
  1012  0D31  3006               	movlw	6
  1013  0D32  00DA               	movwf	??_main
  1014  0D33  085A               	movf	??_main,w
  1015  0D34  00F4               	movwf	UARTSendString@max_length
  1016  0D35  085F               	movf	main@regs,w
  1017  0D36  120A  158A  2100  120A  158A  	fcall	_UARTSendString
  1018  0D3B                     l2508:
  1019                           
  1020                           ;newmain.c: 65:         UARTSendChar(' ');
  1021  0D3B  3020               	movlw	32
  1022  0D3C  160A  118A  27E7  120A  158A  	fcall	_UARTSendChar
  1023  0D41                     l2510:
  1024                           
  1025                           ;newmain.c: 66:         regs=ftoa(I2gato[1],&status);
  1026  0D41  3004               	movlw	4
  1027  0D42  3E61               	addlw	(low (_I2gato| 0))& (0+255)
  1028  0D43  0084               	movwf	4
  1029  0D44  1383               	bcf	3,7	;select IRP bank0
  1030  0D45  0800               	movf	0,w
  1031  0D46  1283               	bcf	3,5	;RP0=0, select bank0
  1032  0D47  1303               	bcf	3,6	;RP1=0, select bank0
  1033  0D48  00CB               	movwf	ftoa@f
  1034  0D49  0A84               	incf	4,f
  1035  0D4A  0800               	movf	0,w
  1036  0D4B  00CC               	movwf	ftoa@f+1
  1037  0D4C  0A84               	incf	4,f
  1038  0D4D  0800               	movf	0,w
  1039  0D4E  00CD               	movwf	ftoa@f+2
  1040  0D4F  0A84               	incf	4,f
  1041  0D50  0800               	movf	0,w
  1042  0D51  00CE               	movwf	ftoa@f+3
  1043  0D52  305D               	movlw	(low (main@status| 0))& (0+255)
  1044  0D53  00DA               	movwf	??_main
  1045  0D54  085A               	movf	??_main,w
  1046  0D55  00CF               	movwf	ftoa@status
  1047  0D56  120A  158A  23F3  120A  158A  	fcall	_ftoa
  1048  0D5B  1283               	bcf	3,5	;RP0=0, select bank0
  1049  0D5C  1303               	bcf	3,6	;RP1=0, select bank0
  1050  0D5D  00DB               	movwf	??_main+1
  1051  0D5E  085B               	movf	??_main+1,w
  1052  0D5F  00DF               	movwf	main@regs
  1053  0D60                     l2512:
  1054                           
  1055                           ;newmain.c: 67:         UARTSendString(regs,6);
  1056  0D60  3006               	movlw	6
  1057  0D61  00DA               	movwf	??_main
  1058  0D62  085A               	movf	??_main,w
  1059  0D63  00F4               	movwf	UARTSendString@max_length
  1060  0D64  085F               	movf	main@regs,w
  1061  0D65  120A  158A  2100  120A  158A  	fcall	_UARTSendString
  1062                           
  1063                           ;newmain.c: 68:         UARTSendChar(' ');
  1064  0D6A  3020               	movlw	32
  1065  0D6B  160A  118A  27E7  120A  158A  	fcall	_UARTSendChar
  1066  0D70                     l2514:
  1067                           
  1068                           ;newmain.c: 69:         regs=ftoa(I2gato[2],&status);
  1069  0D70  3008               	movlw	8
  1070  0D71  3E61               	addlw	(low (_I2gato| 0))& (0+255)
  1071  0D72  0084               	movwf	4
  1072  0D73  1383               	bcf	3,7	;select IRP bank0
  1073  0D74  0800               	movf	0,w
  1074  0D75  1283               	bcf	3,5	;RP0=0, select bank0
  1075  0D76  1303               	bcf	3,6	;RP1=0, select bank0
  1076  0D77  00CB               	movwf	ftoa@f
  1077  0D78  0A84               	incf	4,f
  1078  0D79  0800               	movf	0,w
  1079  0D7A  00CC               	movwf	ftoa@f+1
  1080  0D7B  0A84               	incf	4,f
  1081  0D7C  0800               	movf	0,w
  1082  0D7D  00CD               	movwf	ftoa@f+2
  1083  0D7E  0A84               	incf	4,f
  1084  0D7F  0800               	movf	0,w
  1085  0D80  00CE               	movwf	ftoa@f+3
  1086  0D81  305D               	movlw	(low (main@status| 0))& (0+255)
  1087  0D82  00DA               	movwf	??_main
  1088  0D83  085A               	movf	??_main,w
  1089  0D84  00CF               	movwf	ftoa@status
  1090  0D85  120A  158A  23F3  120A  158A  	fcall	_ftoa
  1091  0D8A  1283               	bcf	3,5	;RP0=0, select bank0
  1092  0D8B  1303               	bcf	3,6	;RP1=0, select bank0
  1093  0D8C  00DB               	movwf	??_main+1
  1094  0D8D  085B               	movf	??_main+1,w
  1095  0D8E  00DF               	movwf	main@regs
  1096  0D8F                     l2516:
  1097                           
  1098                           ;newmain.c: 70:         UARTSendString(regs,6);
  1099  0D8F  3006               	movlw	6
  1100  0D90  00DA               	movwf	??_main
  1101  0D91  085A               	movf	??_main,w
  1102  0D92  00F4               	movwf	UARTSendString@max_length
  1103  0D93  085F               	movf	main@regs,w
  1104  0D94  120A  158A  2100  120A  158A  	fcall	_UARTSendString
  1105  0D99                     l2518:
  1106                           
  1107                           ;newmain.c: 71:         UARTSendChar(' ');
  1108  0D99  3020               	movlw	32
  1109  0D9A  160A  118A  27E7  120A  158A  	fcall	_UARTSendChar
  1110  0D9F                     l2520:
  1111                           
  1112                           ;newmain.c: 72:         UARTSendChar('\n');
  1113  0D9F  300A               	movlw	10
  1114  0DA0  160A  118A  27E7  120A  158A  	fcall	_UARTSendChar
  1115  0DA5                     l2522:
  1116                           
  1117                           ;newmain.c: 73:         _delay((unsigned long)((5)*(4000000/4000.0)));
  1118  0DA5  3007               	movlw	7
  1119  0DA6  1283               	bcf	3,5	;RP0=0, select bank0
  1120  0DA7  1303               	bcf	3,6	;RP1=0, select bank0
  1121  0DA8  00DB               	movwf	??_main+1
  1122  0DA9  307C               	movlw	124
  1123  0DAA  00DA               	movwf	??_main
  1124  0DAB                     u3427:
  1125  0DAB  0BDA               	decfsz	??_main,f
  1126  0DAC  2DAB               	goto	u3427
  1127  0DAD  0BDB               	decfsz	??_main+1,f
  1128  0DAE  2DAB               	goto	u3427
  1129  0DAF  0000               	nop
  1130  0DB0  2CFB               	goto	l2502
  1131  0DB1  120A  118A  280C   	ljmp	start
  1132  0DB4                     __end_of_main:
  1133                           
  1134                           	psect	text1
  1135  086B                     __ptext1:	
  1136 ;; *************** function _setup *****************
  1137 ;; Defined at:
  1138 ;;		line 78 in file "newmain.c"
  1139 ;; Parameters:    Size  Location     Type
  1140 ;;		None
  1141 ;; Auto vars:     Size  Location     Type
  1142 ;;		None
  1143 ;; Return value:  Size  Location     Type
  1144 ;;                  1    wreg      void 
  1145 ;; Registers used:
  1146 ;;		wreg, status,2
  1147 ;; Tracked objects:
  1148 ;;		On entry : 0/0
  1149 ;;		On exit  : 0/0
  1150 ;;		Unchanged: 0/0
  1151 ;; Data sizes:     COMMON   BANK0   BANK1   BANK3   BANK2
  1152 ;;      Params:         0       0       0       0       0
  1153 ;;      Locals:         0       0       0       0       0
  1154 ;;      Temps:          0       0       0       0       0
  1155 ;;      Totals:         0       0       0       0       0
  1156 ;;Total ram usage:        0 bytes
  1157 ;; Hardware stack levels used:    1
  1158 ;; Hardware stack levels required when called:    1
  1159 ;; This function calls:
  1160 ;;		Nothing
  1161 ;; This function is called by:
  1162 ;;		_main
  1163 ;; This function uses a non-reentrant model
  1164 ;;
  1165                           
  1166                           
  1167                           ;psect for function _setup
  1168  086B                     _setup:
  1169  086B                     l2424:	
  1170                           ;incstack = 0
  1171                           ; Regs used in _setup: [wreg+status,2]
  1172                           
  1173                           
  1174                           ;newmain.c: 79:     TRISA = 0b00000000;
  1175  086B  1683               	bsf	3,5	;RP0=1, select bank1
  1176  086C  1303               	bcf	3,6	;RP1=0, select bank1
  1177  086D  0185               	clrf	5	;volatile
  1178                           
  1179                           ;newmain.c: 80:     TRISB = 0b00000000;
  1180  086E  0186               	clrf	6	;volatile
  1181  086F                     l2426:
  1182                           
  1183                           ;newmain.c: 81:     TRISC = 0b11011000;
  1184  086F  30D8               	movlw	216
  1185  0870  0087               	movwf	7	;volatile
  1186  0871                     l2428:
  1187                           
  1188                           ;newmain.c: 82:     TRISD = 0b00000000;
  1189  0871  0188               	clrf	8	;volatile
  1190  0872                     l2430:
  1191                           
  1192                           ;newmain.c: 83:     TRISE = 0b00000000;
  1193  0872  0189               	clrf	9	;volatile
  1194  0873                     l2432:
  1195                           
  1196                           ;newmain.c: 84:     ANSEL = 0b00000000;
  1197  0873  1683               	bsf	3,5	;RP0=1, select bank3
  1198  0874  1703               	bsf	3,6	;RP1=1, select bank3
  1199  0875  0188               	clrf	8	;volatile
  1200  0876                     l2434:
  1201                           
  1202                           ;newmain.c: 85:     ANSELH = 0b00000000;
  1203  0876  0189               	clrf	9	;volatile
  1204  0877                     l2436:
  1205                           
  1206                           ;newmain.c: 86:     PORTA = 0b00000000;
  1207  0877  1283               	bcf	3,5	;RP0=0, select bank0
  1208  0878  1303               	bcf	3,6	;RP1=0, select bank0
  1209  0879  0185               	clrf	5	;volatile
  1210  087A                     l2438:
  1211                           
  1212                           ;newmain.c: 87:     PORTB = 0b00000000;
  1213  087A  0186               	clrf	6	;volatile
  1214  087B                     l2440:
  1215                           
  1216                           ;newmain.c: 88:     PORTD = 0b00000000;
  1217  087B  0188               	clrf	8	;volatile
  1218  087C                     l2442:
  1219                           
  1220                           ;newmain.c: 89:     ledsu = 0;
  1221  087C  01E0               	clrf	_ledsu
  1222  087D                     l2444:
  1223                           
  1224                           ;newmain.c: 90:     INTCON = 0b11000000;
  1225  087D  30C0               	movlw	192
  1226  087E  008B               	movwf	11	;volatile
  1227  087F                     l2446:
  1228                           
  1229                           ;newmain.c: 91:     PIE1 = 0b00100000;
  1230  087F  3020               	movlw	32
  1231  0880  1683               	bsf	3,5	;RP0=1, select bank1
  1232  0881  1303               	bcf	3,6	;RP1=0, select bank1
  1233  0882  008C               	movwf	12	;volatile
  1234  0883                     l2448:
  1235                           
  1236                           ;newmain.c: 92:     TXSTA = 0b00100100;
  1237  0883  3024               	movlw	36
  1238  0884  0098               	movwf	24	;volatile
  1239  0885                     l2450:
  1240                           
  1241                           ;newmain.c: 93:     RCSTA = 0b10010000;
  1242  0885  3090               	movlw	144
  1243  0886  1283               	bcf	3,5	;RP0=0, select bank0
  1244  0887  1303               	bcf	3,6	;RP1=0, select bank0
  1245  0888  0098               	movwf	24	;volatile
  1246  0889                     l2452:
  1247                           
  1248                           ;newmain.c: 94:     SPBRG = 0b00011001;
  1249  0889  3019               	movlw	25
  1250  088A  1683               	bsf	3,5	;RP0=1, select bank1
  1251  088B  1303               	bcf	3,6	;RP1=0, select bank1
  1252  088C  0099               	movwf	25	;volatile
  1253  088D                     l137:
  1254  088D  0008               	return
  1255  088E                     __end_of_setup:
  1256                           
  1257                           	psect	text2
  1258  0BF3                     __ptext2:	
  1259 ;; *************** function _ftoa *****************
  1260 ;; Defined at:
  1261 ;;		line 6 in file "D:\Program Files\Microchip\xc8\v2.31\pic\sources\c90\common\ftoa.c"
  1262 ;; Parameters:    Size  Location     Type
  1263 ;;  f               4   43[BANK0 ] float 
  1264 ;;  status          1   47[BANK0 ] PTR int 
  1265 ;;		 -> main@status(2), 
  1266 ;; Auto vars:     Size  Location     Type
  1267 ;;  l               4   53[BANK0 ] unsigned long 
  1268 ;;  rem             4   49[BANK0 ] unsigned long 
  1269 ;;  cp              1   57[BANK0 ] PTR unsigned char 
  1270 ;;		 -> ftoa@buf(17), 
  1271 ;; Return value:  Size  Location     Type
  1272 ;;                  1    wreg      PTR unsigned char 
  1273 ;; Registers used:
  1274 ;;		wreg, fsr0l, fsr0h, status,2, status,0, btemp+1, pclath, cstack
  1275 ;; Tracked objects:
  1276 ;;		On entry : 0/0
  1277 ;;		On exit  : 0/0
  1278 ;;		Unchanged: 0/0
  1279 ;; Data sizes:     COMMON   BANK0   BANK1   BANK3   BANK2
  1280 ;;      Params:         0       5       0       0       0
  1281 ;;      Locals:         0       9       0       0       0
  1282 ;;      Temps:          0       1       0       0       0
  1283 ;;      Totals:         0      15       0       0       0
  1284 ;;Total ram usage:       15 bytes
  1285 ;; Hardware stack levels used:    1
  1286 ;; Hardware stack levels required when called:    3
  1287 ;; This function calls:
  1288 ;;		___flge
  1289 ;;		___flmul
  1290 ;;		___flneg
  1291 ;;		___flsub
  1292 ;;		___fltol
  1293 ;;		___xxtofl
  1294 ;;		_sprintf
  1295 ;; This function is called by:
  1296 ;;		_main
  1297 ;; This function uses a non-reentrant model
  1298 ;;
  1299                           
  1300                           
  1301                           ;psect for function _ftoa
  1302  0BF3                     _ftoa:
  1303  0BF3                     l2454:	
  1304                           ;incstack = 0
  1305                           ; Regs used in _ftoa: [wreg-fsr0h+status,2+status,0+btemp+1+pclath+cstack]
  1306                           
  1307  0BF3  30A0               	movlw	(low (ftoa@buf| 0))& (0+255)
  1308  0BF4  1283               	bcf	3,5	;RP0=0, select bank0
  1309  0BF5  1303               	bcf	3,6	;RP1=0, select bank0
  1310  0BF6  00D0               	movwf	??_ftoa
  1311  0BF7  0850               	movf	??_ftoa,w
  1312  0BF8  00D9               	movwf	ftoa@cp
  1313  0BF9                     l2456:
  1314  0BF9  084E               	movf	ftoa@f+3,w
  1315  0BFA  00F6               	movwf	___flge@ff1+3
  1316  0BFB  084D               	movf	ftoa@f+2,w
  1317  0BFC  00F5               	movwf	___flge@ff1+2
  1318  0BFD  084C               	movf	ftoa@f+1,w
  1319  0BFE  00F4               	movwf	___flge@ff1+1
  1320  0BFF  084B               	movf	ftoa@f,w
  1321  0C00  00F3               	movwf	___flge@ff1
  1322  0C01  3000               	movlw	0
  1323  0C02  00FA               	movwf	___flge@ff2+3
  1324  0C03  3000               	movlw	0
  1325  0C04  00F9               	movwf	___flge@ff2+2
  1326  0C05  3000               	movlw	0
  1327  0C06  00F8               	movwf	___flge@ff2+1
  1328  0C07  3000               	movlw	0
  1329  0C08  00F7               	movwf	___flge@ff2
  1330  0C09  120A  118A  2756  120A  158A  	fcall	___flge
  1331  0C0E  1803               	btfsc	3,0
  1332  0C0F  2C11               	goto	u3371
  1333  0C10  2C12               	goto	u3370
  1334  0C11                     u3371:
  1335  0C11  2C36               	goto	l2464
  1336  0C12                     u3370:
  1337  0C12                     l2458:
  1338  0C12  302D               	movlw	45
  1339  0C13  1283               	bcf	3,5	;RP0=0, select bank0
  1340  0C14  1303               	bcf	3,6	;RP1=0, select bank0
  1341  0C15  00D0               	movwf	??_ftoa
  1342  0C16  0859               	movf	ftoa@cp,w
  1343  0C17  0084               	movwf	4
  1344  0C18  0850               	movf	??_ftoa,w
  1345  0C19  1383               	bcf	3,7	;select IRP bank0
  1346  0C1A  0080               	movwf	0
  1347  0C1B                     l2460:
  1348  0C1B  3001               	movlw	1
  1349  0C1C  00D0               	movwf	??_ftoa
  1350  0C1D  0850               	movf	??_ftoa,w
  1351  0C1E  07D9               	addwf	ftoa@cp,f
  1352  0C1F                     l2462:
  1353  0C1F  084E               	movf	ftoa@f+3,w
  1354  0C20  00F6               	movwf	___flneg@f1+3
  1355  0C21  084D               	movf	ftoa@f+2,w
  1356  0C22  00F5               	movwf	___flneg@f1+2
  1357  0C23  084C               	movf	ftoa@f+1,w
  1358  0C24  00F4               	movwf	___flneg@f1+1
  1359  0C25  084B               	movf	ftoa@f,w
  1360  0C26  00F3               	movwf	___flneg@f1
  1361  0C27  160A  118A  27DC  120A  158A  	fcall	___flneg
  1362  0C2C  0876               	movf	?___flneg+3,w
  1363  0C2D  1283               	bcf	3,5	;RP0=0, select bank0
  1364  0C2E  1303               	bcf	3,6	;RP1=0, select bank0
  1365  0C2F  00CE               	movwf	ftoa@f+3
  1366  0C30  0875               	movf	?___flneg+2,w
  1367  0C31  00CD               	movwf	ftoa@f+2
  1368  0C32  0874               	movf	?___flneg+1,w
  1369  0C33  00CC               	movwf	ftoa@f+1
  1370  0C34  0873               	movf	?___flneg,w
  1371  0C35  00CB               	movwf	ftoa@f
  1372  0C36                     l2464:
  1373  0C36  1283               	bcf	3,5	;RP0=0, select bank0
  1374  0C37  1303               	bcf	3,6	;RP1=0, select bank0
  1375  0C38  084E               	movf	ftoa@f+3,w
  1376  0C39  00C3               	movwf	___fltol@f1+3
  1377  0C3A  084D               	movf	ftoa@f+2,w
  1378  0C3B  00C2               	movwf	___fltol@f1+2
  1379  0C3C  084C               	movf	ftoa@f+1,w
  1380  0C3D  00C1               	movwf	___fltol@f1+1
  1381  0C3E  084B               	movf	ftoa@f,w
  1382  0C3F  00C0               	movwf	___fltol@f1
  1383  0C40  120A  158A  22BB  120A  158A  	fcall	___fltol
  1384  0C45  1283               	bcf	3,5	;RP0=0, select bank0
  1385  0C46  1303               	bcf	3,6	;RP1=0, select bank0
  1386  0C47  0843               	movf	?___fltol+3,w
  1387  0C48  00D8               	movwf	ftoa@l+3
  1388  0C49  0842               	movf	?___fltol+2,w
  1389  0C4A  00D7               	movwf	ftoa@l+2
  1390  0C4B  0841               	movf	?___fltol+1,w
  1391  0C4C  00D6               	movwf	ftoa@l+1
  1392  0C4D  0840               	movf	?___fltol,w
  1393  0C4E  00D5               	movwf	ftoa@l
  1394  0C4F                     l2466:
  1395  0C4F  0858               	movf	ftoa@l+3,w
  1396  0C50  00F6               	movwf	___xxtofl@val+3
  1397  0C51  0857               	movf	ftoa@l+2,w
  1398  0C52  00F5               	movwf	___xxtofl@val+2
  1399  0C53  0856               	movf	ftoa@l+1,w
  1400  0C54  00F4               	movwf	___xxtofl@val+1
  1401  0C55  0855               	movf	ftoa@l,w
  1402  0C56  00F3               	movwf	___xxtofl@val
  1403  0C57  3000               	movlw	0
  1404  0C58  120A  158A  2337  120A  158A  	fcall	___xxtofl
  1405  0C5D  0876               	movf	?___xxtofl+3,w
  1406  0C5E  1283               	bcf	3,5	;RP0=0, select bank0
  1407  0C5F  1303               	bcf	3,6	;RP1=0, select bank0
  1408  0C60  00AF               	movwf	___flsub@a+3
  1409  0C61  0875               	movf	?___xxtofl+2,w
  1410  0C62  00AE               	movwf	___flsub@a+2
  1411  0C63  0874               	movf	?___xxtofl+1,w
  1412  0C64  00AD               	movwf	___flsub@a+1
  1413  0C65  0873               	movf	?___xxtofl,w
  1414  0C66  00AC               	movwf	___flsub@a
  1415  0C67  084E               	movf	ftoa@f+3,w
  1416  0C68  00B3               	movwf	___flsub@b+3
  1417  0C69  084D               	movf	ftoa@f+2,w
  1418  0C6A  00B2               	movwf	___flsub@b+2
  1419  0C6B  084C               	movf	ftoa@f+1,w
  1420  0C6C  00B1               	movwf	___flsub@b+1
  1421  0C6D  084B               	movf	ftoa@f,w
  1422  0C6E  00B0               	movwf	___flsub@b
  1423  0C6F  120A  158A  208E  120A  158A  	fcall	___flsub
  1424  0C74  1283               	bcf	3,5	;RP0=0, select bank0
  1425  0C75  1303               	bcf	3,6	;RP1=0, select bank0
  1426  0C76  082F               	movf	?___flsub+3,w
  1427  0C77  00CE               	movwf	ftoa@f+3
  1428  0C78  082E               	movf	?___flsub+2,w
  1429  0C79  00CD               	movwf	ftoa@f+2
  1430  0C7A  082D               	movf	?___flsub+1,w
  1431  0C7B  00CC               	movwf	ftoa@f+1
  1432  0C7C  082C               	movf	?___flsub,w
  1433  0C7D  00CB               	movwf	ftoa@f
  1434  0C7E                     l2468:
  1435  0C7E  084E               	movf	ftoa@f+3,w
  1436  0C7F  00AD               	movwf	___flmul@a+3
  1437  0C80  084D               	movf	ftoa@f+2,w
  1438  0C81  00AC               	movwf	___flmul@a+2
  1439  0C82  084C               	movf	ftoa@f+1,w
  1440  0C83  00AB               	movwf	___flmul@a+1
  1441  0C84  084B               	movf	ftoa@f,w
  1442  0C85  00AA               	movwf	___flmul@a
  1443  0C86  3049               	movlw	73
  1444  0C87  00A9               	movwf	___flmul@b+3
  1445  0C88  3074               	movlw	116
  1446  0C89  00A8               	movwf	___flmul@b+2
  1447  0C8A  3024               	movlw	36
  1448  0C8B  00A7               	movwf	___flmul@b+1
  1449  0C8C  3000               	movlw	0
  1450  0C8D  00A6               	movwf	___flmul@b
  1451  0C8E  120A  118A  2024  120A  158A  	fcall	___flmul
  1452  0C93  1283               	bcf	3,5	;RP0=0, select bank0
  1453  0C94  1303               	bcf	3,6	;RP1=0, select bank0
  1454  0C95  0829               	movf	?___flmul+3,w
  1455  0C96  00C3               	movwf	___fltol@f1+3
  1456  0C97  0828               	movf	?___flmul+2,w
  1457  0C98  00C2               	movwf	___fltol@f1+2
  1458  0C99  0827               	movf	?___flmul+1,w
  1459  0C9A  00C1               	movwf	___fltol@f1+1
  1460  0C9B  0826               	movf	?___flmul,w
  1461  0C9C  00C0               	movwf	___fltol@f1
  1462  0C9D  120A  158A  22BB  120A  158A  	fcall	___fltol
  1463  0CA2  1283               	bcf	3,5	;RP0=0, select bank0
  1464  0CA3  1303               	bcf	3,6	;RP1=0, select bank0
  1465  0CA4  0843               	movf	?___fltol+3,w
  1466  0CA5  00D4               	movwf	ftoa@rem+3
  1467  0CA6  0842               	movf	?___fltol+2,w
  1468  0CA7  00D3               	movwf	ftoa@rem+2
  1469  0CA8  0841               	movf	?___fltol+1,w
  1470  0CA9  00D2               	movwf	ftoa@rem+1
  1471  0CAA  0840               	movf	?___fltol,w
  1472  0CAB  00D1               	movwf	ftoa@rem
  1473  0CAC                     l2470:
  1474  0CAC  3029               	movlw	(low ((STR_1-__stringbase)| (0+32768)))& (0+255)
  1475  0CAD  00D0               	movwf	??_ftoa
  1476  0CAE  0850               	movf	??_ftoa,w
  1477  0CAF  00B0               	movwf	sprintf@f
  1478  0CB0  0858               	movf	ftoa@l+3,w
  1479  0CB1  00B4               	movwf	?_sprintf+4
  1480  0CB2  0857               	movf	ftoa@l+2,w
  1481  0CB3  00B3               	movwf	?_sprintf+3
  1482  0CB4  0856               	movf	ftoa@l+1,w
  1483  0CB5  00B2               	movwf	?_sprintf+2
  1484  0CB6  0855               	movf	ftoa@l,w
  1485  0CB7  00B1               	movwf	?_sprintf+1
  1486  0CB8  0854               	movf	ftoa@rem+3,w
  1487  0CB9  00B8               	movwf	?_sprintf+8
  1488  0CBA  0853               	movf	ftoa@rem+2,w
  1489  0CBB  00B7               	movwf	?_sprintf+7
  1490  0CBC  0852               	movf	ftoa@rem+1,w
  1491  0CBD  00B6               	movwf	?_sprintf+6
  1492  0CBE  0851               	movf	ftoa@rem,w
  1493  0CBF  00B5               	movwf	?_sprintf+5
  1494  0CC0  0859               	movf	ftoa@cp,w
  1495  0CC1  120A  158A  25B4  120A  158A  	fcall	_sprintf
  1496  0CC6                     l2472:
  1497  0CC6  30A0               	movlw	(low (ftoa@buf| 0))& (0+255)
  1498  0CC7                     l699:
  1499  0CC7  0008               	return
  1500  0CC8                     __end_of_ftoa:
  1501                           
  1502                           	psect	text3
  1503  0DB4                     __ptext3:	
  1504 ;; *************** function _sprintf *****************
  1505 ;; Defined at:
  1506 ;;		line 505 in file "D:\Program Files\Microchip\xc8\v2.31\pic\sources\c90\common\doprnt.c"
  1507 ;; Parameters:    Size  Location     Type
  1508 ;;  sp              1    wreg     PTR unsigned char 
  1509 ;;		 -> ftoa@buf(17), 
  1510 ;;  f               1   16[BANK0 ] PTR const unsigned char 
  1511 ;;		 -> STR_1(11), 
  1512 ;; Auto vars:     Size  Location     Type
  1513 ;;  sp              1   36[BANK0 ] PTR unsigned char 
  1514 ;;		 -> ftoa@buf(17), 
  1515 ;;  val             4   32[BANK0 ] unsigned long 
  1516 ;;  tmpval          4    0        struct .
  1517 ;;  prec            2   39[BANK0 ] int 
  1518 ;;  width           2   37[BANK0 ] int 
  1519 ;;  cp              2    0        PTR const unsigned char 
  1520 ;;  len             2    0        unsigned int 
  1521 ;;  c               1   41[BANK0 ] unsigned char 
  1522 ;;  ap              1   31[BANK0 ] PTR void [1]
  1523 ;;		 -> ?_sprintf(2), 
  1524 ;;  flag            1   30[BANK0 ] unsigned char 
  1525 ;; Return value:  Size  Location     Type
  1526 ;;                  2   16[BANK0 ] int 
  1527 ;; Registers used:
  1528 ;;		wreg, fsr0l, fsr0h, status,2, status,0, pclath, cstack
  1529 ;; Tracked objects:
  1530 ;;		On entry : 0/0
  1531 ;;		On exit  : 0/0
  1532 ;;		Unchanged: 0/0
  1533 ;; Data sizes:     COMMON   BANK0   BANK1   BANK3   BANK2
  1534 ;;      Params:         0       9       0       0       0
  1535 ;;      Locals:         0      12       0       0       0
  1536 ;;      Temps:          0       5       0       0       0
  1537 ;;      Totals:         0      26       0       0       0
  1538 ;;Total ram usage:       26 bytes
  1539 ;; Hardware stack levels used:    1
  1540 ;; Hardware stack levels required when called:    2
  1541 ;; This function calls:
  1542 ;;		___lldiv
  1543 ;;		___llmod
  1544 ;;		___wmul
  1545 ;;		_isdigit
  1546 ;; This function is called by:
  1547 ;;		_ftoa
  1548 ;; This function uses a non-reentrant model
  1549 ;;
  1550                           
  1551                           
  1552                           ;psect for function _sprintf
  1553  0DB4                     _sprintf:
  1554                           
  1555                           ;incstack = 0
  1556                           ; Regs used in _sprintf: [wreg-fsr0h+status,2+status,0+pclath+cstack]
  1557                           ;sprintf@sp stored from wreg
  1558  0DB4  1283               	bcf	3,5	;RP0=0, select bank0
  1559  0DB5  1303               	bcf	3,6	;RP1=0, select bank0
  1560  0DB6  00C4               	movwf	sprintf@sp
  1561  0DB7                     l2272:
  1562                           
  1563                           ;D:\Program Files\Microchip\xc8\v2.31\pic\sources\c90\common\doprnt.c: 505: sprintf(char
      +                           * sp, const char * f, ...);D:\Program Files\Microchip\xc8\v2.31\pic\sources\c90\common\
      +                          doprnt.c: 506: {;D:\Program Files\Microchip\xc8\v2.31\pic\sources\c90\common\doprnt.c: 5
      +                          07:  va_list ap;;D:\Program Files\Microchip\xc8\v2.31\pic\sources\c90\common\doprnt.c: 5
      +                          12:  char c;;D:\Program Files\Microchip\xc8\v2.31\pic\sources\c90\common\doprnt.c: 514: 
      +                           int width;;D:\Program Files\Microchip\xc8\v2.31\pic\sources\c90\common\doprnt.c: 517:  
      +                          int prec;
  1564  0DB7  3031               	movlw	(low ((?_sprintf| 0+1)))& (0+255)
  1565  0DB8  00B9               	movwf	??_sprintf
  1566  0DB9  0839               	movf	??_sprintf,w
  1567  0DBA  00BF               	movwf	sprintf@ap
  1568                           
  1569                           ;D:\Program Files\Microchip\xc8\v2.31\pic\sources\c90\common\doprnt.c: 553:  while((c = 
      +                          *f++)) {
  1570  0DBB  2FE9               	goto	l2370
  1571  0DBC                     l2274:
  1572                           
  1573                           ;D:\Program Files\Microchip\xc8\v2.31\pic\sources\c90\common\doprnt.c: 555:   if(c != '%
      +                          ')
  1574  0DBC  3025               	movlw	37
  1575  0DBD  0649               	xorwf	sprintf@c,w
  1576  0DBE  1903               	btfsc	3,2
  1577  0DBF  2DC1               	goto	u3151
  1578  0DC0  2DC2               	goto	u3150
  1579  0DC1                     u3151:
  1580  0DC1  2DCE               	goto	l2280
  1581  0DC2                     u3150:
  1582  0DC2                     l2276:
  1583                           
  1584                           ;D:\Program Files\Microchip\xc8\v2.31\pic\sources\c90\common\doprnt.c: 557:   {;D:\Progr
      +                          am Files\Microchip\xc8\v2.31\pic\sources\c90\common\doprnt.c: 558:    ((*sp++ = (c)));
  1585  0DC2  0849               	movf	sprintf@c,w
  1586  0DC3  00B9               	movwf	??_sprintf
  1587  0DC4  0844               	movf	sprintf@sp,w
  1588  0DC5  0084               	movwf	4
  1589  0DC6  0839               	movf	??_sprintf,w
  1590  0DC7  1383               	bcf	3,7	;select IRP bank0
  1591  0DC8  0080               	movwf	0
  1592  0DC9                     l2278:
  1593  0DC9  3001               	movlw	1
  1594  0DCA  00B9               	movwf	??_sprintf
  1595  0DCB  0839               	movf	??_sprintf,w
  1596  0DCC  07C4               	addwf	sprintf@sp,f
  1597                           
  1598                           ;D:\Program Files\Microchip\xc8\v2.31\pic\sources\c90\common\doprnt.c: 559:    continue;
  1599  0DCD  2FE9               	goto	l2370
  1600  0DCE                     l2280:
  1601                           
  1602                           ;D:\Program Files\Microchip\xc8\v2.31\pic\sources\c90\common\doprnt.c: 563:   width = 0;
  1603  0DCE  01C5               	clrf	sprintf@width
  1604  0DCF  01C6               	clrf	sprintf@width+1
  1605                           
  1606                           ;D:\Program Files\Microchip\xc8\v2.31\pic\sources\c90\common\doprnt.c: 565:   flag = 0;
  1607  0DD0  01BE               	clrf	sprintf@flag
  1608  0DD1                     l2282:
  1609                           
  1610                           ;D:\Program Files\Microchip\xc8\v2.31\pic\sources\c90\common\doprnt.c: 614:   if(isdigit
      +                          ((unsigned)*f)) {
  1611  0DD1  0830               	movf	sprintf@f,w
  1612  0DD2  0084               	movwf	4
  1613  0DD3  120A  158A  2000  120A  158A  	fcall	stringdir
  1614  0DD8  120A  158A  2059  120A  158A  	fcall	_isdigit
  1615  0DDD  1C03               	btfss	3,0
  1616  0DDE  2DE0               	goto	u3161
  1617  0DDF  2DE1               	goto	u3160
  1618  0DE0                     u3161:
  1619  0DE0  2E21               	goto	l2294
  1620  0DE1                     u3160:
  1621  0DE1                     l2284:
  1622                           
  1623                           ;D:\Program Files\Microchip\xc8\v2.31\pic\sources\c90\common\doprnt.c: 615:    width = 0
      +                          ;
  1624  0DE1  1283               	bcf	3,5	;RP0=0, select bank0
  1625  0DE2  1303               	bcf	3,6	;RP1=0, select bank0
  1626  0DE3  01C5               	clrf	sprintf@width
  1627  0DE4  01C6               	clrf	sprintf@width+1
  1628  0DE5                     l2286:
  1629                           
  1630                           ;D:\Program Files\Microchip\xc8\v2.31\pic\sources\c90\common\doprnt.c: 617:     width *=
      +                           10;
  1631  0DE5  300A               	movlw	10
  1632  0DE6  00F3               	movwf	___wmul@multiplier
  1633  0DE7  3000               	movlw	0
  1634  0DE8  00F4               	movwf	___wmul@multiplier+1
  1635  0DE9  1283               	bcf	3,5	;RP0=0, select bank0
  1636  0DEA  1303               	bcf	3,6	;RP1=0, select bank0
  1637  0DEB  0846               	movf	sprintf@width+1,w
  1638  0DEC  00F6               	movwf	___wmul@multiplicand+1
  1639  0DED  0845               	movf	sprintf@width,w
  1640  0DEE  00F5               	movwf	___wmul@multiplicand
  1641  0DEF  120A  158A  20B2  120A  158A  	fcall	___wmul
  1642  0DF4  0874               	movf	?___wmul+1,w
  1643  0DF5  1283               	bcf	3,5	;RP0=0, select bank0
  1644  0DF6  1303               	bcf	3,6	;RP1=0, select bank0
  1645  0DF7  00C6               	movwf	sprintf@width+1
  1646  0DF8  0873               	movf	?___wmul,w
  1647  0DF9  00C5               	movwf	sprintf@width
  1648  0DFA                     l2288:
  1649                           
  1650                           ;D:\Program Files\Microchip\xc8\v2.31\pic\sources\c90\common\doprnt.c: 618:        width
      +                           += *f++ - '0';
  1651  0DFA  0830               	movf	sprintf@f,w
  1652  0DFB  0084               	movwf	4
  1653  0DFC  120A  158A  2000  120A  158A  	fcall	stringdir
  1654  0E01  3ED0               	addlw	208
  1655  0E02  00B9               	movwf	??_sprintf
  1656  0E03  30FF               	movlw	255
  1657  0E04  1803               	skipnc
  1658  0E05  3000               	movlw	0
  1659  0E06  00BA               	movwf	??_sprintf+1
  1660  0E07  0839               	movf	??_sprintf,w
  1661  0E08  07C5               	addwf	sprintf@width,f
  1662  0E09  1803               	skipnc
  1663  0E0A  0AC6               	incf	sprintf@width+1,f
  1664  0E0B  083A               	movf	??_sprintf+1,w
  1665  0E0C  07C6               	addwf	sprintf@width+1,f
  1666  0E0D                     l2290:
  1667  0E0D  3001               	movlw	1
  1668  0E0E  00B9               	movwf	??_sprintf
  1669  0E0F  0839               	movf	??_sprintf,w
  1670  0E10  07B0               	addwf	sprintf@f,f
  1671  0E11                     l2292:
  1672                           
  1673                           ;D:\Program Files\Microchip\xc8\v2.31\pic\sources\c90\common\doprnt.c: 619:    } while(i
      +                          sdigit((unsigned)*f));
  1674  0E11  0830               	movf	sprintf@f,w
  1675  0E12  0084               	movwf	4
  1676  0E13  120A  158A  2000  120A  158A  	fcall	stringdir
  1677  0E18  120A  158A  2059  120A  158A  	fcall	_isdigit
  1678  0E1D  1803               	btfsc	3,0
  1679  0E1E  2E20               	goto	u3171
  1680  0E1F  2E21               	goto	u3170
  1681  0E20                     u3171:
  1682  0E20  2DE5               	goto	l2286
  1683  0E21                     u3170:
  1684  0E21                     l2294:
  1685                           
  1686                           ;D:\Program Files\Microchip\xc8\v2.31\pic\sources\c90\common\doprnt.c: 628:   if(*f == '
      +                          .') {
  1687  0E21  1283               	bcf	3,5	;RP0=0, select bank0
  1688  0E22  1303               	bcf	3,6	;RP1=0, select bank0
  1689  0E23  0830               	movf	sprintf@f,w
  1690  0E24  0084               	movwf	4
  1691  0E25  120A  158A  2000  120A  158A  	fcall	stringdir
  1692  0E2A  3A2E               	xorlw	46
  1693  0E2B  1D03               	skipz
  1694  0E2C  2E2E               	goto	u3181
  1695  0E2D  2E2F               	goto	u3180
  1696  0E2E                     u3181:
  1697  0E2E  2E73               	goto	l2308
  1698  0E2F                     u3180:
  1699  0E2F                     l2296:
  1700                           
  1701                           ;D:\Program Files\Microchip\xc8\v2.31\pic\sources\c90\common\doprnt.c: 630:    f++;
  1702  0E2F  3001               	movlw	1
  1703  0E30  00B9               	movwf	??_sprintf
  1704  0E31  0839               	movf	??_sprintf,w
  1705  0E32  07B0               	addwf	sprintf@f,f
  1706  0E33                     l2298:
  1707                           
  1708                           ;D:\Program Files\Microchip\xc8\v2.31\pic\sources\c90\common\doprnt.c: 644:    {;D:\Prog
      +                          ram Files\Microchip\xc8\v2.31\pic\sources\c90\common\doprnt.c: 645:     prec = 0;
  1709  0E33  01C7               	clrf	sprintf@prec
  1710  0E34  01C8               	clrf	sprintf@prec+1
  1711                           
  1712                           ;D:\Program Files\Microchip\xc8\v2.31\pic\sources\c90\common\doprnt.c: 646:     while(is
      +                          digit((unsigned)*f)) {
  1713  0E35  2E62               	goto	l2306
  1714  0E36                     l2300:
  1715                           
  1716                           ;D:\Program Files\Microchip\xc8\v2.31\pic\sources\c90\common\doprnt.c: 647:      prec *=
      +                           10;
  1717  0E36  300A               	movlw	10
  1718  0E37  00F3               	movwf	___wmul@multiplier
  1719  0E38  3000               	movlw	0
  1720  0E39  00F4               	movwf	___wmul@multiplier+1
  1721  0E3A  1283               	bcf	3,5	;RP0=0, select bank0
  1722  0E3B  1303               	bcf	3,6	;RP1=0, select bank0
  1723  0E3C  0848               	movf	sprintf@prec+1,w
  1724  0E3D  00F6               	movwf	___wmul@multiplicand+1
  1725  0E3E  0847               	movf	sprintf@prec,w
  1726  0E3F  00F5               	movwf	___wmul@multiplicand
  1727  0E40  120A  158A  20B2  120A  158A  	fcall	___wmul
  1728  0E45  0874               	movf	?___wmul+1,w
  1729  0E46  1283               	bcf	3,5	;RP0=0, select bank0
  1730  0E47  1303               	bcf	3,6	;RP1=0, select bank0
  1731  0E48  00C8               	movwf	sprintf@prec+1
  1732  0E49  0873               	movf	?___wmul,w
  1733  0E4A  00C7               	movwf	sprintf@prec
  1734  0E4B                     l2302:
  1735                           
  1736                           ;D:\Program Files\Microchip\xc8\v2.31\pic\sources\c90\common\doprnt.c: 648:         prec
      +                           += *f++ - '0';
  1737  0E4B  0830               	movf	sprintf@f,w
  1738  0E4C  0084               	movwf	4
  1739  0E4D  120A  158A  2000  120A  158A  	fcall	stringdir
  1740  0E52  3ED0               	addlw	208
  1741  0E53  00B9               	movwf	??_sprintf
  1742  0E54  30FF               	movlw	255
  1743  0E55  1803               	skipnc
  1744  0E56  3000               	movlw	0
  1745  0E57  00BA               	movwf	??_sprintf+1
  1746  0E58  0839               	movf	??_sprintf,w
  1747  0E59  07C7               	addwf	sprintf@prec,f
  1748  0E5A  1803               	skipnc
  1749  0E5B  0AC8               	incf	sprintf@prec+1,f
  1750  0E5C  083A               	movf	??_sprintf+1,w
  1751  0E5D  07C8               	addwf	sprintf@prec+1,f
  1752  0E5E                     l2304:
  1753  0E5E  3001               	movlw	1
  1754  0E5F  00B9               	movwf	??_sprintf
  1755  0E60  0839               	movf	??_sprintf,w
  1756  0E61  07B0               	addwf	sprintf@f,f
  1757  0E62                     l2306:
  1758                           
  1759                           ;D:\Program Files\Microchip\xc8\v2.31\pic\sources\c90\common\doprnt.c: 646:     while(is
      +                          digit((unsigned)*f)) {
  1760  0E62  0830               	movf	sprintf@f,w
  1761  0E63  0084               	movwf	4
  1762  0E64  120A  158A  2000  120A  158A  	fcall	stringdir
  1763  0E69  120A  158A  2059  120A  158A  	fcall	_isdigit
  1764  0E6E  1803               	btfsc	3,0
  1765  0E6F  2E71               	goto	u3191
  1766  0E70  2E72               	goto	u3190
  1767  0E71                     u3191:
  1768  0E71  2E36               	goto	l2300
  1769  0E72                     u3190:
  1770  0E72  2E7D               	goto	l2314
  1771  0E73                     l2308:
  1772                           
  1773                           ;D:\Program Files\Microchip\xc8\v2.31\pic\sources\c90\common\doprnt.c: 652:    prec = 0;
  1774  0E73  01C7               	clrf	sprintf@prec
  1775  0E74  01C8               	clrf	sprintf@prec+1
  1776  0E75  2E7D               	goto	l2314
  1777  0E76                     l725:	
  1778                           ;D:\Program Files\Microchip\xc8\v2.31\pic\sources\c90\common\doprnt.c: 667:   case 'l':
  1779                           
  1780                           
  1781                           ;D:\Program Files\Microchip\xc8\v2.31\pic\sources\c90\common\doprnt.c: 669:    flag |= 0
      +                          x10;
  1782  0E76  163E               	bsf	sprintf@flag,4
  1783                           
  1784                           ;D:\Program Files\Microchip\xc8\v2.31\pic\sources\c90\common\doprnt.c: 670:    goto loop
      +                          ;
  1785  0E77  2E7D               	goto	l2314
  1786  0E78                     l2310:
  1787                           
  1788                           ;D:\Program Files\Microchip\xc8\v2.31\pic\sources\c90\common\doprnt.c: 844:    flag |= 0
      +                          xC0;
  1789  0E78  30C0               	movlw	192
  1790  0E79  00B9               	movwf	??_sprintf
  1791  0E7A  0839               	movf	??_sprintf,w
  1792  0E7B  04BE               	iorwf	sprintf@flag,f
  1793                           
  1794                           ;D:\Program Files\Microchip\xc8\v2.31\pic\sources\c90\common\doprnt.c: 845:    break;
  1795  0E7C  2E9C               	goto	l728
  1796  0E7D                     l2314:
  1797  0E7D  3001               	movlw	1
  1798  0E7E  1283               	bcf	3,5	;RP0=0, select bank0
  1799  0E7F  1303               	bcf	3,6	;RP1=0, select bank0
  1800  0E80  07B0               	addwf	sprintf@f,f
  1801  0E81  30FF               	movlw	-1
  1802  0E82  0730               	addwf	sprintf@f,w
  1803  0E83  0084               	movwf	4
  1804  0E84  120A  158A  2000  120A  158A  	fcall	stringdir
  1805  0E89  00C9               	movwf	sprintf@c
  1806  0E8A  00B9               	movwf	??_sprintf
  1807  0E8B  01BA               	clrf	??_sprintf+1
  1808                           
  1809                           ; Switch on 2 bytes has been partitioned into a top level switch of size 1, and 1 sub-sw
      +                          itches
  1810                           ; Switch size 1, requested type "simple"
  1811                           ; Number of cases is 1, Range of values is 0 to 0
  1812                           ; switch strategies available:
  1813                           ; Name         Instructions Cycles
  1814                           ; simple_byte            4     3 (average)
  1815                           ; direct_byte           11     8 (fixed)
  1816                           ; jumptable            260     6 (fixed)
  1817                           ;	Chosen strategy is simple_byte
  1818  0E8C  083A               	movf	??_sprintf+1,w
  1819  0E8D  3A00               	xorlw	0	; case 0
  1820  0E8E  1903               	skipnz
  1821  0E8F  2E91               	goto	l2576
  1822  0E90  2FE9               	goto	l2370
  1823  0E91                     l2576:
  1824                           
  1825                           ; Switch size 1, requested type "simple"
  1826                           ; Number of cases is 3, Range of values is 0 to 117
  1827                           ; switch strategies available:
  1828                           ; Name         Instructions Cycles
  1829                           ; simple_byte           10     6 (average)
  1830                           ; jumptable            260     6 (fixed)
  1831                           ;	Chosen strategy is simple_byte
  1832  0E91  0839               	movf	??_sprintf,w
  1833  0E92  3A00               	xorlw	0	; case 0
  1834  0E93  1903               	skipnz
  1835  0E94  2FFB               	goto	l2372
  1836  0E95  3A6C               	xorlw	108	; case 108
  1837  0E96  1903               	skipnz
  1838  0E97  2E76               	goto	l725
  1839  0E98  3A19               	xorlw	25	; case 117
  1840  0E99  1903               	skipnz
  1841  0E9A  2E78               	goto	l2310
  1842  0E9B  2FE9               	goto	l2370
  1843  0E9C                     l728:
  1844                           
  1845                           ;D:\Program Files\Microchip\xc8\v2.31\pic\sources\c90\common\doprnt.c: 1299:   {;D:\Prog
      +                          ram Files\Microchip\xc8\v2.31\pic\sources\c90\common\doprnt.c: 1307:     if(flag & 0x10)
  1846  0E9C  1E3E               	btfss	sprintf@flag,4
  1847  0E9D  2E9F               	goto	u3201
  1848  0E9E  2EA0               	goto	u3200
  1849  0E9F                     u3201:
  1850  0E9F  2EB3               	goto	l2320
  1851  0EA0                     u3200:
  1852  0EA0                     l2316:
  1853                           
  1854                           ;D:\Program Files\Microchip\xc8\v2.31\pic\sources\c90\common\doprnt.c: 1308:     val = (
      +                          *(unsigned long *)__va_arg((*(unsigned long **)ap), (unsigned long)0));
  1855  0EA0  083F               	movf	sprintf@ap,w
  1856  0EA1  0084               	movwf	4
  1857  0EA2  1383               	bcf	3,7	;select IRP bank0
  1858  0EA3  0800               	movf	0,w
  1859  0EA4  00C0               	movwf	sprintf@val
  1860  0EA5  0A84               	incf	4,f
  1861  0EA6  0800               	movf	0,w
  1862  0EA7  00C1               	movwf	sprintf@val+1
  1863  0EA8  0A84               	incf	4,f
  1864  0EA9  0800               	movf	0,w
  1865  0EAA  00C2               	movwf	sprintf@val+2
  1866  0EAB  0A84               	incf	4,f
  1867  0EAC  0800               	movf	0,w
  1868  0EAD  00C3               	movwf	sprintf@val+3
  1869  0EAE                     l2318:
  1870  0EAE  3004               	movlw	4
  1871  0EAF  00B9               	movwf	??_sprintf
  1872  0EB0  0839               	movf	??_sprintf,w
  1873  0EB1  07BF               	addwf	sprintf@ap,f
  1874  0EB2  2EC5               	goto	l2324
  1875  0EB3                     l2320:
  1876                           
  1877                           ;D:\Program Files\Microchip\xc8\v2.31\pic\sources\c90\common\doprnt.c: 1312:     val = (
      +                          *(unsigned *)__va_arg((*(unsigned **)ap), (unsigned)0));
  1878  0EB3  083F               	movf	sprintf@ap,w
  1879  0EB4  0084               	movwf	4
  1880  0EB5  1383               	bcf	3,7	;select IRP bank0
  1881  0EB6  0800               	movf	0,w
  1882  0EB7  00B9               	movwf	??_sprintf
  1883  0EB8  0A84               	incf	4,f
  1884  0EB9  0800               	movf	0,w
  1885  0EBA  00BA               	movwf	??_sprintf+1
  1886  0EBB  0839               	movf	??_sprintf,w
  1887  0EBC  00C0               	movwf	sprintf@val
  1888  0EBD  083A               	movf	??_sprintf+1,w
  1889  0EBE  00C1               	movwf	sprintf@val+1
  1890  0EBF  01C2               	clrf	sprintf@val+2
  1891  0EC0  01C3               	clrf	sprintf@val+3
  1892  0EC1                     l2322:
  1893  0EC1  3002               	movlw	2
  1894  0EC2  00B9               	movwf	??_sprintf
  1895  0EC3  0839               	movf	??_sprintf,w
  1896  0EC4  07BF               	addwf	sprintf@ap,f
  1897  0EC5                     l2324:
  1898                           
  1899                           ;D:\Program Files\Microchip\xc8\v2.31\pic\sources\c90\common\doprnt.c: 1313:   };D:\Prog
      +                          ram Files\Microchip\xc8\v2.31\pic\sources\c90\common\doprnt.c: 1316:   if(prec == 0 && v
      +                          al == 0)
  1900  0EC5  0847               	movf	sprintf@prec,w
  1901  0EC6  0448               	iorwf	sprintf@prec+1,w
  1902  0EC7  1D03               	btfss	3,2
  1903  0EC8  2ECA               	goto	u3211
  1904  0EC9  2ECB               	goto	u3210
  1905  0ECA                     u3211:
  1906  0ECA  2ED9               	goto	l2330
  1907  0ECB                     u3210:
  1908  0ECB                     l2326:
  1909  0ECB  0843               	movf	sprintf@val+3,w
  1910  0ECC  0442               	iorwf	sprintf@val+2,w
  1911  0ECD  0441               	iorwf	sprintf@val+1,w
  1912  0ECE  0440               	iorwf	sprintf@val,w
  1913  0ECF  1D03               	skipz
  1914  0ED0  2ED2               	goto	u3221
  1915  0ED1  2ED3               	goto	u3220
  1916  0ED2                     u3221:
  1917  0ED2  2ED9               	goto	l2330
  1918  0ED3                     u3220:
  1919  0ED3                     l2328:
  1920                           
  1921                           ;D:\Program Files\Microchip\xc8\v2.31\pic\sources\c90\common\doprnt.c: 1317:    prec++;
  1922  0ED3  3001               	movlw	1
  1923  0ED4  07C7               	addwf	sprintf@prec,f
  1924  0ED5  1803               	skipnc
  1925  0ED6  0AC8               	incf	sprintf@prec+1,f
  1926  0ED7  3000               	movlw	0
  1927  0ED8  07C8               	addwf	sprintf@prec+1,f
  1928  0ED9                     l2330:
  1929                           
  1930                           ;D:\Program Files\Microchip\xc8\v2.31\pic\sources\c90\common\doprnt.c: 1331:    for(c = 
      +                          1 ; c != sizeof dpowers/sizeof dpowers[0] ; c++)
  1931  0ED9  01C9               	clrf	sprintf@c
  1932  0EDA  0AC9               	incf	sprintf@c,f
  1933  0EDB                     l2336:
  1934                           
  1935                           ;D:\Program Files\Microchip\xc8\v2.31\pic\sources\c90\common\doprnt.c: 1332:     if(val 
      +                          < dpowers[c])
  1936  0EDB  0849               	movf	sprintf@c,w
  1937  0EDC  00B9               	movwf	??_sprintf
  1938  0EDD  3001               	movlw	1
  1939  0EDE                     u3235:
  1940  0EDE  1003               	clrc
  1941  0EDF  0DB9               	rlf	??_sprintf,f
  1942  0EE0  3EFF               	addlw	-1
  1943  0EE1  1D03               	skipz
  1944  0EE2  2EDE               	goto	u3235
  1945  0EE3  1003               	clrc
  1946  0EE4  0D39               	rlf	??_sprintf,w
  1947  0EE5  3E01               	addlw	low ((_dpowers-__stringbase)| (0+32768))
  1948  0EE6  0084               	movwf	4
  1949  0EE7  120A  158A  2000  120A  158A  	fcall	stringdir
  1950  0EEC  00BA               	movwf	??_sprintf+1
  1951  0EED  120A  158A  2000  120A  158A  	fcall	stringdir
  1952  0EF2  00BB               	movwf	??_sprintf+2
  1953  0EF3  120A  158A  2000  120A  158A  	fcall	stringdir
  1954  0EF8  00BC               	movwf	??_sprintf+3
  1955  0EF9  120A  158A  2000  120A  158A  	fcall	stringdir
  1956  0EFE  00BD               	movwf	??_sprintf+4
  1957  0EFF  083D               	movf	??_sprintf+4,w
  1958  0F00  0243               	subwf	sprintf@val+3,w
  1959  0F01  1D03               	skipz
  1960  0F02  2F0D               	goto	u3245
  1961  0F03  083C               	movf	??_sprintf+3,w
  1962  0F04  0242               	subwf	sprintf@val+2,w
  1963  0F05  1D03               	skipz
  1964  0F06  2F0D               	goto	u3245
  1965  0F07  083B               	movf	??_sprintf+2,w
  1966  0F08  0241               	subwf	sprintf@val+1,w
  1967  0F09  1D03               	skipz
  1968  0F0A  2F0D               	goto	u3245
  1969  0F0B  083A               	movf	??_sprintf+1,w
  1970  0F0C  0240               	subwf	sprintf@val,w
  1971  0F0D                     u3245:
  1972  0F0D  1803               	skipnc
  1973  0F0E  2F10               	goto	u3241
  1974  0F0F  2F11               	goto	u3240
  1975  0F10                     u3241:
  1976  0F10  2F12               	goto	l2340
  1977  0F11                     u3240:
  1978  0F11  2F1C               	goto	l2342
  1979  0F12                     l2340:
  1980  0F12  3001               	movlw	1
  1981  0F13  00B9               	movwf	??_sprintf
  1982  0F14  0839               	movf	??_sprintf,w
  1983  0F15  07C9               	addwf	sprintf@c,f
  1984  0F16  300A               	movlw	10
  1985  0F17  0649               	xorwf	sprintf@c,w
  1986  0F18  1D03               	btfss	3,2
  1987  0F19  2F1B               	goto	u3251
  1988  0F1A  2F1C               	goto	u3250
  1989  0F1B                     u3251:
  1990  0F1B  2EDB               	goto	l2336
  1991  0F1C                     u3250:
  1992  0F1C                     l2342:
  1993                           
  1994                           ;D:\Program Files\Microchip\xc8\v2.31\pic\sources\c90\common\doprnt.c: 1365:   if(c < pr
      +                          ec)
  1995  0F1C  0848               	movf	sprintf@prec+1,w
  1996  0F1D  3A80               	xorlw	128
  1997  0F1E  3C80               	sublw	128
  1998  0F1F  1D03               	skipz
  1999  0F20  2F23               	goto	u3265
  2000  0F21  0847               	movf	sprintf@prec,w
  2001  0F22  0249               	subwf	sprintf@c,w
  2002  0F23                     u3265:
  2003  0F23  1803               	skipnc
  2004  0F24  2F26               	goto	u3261
  2005  0F25  2F27               	goto	u3260
  2006  0F26                     u3261:
  2007  0F26  2F2E               	goto	l2346
  2008  0F27                     u3260:
  2009  0F27                     l2344:
  2010                           
  2011                           ;D:\Program Files\Microchip\xc8\v2.31\pic\sources\c90\common\doprnt.c: 1366:    c = (cha
      +                          r)prec;
  2012  0F27  1283               	bcf	3,5	;RP0=0, select bank0
  2013  0F28  1303               	bcf	3,6	;RP1=0, select bank0
  2014  0F29  0847               	movf	sprintf@prec,w
  2015  0F2A  00B9               	movwf	??_sprintf
  2016  0F2B  0839               	movf	??_sprintf,w
  2017  0F2C  00C9               	movwf	sprintf@c
  2018  0F2D  2F46               	goto	l736
  2019  0F2E                     l2346:
  2020  0F2E  1283               	bcf	3,5	;RP0=0, select bank0
  2021  0F2F  1303               	bcf	3,6	;RP1=0, select bank0
  2022  0F30  0848               	movf	sprintf@prec+1,w
  2023  0F31  3A80               	xorlw	128
  2024  0F32  00B9               	movwf	??_sprintf
  2025  0F33  3080               	movlw	128
  2026  0F34  0239               	subwf	??_sprintf,w
  2027  0F35  1D03               	skipz
  2028  0F36  2F39               	goto	u3275
  2029  0F37  0849               	movf	sprintf@c,w
  2030  0F38  0247               	subwf	sprintf@prec,w
  2031  0F39                     u3275:
  2032  0F39  1803               	skipnc
  2033  0F3A  2F3C               	goto	u3271
  2034  0F3B  2F3D               	goto	u3270
  2035  0F3C                     u3271:
  2036  0F3C  2F46               	goto	l736
  2037  0F3D                     u3270:
  2038  0F3D                     l2348:
  2039                           
  2040                           ;D:\Program Files\Microchip\xc8\v2.31\pic\sources\c90\common\doprnt.c: 1368:    prec = c
      +                          ;
  2041  0F3D  1283               	bcf	3,5	;RP0=0, select bank0
  2042  0F3E  1303               	bcf	3,6	;RP1=0, select bank0
  2043  0F3F  0849               	movf	sprintf@c,w
  2044  0F40  00B9               	movwf	??_sprintf
  2045  0F41  01BA               	clrf	??_sprintf+1
  2046  0F42  0839               	movf	??_sprintf,w
  2047  0F43  00C7               	movwf	sprintf@prec
  2048  0F44  083A               	movf	??_sprintf+1,w
  2049  0F45  00C8               	movwf	sprintf@prec+1
  2050  0F46                     l736:
  2051                           
  2052                           ;D:\Program Files\Microchip\xc8\v2.31\pic\sources\c90\common\doprnt.c: 1407:   if(width 
      +                          > c)
  2053  0F46  1283               	bcf	3,5	;RP0=0, select bank0
  2054  0F47  1303               	bcf	3,6	;RP1=0, select bank0
  2055  0F48  0846               	movf	sprintf@width+1,w
  2056  0F49  3A80               	xorlw	128
  2057  0F4A  3C80               	sublw	128
  2058  0F4B  1D03               	skipz
  2059  0F4C  2F4F               	goto	u3285
  2060  0F4D  0845               	movf	sprintf@width,w
  2061  0F4E  0249               	subwf	sprintf@c,w
  2062  0F4F                     u3285:
  2063  0F4F  1803               	skipnc
  2064  0F50  2F52               	goto	u3281
  2065  0F51  2F53               	goto	u3280
  2066  0F52                     u3281:
  2067  0F52  2F5F               	goto	l2352
  2068  0F53                     u3280:
  2069  0F53                     l2350:
  2070                           
  2071                           ;D:\Program Files\Microchip\xc8\v2.31\pic\sources\c90\common\doprnt.c: 1408:    width -=
      +                           c;
  2072  0F53  1283               	bcf	3,5	;RP0=0, select bank0
  2073  0F54  1303               	bcf	3,6	;RP1=0, select bank0
  2074  0F55  0849               	movf	sprintf@c,w
  2075  0F56  00B9               	movwf	??_sprintf
  2076  0F57  01BA               	clrf	??_sprintf+1
  2077  0F58  0839               	movf	??_sprintf,w
  2078  0F59  02C5               	subwf	sprintf@width,f
  2079  0F5A  083A               	movf	??_sprintf+1,w
  2080  0F5B  1C03               	skipc
  2081  0F5C  03C6               	decf	sprintf@width+1,f
  2082  0F5D  02C6               	subwf	sprintf@width+1,f
  2083  0F5E  2F63               	goto	l2354
  2084  0F5F                     l2352:
  2085                           
  2086                           ;D:\Program Files\Microchip\xc8\v2.31\pic\sources\c90\common\doprnt.c: 1410:    width = 
      +                          0;
  2087  0F5F  1283               	bcf	3,5	;RP0=0, select bank0
  2088  0F60  1303               	bcf	3,6	;RP1=0, select bank0
  2089  0F61  01C5               	clrf	sprintf@width
  2090  0F62  01C6               	clrf	sprintf@width+1
  2091  0F63                     l2354:
  2092                           
  2093                           ;D:\Program Files\Microchip\xc8\v2.31\pic\sources\c90\common\doprnt.c: 1448:   {;D:\Prog
      +                          ram Files\Microchip\xc8\v2.31\pic\sources\c90\common\doprnt.c: 1450:    if(width
  2094  0F63  0845               	movf	sprintf@width,w
  2095  0F64  0446               	iorwf	sprintf@width+1,w
  2096  0F65  1903               	btfsc	3,2
  2097  0F66  2F68               	goto	u3291
  2098  0F67  2F69               	goto	u3290
  2099  0F68                     u3291:
  2100  0F68  2FDB               	goto	l2368
  2101  0F69                     u3290:
  2102  0F69                     l2356:
  2103                           
  2104                           ;D:\Program Files\Microchip\xc8\v2.31\pic\sources\c90\common\doprnt.c: 1456:      ((*sp+
      +                          + = (' ')));
  2105  0F69  3020               	movlw	32
  2106  0F6A  00B9               	movwf	??_sprintf
  2107  0F6B  0844               	movf	sprintf@sp,w
  2108  0F6C  0084               	movwf	4
  2109  0F6D  0839               	movf	??_sprintf,w
  2110  0F6E  1383               	bcf	3,7	;select IRP bank0
  2111  0F6F  0080               	movwf	0
  2112  0F70                     l2358:
  2113  0F70  3001               	movlw	1
  2114  0F71  00B9               	movwf	??_sprintf
  2115  0F72  0839               	movf	??_sprintf,w
  2116  0F73  07C4               	addwf	sprintf@sp,f
  2117  0F74                     l2360:
  2118  0F74  30FF               	movlw	255
  2119  0F75  07C5               	addwf	sprintf@width,f
  2120  0F76  1803               	skipnc
  2121  0F77  0AC6               	incf	sprintf@width+1,f
  2122  0F78  30FF               	movlw	255
  2123  0F79  07C6               	addwf	sprintf@width+1,f
  2124  0F7A  0845               	movf	sprintf@width,w
  2125  0F7B  0446               	iorwf	sprintf@width+1,w
  2126  0F7C  1D03               	btfss	3,2
  2127  0F7D  2F7F               	goto	u3301
  2128  0F7E  2F80               	goto	u3300
  2129  0F7F                     u3301:
  2130  0F7F  2F69               	goto	l2356
  2131  0F80                     u3300:
  2132  0F80  2FDB               	goto	l2368
  2133  0F81                     l2362:
  2134                           
  2135                           ;D:\Program Files\Microchip\xc8\v2.31\pic\sources\c90\common\doprnt.c: 1504:    {;D:\Pro
      +                          gram Files\Microchip\xc8\v2.31\pic\sources\c90\common\doprnt.c: 1515:     c = (val / dpo
      +                          wers[(unsigned int)prec]) % 10 + '0';
  2136  0F81  3000               	movlw	0
  2137  0F82  00A9               	movwf	___llmod@divisor+3
  2138  0F83  3000               	movlw	0
  2139  0F84  00A8               	movwf	___llmod@divisor+2
  2140  0F85  3000               	movlw	0
  2141  0F86  00A7               	movwf	___llmod@divisor+1
  2142  0F87  300A               	movlw	10
  2143  0F88  00A6               	movwf	___llmod@divisor
  2144  0F89  0847               	movf	sprintf@prec,w
  2145  0F8A  00B9               	movwf	??_sprintf
  2146  0F8B  3001               	movlw	1
  2147  0F8C                     u3315:
  2148  0F8C  1003               	clrc
  2149  0F8D  0DB9               	rlf	??_sprintf,f
  2150  0F8E  3EFF               	addlw	-1
  2151  0F8F  1D03               	skipz
  2152  0F90  2F8C               	goto	u3315
  2153  0F91  1003               	clrc
  2154  0F92  0D39               	rlf	??_sprintf,w
  2155  0F93  3E01               	addlw	low ((_dpowers-__stringbase)| (0+32768))
  2156  0F94  0084               	movwf	4
  2157  0F95  120A  158A  2000  120A  158A  	fcall	stringdir
  2158  0F9A  00F3               	movwf	___lldiv@divisor
  2159  0F9B  120A  158A  2000  120A  158A  	fcall	stringdir
  2160  0FA0  00F4               	movwf	___lldiv@divisor+1
  2161  0FA1  120A  158A  2000  120A  158A  	fcall	stringdir
  2162  0FA6  00F5               	movwf	___lldiv@divisor+2
  2163  0FA7  120A  158A  2000  120A  158A  	fcall	stringdir
  2164  0FAC  00F6               	movwf	___lldiv@divisor+3
  2165  0FAD  0843               	movf	sprintf@val+3,w
  2166  0FAE  00FA               	movwf	___lldiv@dividend+3
  2167  0FAF  0842               	movf	sprintf@val+2,w
  2168  0FB0  00F9               	movwf	___lldiv@dividend+2
  2169  0FB1  0841               	movf	sprintf@val+1,w
  2170  0FB2  00F8               	movwf	___lldiv@dividend+1
  2171  0FB3  0840               	movf	sprintf@val,w
  2172  0FB4  00F7               	movwf	___lldiv@dividend
  2173  0FB5  120A  158A  2253  120A  158A  	fcall	___lldiv
  2174  0FBA  0876               	movf	?___lldiv+3,w
  2175  0FBB  1283               	bcf	3,5	;RP0=0, select bank0
  2176  0FBC  1303               	bcf	3,6	;RP1=0, select bank0
  2177  0FBD  00AD               	movwf	___llmod@dividend+3
  2178  0FBE  0875               	movf	?___lldiv+2,w
  2179  0FBF  00AC               	movwf	___llmod@dividend+2
  2180  0FC0  0874               	movf	?___lldiv+1,w
  2181  0FC1  00AB               	movwf	___llmod@dividend+1
  2182  0FC2  0873               	movf	?___lldiv,w
  2183  0FC3  00AA               	movwf	___llmod@dividend
  2184  0FC4  120A  158A  219A  120A  158A  	fcall	___llmod
  2185  0FC9  1283               	bcf	3,5	;RP0=0, select bank0
  2186  0FCA  1303               	bcf	3,6	;RP1=0, select bank0
  2187  0FCB  0826               	movf	?___llmod,w
  2188  0FCC  3E30               	addlw	48
  2189  0FCD  00BA               	movwf	??_sprintf+1
  2190  0FCE  083A               	movf	??_sprintf+1,w
  2191  0FCF  00C9               	movwf	sprintf@c
  2192  0FD0                     l2364:
  2193                           
  2194                           ;D:\Program Files\Microchip\xc8\v2.31\pic\sources\c90\common\doprnt.c: 1549:    };D:\Pro
      +                          gram Files\Microchip\xc8\v2.31\pic\sources\c90\common\doprnt.c: 1550:    ((*sp++ = (c)))
      +                          ;
  2195  0FD0  0849               	movf	sprintf@c,w
  2196  0FD1  00B9               	movwf	??_sprintf
  2197  0FD2  0844               	movf	sprintf@sp,w
  2198  0FD3  0084               	movwf	4
  2199  0FD4  0839               	movf	??_sprintf,w
  2200  0FD5  1383               	bcf	3,7	;select IRP bank0
  2201  0FD6  0080               	movwf	0
  2202  0FD7                     l2366:
  2203  0FD7  3001               	movlw	1
  2204  0FD8  00B9               	movwf	??_sprintf
  2205  0FD9  0839               	movf	??_sprintf,w
  2206  0FDA  07C4               	addwf	sprintf@sp,f
  2207  0FDB                     l2368:
  2208                           
  2209                           ;D:\Program Files\Microchip\xc8\v2.31\pic\sources\c90\common\doprnt.c: 1500:   while(pre
      +                          c--) {
  2210  0FDB  30FF               	movlw	255
  2211  0FDC  07C7               	addwf	sprintf@prec,f
  2212  0FDD  1803               	skipnc
  2213  0FDE  0AC8               	incf	sprintf@prec+1,f
  2214  0FDF  30FF               	movlw	255
  2215  0FE0  07C8               	addwf	sprintf@prec+1,f
  2216  0FE1  0A47               	incf	sprintf@prec,w
  2217  0FE2  1D03               	skipz
  2218  0FE3  2FE8               	goto	u3321
  2219  0FE4  0A48               	incf	sprintf@prec+1,w
  2220  0FE5  1D03               	btfss	3,2
  2221  0FE6  2FE8               	goto	u3321
  2222  0FE7  2FE9               	goto	u3320
  2223  0FE8                     u3321:
  2224  0FE8  2F81               	goto	l2362
  2225  0FE9                     u3320:
  2226  0FE9                     l2370:
  2227                           
  2228                           ;D:\Program Files\Microchip\xc8\v2.31\pic\sources\c90\common\doprnt.c: 553:  while((c = 
      +                          *f++)) {
  2229  0FE9  3001               	movlw	1
  2230  0FEA  07B0               	addwf	sprintf@f,f
  2231  0FEB  30FF               	movlw	-1
  2232  0FEC  0730               	addwf	sprintf@f,w
  2233  0FED  0084               	movwf	4
  2234  0FEE  120A  158A  2000  120A  158A  	fcall	stringdir
  2235  0FF3  00B9               	movwf	??_sprintf
  2236  0FF4  0839               	movf	??_sprintf,w
  2237  0FF5  00C9               	movwf	sprintf@c
  2238  0FF6  0849               	movf	sprintf@c,w
  2239  0FF7  1D03               	btfss	3,2
  2240  0FF8  2FFA               	goto	u3331
  2241  0FF9  2FFB               	goto	u3330
  2242  0FFA                     u3331:
  2243  0FFA  2DBC               	goto	l2274
  2244  0FFB                     u3330:
  2245  0FFB                     l2372:
  2246                           
  2247                           ;D:\Program Files\Microchip\xc8\v2.31\pic\sources\c90\common\doprnt.c: 1564:  *sp = 0;
  2248  0FFB  0844               	movf	sprintf@sp,w
  2249  0FFC  0084               	movwf	4
  2250  0FFD  1383               	bcf	3,7	;select IRP bank0
  2251  0FFE  0180               	clrf	0
  2252  0FFF                     l747:
  2253  0FFF  0008               	return
  2254  1000                     __end_of_sprintf:
  2255                           
  2256                           	psect	text4
  2257  0859                     __ptext4:	
  2258 ;; *************** function _isdigit *****************
  2259 ;; Defined at:
  2260 ;;		line 8 in file "D:\Program Files\Microchip\xc8\v2.31\pic\sources\c90\common\isdigit.c"
  2261 ;; Parameters:    Size  Location     Type
  2262 ;;  c               1    wreg     unsigned char 
  2263 ;; Auto vars:     Size  Location     Type
  2264 ;;  c               1    4[COMMON] unsigned char 
  2265 ;; Return value:  Size  Location     Type
  2266 ;;		None               void
  2267 ;; Registers used:
  2268 ;;		wreg, status,2, status,0
  2269 ;; Tracked objects:
  2270 ;;		On entry : 0/0
  2271 ;;		On exit  : 0/0
  2272 ;;		Unchanged: 0/0
  2273 ;; Data sizes:     COMMON   BANK0   BANK1   BANK3   BANK2
  2274 ;;      Params:         0       0       0       0       0
  2275 ;;      Locals:         2       0       0       0       0
  2276 ;;      Temps:          0       0       0       0       0
  2277 ;;      Totals:         2       0       0       0       0
  2278 ;;Total ram usage:        2 bytes
  2279 ;; Hardware stack levels used:    1
  2280 ;; Hardware stack levels required when called:    1
  2281 ;; This function calls:
  2282 ;;		Nothing
  2283 ;; This function is called by:
  2284 ;;		_sprintf
  2285 ;; This function uses a non-reentrant model
  2286 ;;
  2287                           
  2288                           
  2289                           ;psect for function _isdigit
  2290  0859                     _isdigit:
  2291                           
  2292                           ;incstack = 0
  2293                           ; Regs used in _isdigit: [wreg+status,2+status,0]
  2294                           ;isdigit@c stored from wreg
  2295  0859  00F4               	movwf	isdigit@c
  2296  085A                     l1970:
  2297  085A  01F3               	clrf	_isdigit$688
  2298  085B                     l1972:
  2299  085B  303A               	movlw	58
  2300  085C  0274               	subwf	isdigit@c,w
  2301  085D  1803               	skipnc
  2302  085E  2860               	goto	u2391
  2303  085F  2861               	goto	u2390
  2304  0860                     u2391:
  2305  0860  2869               	goto	l1978
  2306  0861                     u2390:
  2307  0861                     l1974:
  2308  0861  3030               	movlw	48
  2309  0862  0274               	subwf	isdigit@c,w
  2310  0863  1C03               	skipc
  2311  0864  2866               	goto	u2401
  2312  0865  2867               	goto	u2400
  2313  0866                     u2401:
  2314  0866  2869               	goto	l1978
  2315  0867                     u2400:
  2316  0867                     l1976:
  2317  0867  01F3               	clrf	_isdigit$688
  2318  0868  0AF3               	incf	_isdigit$688,f
  2319  0869                     l1978:
  2320  0869  0C73               	rrf	_isdigit$688,w
  2321  086A                     l752:
  2322  086A  0008               	return
  2323  086B                     __end_of_isdigit:
  2324                           
  2325                           	psect	text5
  2326  08B2                     __ptext5:	
  2327 ;; *************** function ___wmul *****************
  2328 ;; Defined at:
  2329 ;;		line 15 in file "D:\Program Files\Microchip\xc8\v2.31\pic\sources\c90\common\Umul16.c"
  2330 ;; Parameters:    Size  Location     Type
  2331 ;;  multiplier      2    3[COMMON] unsigned int 
  2332 ;;  multiplicand    2    5[COMMON] unsigned int 
  2333 ;; Auto vars:     Size  Location     Type
  2334 ;;  product         2    7[COMMON] unsigned int 
  2335 ;; Return value:  Size  Location     Type
  2336 ;;                  2    3[COMMON] unsigned int 
  2337 ;; Registers used:
  2338 ;;		wreg, status,2, status,0
  2339 ;; Tracked objects:
  2340 ;;		On entry : 0/0
  2341 ;;		On exit  : 0/0
  2342 ;;		Unchanged: 0/0
  2343 ;; Data sizes:     COMMON   BANK0   BANK1   BANK3   BANK2
  2344 ;;      Params:         4       0       0       0       0
  2345 ;;      Locals:         2       0       0       0       0
  2346 ;;      Temps:          0       0       0       0       0
  2347 ;;      Totals:         6       0       0       0       0
  2348 ;;Total ram usage:        6 bytes
  2349 ;; Hardware stack levels used:    1
  2350 ;; Hardware stack levels required when called:    1
  2351 ;; This function calls:
  2352 ;;		Nothing
  2353 ;; This function is called by:
  2354 ;;		_sprintf
  2355 ;; This function uses a non-reentrant model
  2356 ;;
  2357                           
  2358                           
  2359                           ;psect for function ___wmul
  2360  08B2                     ___wmul:
  2361  08B2                     l1704:	
  2362                           ;incstack = 0
  2363                           ; Regs used in ___wmul: [wreg+status,2+status,0]
  2364                           
  2365  08B2  01F7               	clrf	___wmul@product
  2366  08B3  01F8               	clrf	___wmul@product+1
  2367  08B4                     l1706:
  2368  08B4  1C73               	btfss	___wmul@multiplier,0
  2369  08B5  28B7               	goto	u1731
  2370  08B6  28B8               	goto	u1730
  2371  08B7                     u1731:
  2372  08B7  28BE               	goto	l243
  2373  08B8                     u1730:
  2374  08B8                     l1708:
  2375  08B8  0875               	movf	___wmul@multiplicand,w
  2376  08B9  07F7               	addwf	___wmul@product,f
  2377  08BA  1803               	skipnc
  2378  08BB  0AF8               	incf	___wmul@product+1,f
  2379  08BC  0876               	movf	___wmul@multiplicand+1,w
  2380  08BD  07F8               	addwf	___wmul@product+1,f
  2381  08BE                     l243:
  2382  08BE  3001               	movlw	1
  2383  08BF                     u1745:
  2384  08BF  1003               	clrc
  2385  08C0  0DF5               	rlf	___wmul@multiplicand,f
  2386  08C1  0DF6               	rlf	___wmul@multiplicand+1,f
  2387  08C2  3EFF               	addlw	-1
  2388  08C3  1D03               	skipz
  2389  08C4  28BF               	goto	u1745
  2390  08C5                     l1710:
  2391  08C5  3001               	movlw	1
  2392  08C6                     u1755:
  2393  08C6  1003               	clrc
  2394  08C7  0CF4               	rrf	___wmul@multiplier+1,f
  2395  08C8  0CF3               	rrf	___wmul@multiplier,f
  2396  08C9  3EFF               	addlw	-1
  2397  08CA  1D03               	skipz
  2398  08CB  28C6               	goto	u1755
  2399  08CC                     l1712:
  2400  08CC  0873               	movf	___wmul@multiplier,w
  2401  08CD  0474               	iorwf	___wmul@multiplier+1,w
  2402  08CE  1D03               	btfss	3,2
  2403  08CF  28D1               	goto	u1761
  2404  08D0  28D2               	goto	u1760
  2405  08D1                     u1761:
  2406  08D1  28B4               	goto	l1706
  2407  08D2                     u1760:
  2408  08D2                     l1714:
  2409  08D2  0878               	movf	___wmul@product+1,w
  2410  08D3  00F4               	movwf	?___wmul+1
  2411  08D4  0877               	movf	___wmul@product,w
  2412  08D5  00F3               	movwf	?___wmul
  2413  08D6                     l245:
  2414  08D6  0008               	return
  2415  08D7                     __end_of___wmul:
  2416                           
  2417                           	psect	text6
  2418  099A                     __ptext6:	
  2419 ;; *************** function ___llmod *****************
  2420 ;; Defined at:
  2421 ;;		line 5 in file "D:\Program Files\Microchip\xc8\v2.31\pic\sources\c90\common\llmod.c"
  2422 ;; Parameters:    Size  Location     Type
  2423 ;;  divisor         4    6[BANK0 ] unsigned long 
  2424 ;;  dividend        4   10[BANK0 ] unsigned long 
  2425 ;; Auto vars:     Size  Location     Type
  2426 ;;  counter         1   15[BANK0 ] unsigned char 
  2427 ;; Return value:  Size  Location     Type
  2428 ;;                  4    6[BANK0 ] unsigned long 
  2429 ;; Registers used:
  2430 ;;		wreg, status,2, status,0
  2431 ;; Tracked objects:
  2432 ;;		On entry : 0/0
  2433 ;;		On exit  : 0/0
  2434 ;;		Unchanged: 0/0
  2435 ;; Data sizes:     COMMON   BANK0   BANK1   BANK3   BANK2
  2436 ;;      Params:         0       8       0       0       0
  2437 ;;      Locals:         0       1       0       0       0
  2438 ;;      Temps:          0       1       0       0       0
  2439 ;;      Totals:         0      10       0       0       0
  2440 ;;Total ram usage:       10 bytes
  2441 ;; Hardware stack levels used:    1
  2442 ;; Hardware stack levels required when called:    1
  2443 ;; This function calls:
  2444 ;;		Nothing
  2445 ;; This function is called by:
  2446 ;;		_sprintf
  2447 ;; This function uses a non-reentrant model
  2448 ;;
  2449                           
  2450                           
  2451                           ;psect for function ___llmod
  2452  099A                     ___llmod:
  2453  099A                     l1742:	
  2454                           ;incstack = 0
  2455                           ; Regs used in ___llmod: [wreg+status,2+status,0]
  2456                           
  2457  099A  1283               	bcf	3,5	;RP0=0, select bank0
  2458  099B  1303               	bcf	3,6	;RP1=0, select bank0
  2459  099C  0829               	movf	___llmod@divisor+3,w
  2460  099D  0428               	iorwf	___llmod@divisor+2,w
  2461  099E  0427               	iorwf	___llmod@divisor+1,w
  2462  099F  0426               	iorwf	___llmod@divisor,w
  2463  09A0  1903               	skipnz
  2464  09A1  29A3               	goto	u1841
  2465  09A2  29A4               	goto	u1840
  2466  09A3                     u1841:
  2467  09A3  29E7               	goto	l1758
  2468  09A4                     u1840:
  2469  09A4                     l1744:
  2470  09A4  01AF               	clrf	___llmod@counter
  2471  09A5  0AAF               	incf	___llmod@counter,f
  2472  09A6  29B4               	goto	l1748
  2473  09A7                     l1746:
  2474  09A7  3001               	movlw	1
  2475  09A8  00AE               	movwf	??___llmod
  2476  09A9                     u1855:
  2477  09A9  1003               	clrc
  2478  09AA  0DA6               	rlf	___llmod@divisor,f
  2479  09AB  0DA7               	rlf	___llmod@divisor+1,f
  2480  09AC  0DA8               	rlf	___llmod@divisor+2,f
  2481  09AD  0DA9               	rlf	___llmod@divisor+3,f
  2482  09AE  0BAE               	decfsz	??___llmod,f
  2483  09AF  29A9               	goto	u1855
  2484  09B0  3001               	movlw	1
  2485  09B1  00AE               	movwf	??___llmod
  2486  09B2  082E               	movf	??___llmod,w
  2487  09B3  07AF               	addwf	___llmod@counter,f
  2488  09B4                     l1748:
  2489  09B4  1FA9               	btfss	___llmod@divisor+3,7
  2490  09B5  29B7               	goto	u1861
  2491  09B6  29B8               	goto	u1860
  2492  09B7                     u1861:
  2493  09B7  29A7               	goto	l1746
  2494  09B8                     u1860:
  2495  09B8                     l1750:
  2496  09B8  0829               	movf	___llmod@divisor+3,w
  2497  09B9  022D               	subwf	___llmod@dividend+3,w
  2498  09BA  1D03               	skipz
  2499  09BB  29C6               	goto	u1875
  2500  09BC  0828               	movf	___llmod@divisor+2,w
  2501  09BD  022C               	subwf	___llmod@dividend+2,w
  2502  09BE  1D03               	skipz
  2503  09BF  29C6               	goto	u1875
  2504  09C0  0827               	movf	___llmod@divisor+1,w
  2505  09C1  022B               	subwf	___llmod@dividend+1,w
  2506  09C2  1D03               	skipz
  2507  09C3  29C6               	goto	u1875
  2508  09C4  0826               	movf	___llmod@divisor,w
  2509  09C5  022A               	subwf	___llmod@dividend,w
  2510  09C6                     u1875:
  2511  09C6  1C03               	skipc
  2512  09C7  29C9               	goto	u1871
  2513  09C8  29CA               	goto	u1870
  2514  09C9                     u1871:
  2515  09C9  29D8               	goto	l1754
  2516  09CA                     u1870:
  2517  09CA                     l1752:
  2518  09CA  0826               	movf	___llmod@divisor,w
  2519  09CB  02AA               	subwf	___llmod@dividend,f
  2520  09CC  0827               	movf	___llmod@divisor+1,w
  2521  09CD  1C03               	skipc
  2522  09CE  0F27               	incfsz	___llmod@divisor+1,w
  2523  09CF  02AB               	subwf	___llmod@dividend+1,f
  2524  09D0  0828               	movf	___llmod@divisor+2,w
  2525  09D1  1C03               	skipc
  2526  09D2  0F28               	incfsz	___llmod@divisor+2,w
  2527  09D3  02AC               	subwf	___llmod@dividend+2,f
  2528  09D4  0829               	movf	___llmod@divisor+3,w
  2529  09D5  1C03               	skipc
  2530  09D6  0F29               	incfsz	___llmod@divisor+3,w
  2531  09D7  02AD               	subwf	___llmod@dividend+3,f
  2532  09D8                     l1754:
  2533  09D8  3001               	movlw	1
  2534  09D9                     u1885:
  2535  09D9  1003               	clrc
  2536  09DA  0CA9               	rrf	___llmod@divisor+3,f
  2537  09DB  0CA8               	rrf	___llmod@divisor+2,f
  2538  09DC  0CA7               	rrf	___llmod@divisor+1,f
  2539  09DD  0CA6               	rrf	___llmod@divisor,f
  2540  09DE  3EFF               	addlw	-1
  2541  09DF  1D03               	skipz
  2542  09E0  29D9               	goto	u1885
  2543  09E1                     l1756:
  2544  09E1  3001               	movlw	1
  2545  09E2  02AF               	subwf	___llmod@counter,f
  2546  09E3  1D03               	btfss	3,2
  2547  09E4  29E6               	goto	u1891
  2548  09E5  29E7               	goto	u1890
  2549  09E6                     u1891:
  2550  09E6  29B8               	goto	l1750
  2551  09E7                     u1890:
  2552  09E7                     l1758:
  2553  09E7  082D               	movf	___llmod@dividend+3,w
  2554  09E8  00A9               	movwf	?___llmod+3
  2555  09E9  082C               	movf	___llmod@dividend+2,w
  2556  09EA  00A8               	movwf	?___llmod+2
  2557  09EB  082B               	movf	___llmod@dividend+1,w
  2558  09EC  00A7               	movwf	?___llmod+1
  2559  09ED  082A               	movf	___llmod@dividend,w
  2560  09EE  00A6               	movwf	?___llmod
  2561  09EF                     l465:
  2562  09EF  0008               	return
  2563  09F0                     __end_of___llmod:
  2564                           
  2565                           	psect	text7
  2566  0ABB                     __ptext7:	
  2567 ;; *************** function ___fltol *****************
  2568 ;; Defined at:
  2569 ;;		line 43 in file "D:\Program Files\Microchip\xc8\v2.31\pic\sources\c90\common\fltol.c"
  2570 ;; Parameters:    Size  Location     Type
  2571 ;;  f1              4   32[BANK0 ] unsigned long 
  2572 ;; Auto vars:     Size  Location     Type
  2573 ;;  exp1            1   42[BANK0 ] unsigned char 
  2574 ;;  sign1           1   41[BANK0 ] unsigned char 
  2575 ;; Return value:  Size  Location     Type
  2576 ;;                  4   32[BANK0 ] long 
  2577 ;; Registers used:
  2578 ;;		wreg, status,2, status,0
  2579 ;; Tracked objects:
  2580 ;;		On entry : 0/0
  2581 ;;		On exit  : 0/0
  2582 ;;		Unchanged: 0/0
  2583 ;; Data sizes:     COMMON   BANK0   BANK1   BANK3   BANK2
  2584 ;;      Params:         0       4       0       0       0
  2585 ;;      Locals:         0       2       0       0       0
  2586 ;;      Temps:          0       5       0       0       0
  2587 ;;      Totals:         0      11       0       0       0
  2588 ;;Total ram usage:       11 bytes
  2589 ;; Hardware stack levels used:    1
  2590 ;; Hardware stack levels required when called:    1
  2591 ;; This function calls:
  2592 ;;		Nothing
  2593 ;; This function is called by:
  2594 ;;		_ftoa
  2595 ;; This function uses a non-reentrant model
  2596 ;;
  2597                           
  2598                           
  2599                           ;psect for function ___fltol
  2600  0ABB                     ___fltol:
  2601  0ABB                     l2046:	
  2602                           ;incstack = 0
  2603                           ; Regs used in ___fltol: [wreg+status,2+status,0]
  2604                           
  2605  0ABB  1003               	clrc
  2606  0ABC  1283               	bcf	3,5	;RP0=0, select bank0
  2607  0ABD  1303               	bcf	3,6	;RP1=0, select bank0
  2608  0ABE  0D42               	rlf	___fltol@f1+2,w
  2609  0ABF  0D43               	rlf	___fltol@f1+3,w
  2610  0AC0  00C4               	movwf	??___fltol
  2611  0AC1  0844               	movf	??___fltol,w
  2612  0AC2  00CA               	movwf	___fltol@exp1
  2613  0AC3  084A               	movf	___fltol@exp1,w
  2614  0AC4  1D03               	btfss	3,2
  2615  0AC5  2AC7               	goto	u2541
  2616  0AC6  2AC8               	goto	u2540
  2617  0AC7                     u2541:
  2618  0AC7  2AD1               	goto	l2052
  2619  0AC8                     u2540:
  2620  0AC8                     l2048:
  2621  0AC8  3000               	movlw	0
  2622  0AC9  00C3               	movwf	?___fltol+3
  2623  0ACA  3000               	movlw	0
  2624  0ACB  00C2               	movwf	?___fltol+2
  2625  0ACC  3000               	movlw	0
  2626  0ACD  00C1               	movwf	?___fltol+1
  2627  0ACE  3000               	movlw	0
  2628  0ACF  00C0               	movwf	?___fltol
  2629  0AD0  2B36               	goto	l429
  2630  0AD1                     l2052:
  2631  0AD1  0840               	movf	___fltol@f1,w
  2632  0AD2  00C4               	movwf	??___fltol
  2633  0AD3  0841               	movf	___fltol@f1+1,w
  2634  0AD4  00C5               	movwf	??___fltol+1
  2635  0AD5  0842               	movf	___fltol@f1+2,w
  2636  0AD6  00C6               	movwf	??___fltol+2
  2637  0AD7  0843               	movf	___fltol@f1+3,w
  2638  0AD8  00C7               	movwf	??___fltol+3
  2639  0AD9  301F               	movlw	31
  2640  0ADA                     u2555:
  2641  0ADA  1003               	clrc
  2642  0ADB  0CC7               	rrf	??___fltol+3,f
  2643  0ADC  0CC6               	rrf	??___fltol+2,f
  2644  0ADD  0CC5               	rrf	??___fltol+1,f
  2645  0ADE  0CC4               	rrf	??___fltol,f
  2646  0ADF                     u2550:
  2647  0ADF  3EFF               	addlw	-1
  2648  0AE0  1D03               	skipz
  2649  0AE1  2ADA               	goto	u2555
  2650  0AE2  0844               	movf	??___fltol,w
  2651  0AE3  00C8               	movwf	??___fltol+4
  2652  0AE4  0848               	movf	??___fltol+4,w
  2653  0AE5  00C9               	movwf	___fltol@sign1
  2654  0AE6                     l2054:
  2655  0AE6  17C2               	bsf	___fltol@f1+2,7
  2656  0AE7                     l2056:
  2657  0AE7  30FF               	movlw	255
  2658  0AE8  05C0               	andwf	___fltol@f1,f
  2659  0AE9  30FF               	movlw	255
  2660  0AEA  05C1               	andwf	___fltol@f1+1,f
  2661  0AEB  30FF               	movlw	255
  2662  0AEC  05C2               	andwf	___fltol@f1+2,f
  2663  0AED  3000               	movlw	0
  2664  0AEE  05C3               	andwf	___fltol@f1+3,f
  2665  0AEF                     l2058:
  2666  0AEF  3096               	movlw	150
  2667  0AF0  02CA               	subwf	___fltol@exp1,f
  2668  0AF1                     l2060:
  2669  0AF1  1FCA               	btfss	___fltol@exp1,7
  2670  0AF2  2AF4               	goto	u2561
  2671  0AF3  2AF5               	goto	u2560
  2672  0AF4                     u2561:
  2673  0AF4  2B0F               	goto	l2070
  2674  0AF5                     u2560:
  2675  0AF5                     l2062:
  2676  0AF5  084A               	movf	___fltol@exp1,w
  2677  0AF6  3A80               	xorlw	128
  2678  0AF7  3E97               	addlw	151
  2679  0AF8  1803               	skipnc
  2680  0AF9  2AFB               	goto	u2571
  2681  0AFA  2AFC               	goto	u2570
  2682  0AFB                     u2571:
  2683  0AFB  2AFD               	goto	l2068
  2684  0AFC                     u2570:
  2685  0AFC  2AC8               	goto	l2048
  2686  0AFD                     l2068:
  2687  0AFD  3001               	movlw	1
  2688  0AFE                     u2585:
  2689  0AFE  1003               	clrc
  2690  0AFF  0CC3               	rrf	___fltol@f1+3,f
  2691  0B00  0CC2               	rrf	___fltol@f1+2,f
  2692  0B01  0CC1               	rrf	___fltol@f1+1,f
  2693  0B02  0CC0               	rrf	___fltol@f1,f
  2694  0B03  3EFF               	addlw	-1
  2695  0B04  1D03               	skipz
  2696  0B05  2AFE               	goto	u2585
  2697  0B06  3001               	movlw	1
  2698  0B07  00C4               	movwf	??___fltol
  2699  0B08  0844               	movf	??___fltol,w
  2700  0B09  07CA               	addwf	___fltol@exp1,f
  2701  0B0A  1D03               	btfss	3,2
  2702  0B0B  2B0D               	goto	u2591
  2703  0B0C  2B0E               	goto	u2590
  2704  0B0D                     u2591:
  2705  0B0D  2AFD               	goto	l2068
  2706  0B0E                     u2590:
  2707  0B0E  2B26               	goto	l2078
  2708  0B0F                     l2070:
  2709  0B0F  3020               	movlw	32
  2710  0B10  024A               	subwf	___fltol@exp1,w
  2711  0B11  1C03               	skipc
  2712  0B12  2B14               	goto	u2601
  2713  0B13  2B15               	goto	u2600
  2714  0B14                     u2601:
  2715  0B14  2B21               	goto	l436
  2716  0B15                     u2600:
  2717  0B15  2AC8               	goto	l2048
  2718  0B16                     l2076:
  2719  0B16  3001               	movlw	1
  2720  0B17  00C4               	movwf	??___fltol
  2721  0B18                     u2615:
  2722  0B18  1003               	clrc
  2723  0B19  0DC0               	rlf	___fltol@f1,f
  2724  0B1A  0DC1               	rlf	___fltol@f1+1,f
  2725  0B1B  0DC2               	rlf	___fltol@f1+2,f
  2726  0B1C  0DC3               	rlf	___fltol@f1+3,f
  2727  0B1D  0BC4               	decfsz	??___fltol,f
  2728  0B1E  2B18               	goto	u2615
  2729  0B1F  3001               	movlw	1
  2730  0B20  02CA               	subwf	___fltol@exp1,f
  2731  0B21                     l436:
  2732  0B21  084A               	movf	___fltol@exp1,w
  2733  0B22  1D03               	btfss	3,2
  2734  0B23  2B25               	goto	u2621
  2735  0B24  2B26               	goto	u2620
  2736  0B25                     u2621:
  2737  0B25  2B16               	goto	l2076
  2738  0B26                     u2620:
  2739  0B26                     l2078:
  2740  0B26  0849               	movf	___fltol@sign1,w
  2741  0B27  1903               	btfsc	3,2
  2742  0B28  2B2A               	goto	u2631
  2743  0B29  2B2B               	goto	u2630
  2744  0B2A                     u2631:
  2745  0B2A  2B36               	goto	l439
  2746  0B2B                     u2630:
  2747  0B2B                     l2080:
  2748  0B2B  09C0               	comf	___fltol@f1,f
  2749  0B2C  09C1               	comf	___fltol@f1+1,f
  2750  0B2D  09C2               	comf	___fltol@f1+2,f
  2751  0B2E  09C3               	comf	___fltol@f1+3,f
  2752  0B2F  0AC0               	incf	___fltol@f1,f
  2753  0B30  1903               	skipnz
  2754  0B31  0AC1               	incf	___fltol@f1+1,f
  2755  0B32  1903               	skipnz
  2756  0B33  0AC2               	incf	___fltol@f1+2,f
  2757  0B34  1903               	skipnz
  2758  0B35  0AC3               	incf	___fltol@f1+3,f
  2759  0B36                     l439:
  2760  0B36                     l429:
  2761  0B36  0008               	return
  2762  0B37                     __end_of___fltol:
  2763                           
  2764                           	psect	text8
  2765  088E                     __ptext8:	
  2766 ;; *************** function ___flsub *****************
  2767 ;; Defined at:
  2768 ;;		line 242 in file "D:\Program Files\Microchip\xc8\v2.31\pic\sources\c90\common\sprcadd.c"
  2769 ;; Parameters:    Size  Location     Type
  2770 ;;  a               4   12[BANK0 ] long 
  2771 ;;  b               4   16[BANK0 ] long 
  2772 ;; Auto vars:     Size  Location     Type
  2773 ;;		None
  2774 ;; Return value:  Size  Location     Type
  2775 ;;                  4   12[BANK0 ] long 
  2776 ;; Registers used:
  2777 ;;		wreg, status,2, status,0, btemp+1, pclath, cstack
  2778 ;; Tracked objects:
  2779 ;;		On entry : 0/0
  2780 ;;		On exit  : 0/0
  2781 ;;		Unchanged: 0/0
  2782 ;; Data sizes:     COMMON   BANK0   BANK1   BANK3   BANK2
  2783 ;;      Params:         0       8       0       0       0
  2784 ;;      Locals:         0       0       0       0       0
  2785 ;;      Temps:          0       0       0       0       0
  2786 ;;      Totals:         0       8       0       0       0
  2787 ;;Total ram usage:        8 bytes
  2788 ;; Hardware stack levels used:    1
  2789 ;; Hardware stack levels required when called:    2
  2790 ;; This function calls:
  2791 ;;		___fladd
  2792 ;; This function is called by:
  2793 ;;		_ftoa
  2794 ;; This function uses a non-reentrant model
  2795 ;;
  2796                           
  2797                           
  2798                           ;psect for function ___flsub
  2799  088E                     ___flsub:
  2800  088E                     l2082:	
  2801                           ;incstack = 0
  2802                           ; Regs used in ___flsub: [wreg+status,2+status,0+btemp+1+pclath+cstack]
  2803                           
  2804  088E  3080               	movlw	128
  2805  088F  1283               	bcf	3,5	;RP0=0, select bank0
  2806  0890  1303               	bcf	3,6	;RP1=0, select bank0
  2807  0891  06AF               	xorwf	___flsub@a+3,f
  2808  0892                     l2084:
  2809  0892  0833               	movf	___flsub@b+3,w
  2810  0893  00F6               	movwf	___fladd@b+3
  2811  0894  0832               	movf	___flsub@b+2,w
  2812  0895  00F5               	movwf	___fladd@b+2
  2813  0896  0831               	movf	___flsub@b+1,w
  2814  0897  00F4               	movwf	___fladd@b+1
  2815  0898  0830               	movf	___flsub@b,w
  2816  0899  00F3               	movwf	___fladd@b
  2817  089A  082F               	movf	___flsub@a+3,w
  2818  089B  00FA               	movwf	___fladd@a+3
  2819  089C  082E               	movf	___flsub@a+2,w
  2820  089D  00F9               	movwf	___fladd@a+2
  2821  089E  082D               	movf	___flsub@a+1,w
  2822  089F  00F8               	movwf	___fladd@a+1
  2823  08A0  082C               	movf	___flsub@a,w
  2824  08A1  00F7               	movwf	___fladd@a
  2825  08A2  120A  118A  2385  120A  158A  	fcall	___fladd
  2826  08A7  0876               	movf	?___fladd+3,w
  2827  08A8  1283               	bcf	3,5	;RP0=0, select bank0
  2828  08A9  1303               	bcf	3,6	;RP1=0, select bank0
  2829  08AA  00AF               	movwf	?___flsub+3
  2830  08AB  0875               	movf	?___fladd+2,w
  2831  08AC  00AE               	movwf	?___flsub+2
  2832  08AD  0874               	movf	?___fladd+1,w
  2833  08AE  00AD               	movwf	?___flsub+1
  2834  08AF  0873               	movf	?___fladd,w
  2835  08B0  00AC               	movwf	?___flsub
  2836  08B1                     l582:
  2837  08B1  0008               	return
  2838  08B2                     __end_of___flsub:
  2839                           
  2840                           	psect	text9
  2841  0385                     __ptext9:	
  2842 ;; *************** function ___fladd *****************
  2843 ;; Defined at:
  2844 ;;		line 10 in file "D:\Program Files\Microchip\xc8\v2.31\pic\sources\c90\common\sprcadd.c"
  2845 ;; Parameters:    Size  Location     Type
  2846 ;;  b               4    3[COMMON] long 
  2847 ;;  a               4    7[COMMON] long 
  2848 ;; Auto vars:     Size  Location     Type
  2849 ;;  grs             1   11[BANK0 ] unsigned char 
  2850 ;;  bexp            1   10[BANK0 ] unsigned char 
  2851 ;;  aexp            1    9[BANK0 ] unsigned char 
  2852 ;;  signs           1    8[BANK0 ] unsigned char 
  2853 ;; Return value:  Size  Location     Type
  2854 ;;                  4    3[COMMON] unsigned char 
  2855 ;; Registers used:
  2856 ;;		wreg, status,2, status,0, btemp+1
  2857 ;; Tracked objects:
  2858 ;;		On entry : 0/0
  2859 ;;		On exit  : 0/0
  2860 ;;		Unchanged: 0/0
  2861 ;; Data sizes:     COMMON   BANK0   BANK1   BANK3   BANK2
  2862 ;;      Params:         8       0       0       0       0
  2863 ;;      Locals:         0       4       0       0       0
  2864 ;;      Temps:          0       8       0       0       0
  2865 ;;      Totals:         8      12       0       0       0
  2866 ;;Total ram usage:       20 bytes
  2867 ;; Hardware stack levels used:    1
  2868 ;; Hardware stack levels required when called:    1
  2869 ;; This function calls:
  2870 ;;		Nothing
  2871 ;; This function is called by:
  2872 ;;		___flsub
  2873 ;; This function uses a non-reentrant model
  2874 ;;
  2875                           
  2876                           
  2877                           ;psect for function ___fladd
  2878  0385                     ___fladd:
  2879  0385                     l1762:	
  2880                           ;incstack = 0
  2881                           ; Regs used in ___fladd: [wreg+status,2+status,0+btemp+1]
  2882                           
  2883  0385  0876               	movf	___fladd@b+3,w
  2884  0386  3980               	andlw	128
  2885  0387  1283               	bcf	3,5	;RP0=0, select bank0
  2886  0388  1303               	bcf	3,6	;RP1=0, select bank0
  2887  0389  00A0               	movwf	??___fladd
  2888  038A  0820               	movf	??___fladd,w
  2889  038B  00A8               	movwf	___fladd@signs
  2890  038C                     l1764:
  2891  038C  0876               	movf	___fladd@b+3,w
  2892  038D  00A0               	movwf	??___fladd
  2893  038E  0720               	addwf	??___fladd,w
  2894  038F  00A1               	movwf	??___fladd+1
  2895  0390  0821               	movf	??___fladd+1,w
  2896  0391  00AA               	movwf	___fladd@bexp
  2897  0392                     l1766:
  2898  0392  1FF5               	btfss	___fladd@b+2,7
  2899  0393  2B95               	goto	u1901
  2900  0394  2B96               	goto	u1900
  2901  0395                     u1901:
  2902  0395  2B97               	goto	l1770
  2903  0396                     u1900:
  2904  0396                     l1768:
  2905  0396  142A               	bsf	___fladd@bexp,0
  2906  0397                     l1770:
  2907  0397  082A               	movf	___fladd@bexp,w
  2908  0398  1903               	btfsc	3,2
  2909  0399  2B9B               	goto	u1911
  2910  039A  2B9C               	goto	u1910
  2911  039B                     u1911:
  2912  039B  2BAC               	goto	l1780
  2913  039C                     u1910:
  2914  039C                     l1772:
  2915  039C  0A2A               	incf	___fladd@bexp,w
  2916  039D  1D03               	btfss	3,2
  2917  039E  2BA0               	goto	u1921
  2918  039F  2BA1               	goto	u1920
  2919  03A0                     u1921:
  2920  03A0  2BA9               	goto	l1776
  2921  03A1                     u1920:
  2922  03A1                     l1774:
  2923  03A1  3000               	movlw	0
  2924  03A2  00F6               	movwf	___fladd@b+3
  2925  03A3  3000               	movlw	0
  2926  03A4  00F5               	movwf	___fladd@b+2
  2927  03A5  3000               	movlw	0
  2928  03A6  00F4               	movwf	___fladd@b+1
  2929  03A7  3000               	movlw	0
  2930  03A8  00F3               	movwf	___fladd@b
  2931  03A9                     l1776:
  2932  03A9  17F5               	bsf	___fladd@b+2,7
  2933  03AA                     l1778:
  2934  03AA  01F6               	clrf	___fladd@b+3
  2935  03AB  2BB4               	goto	l1782
  2936  03AC                     l1780:
  2937  03AC  3000               	movlw	0
  2938  03AD  00F6               	movwf	___fladd@b+3
  2939  03AE  3000               	movlw	0
  2940  03AF  00F5               	movwf	___fladd@b+2
  2941  03B0  3000               	movlw	0
  2942  03B1  00F4               	movwf	___fladd@b+1
  2943  03B2  3000               	movlw	0
  2944  03B3  00F3               	movwf	___fladd@b
  2945  03B4                     l1782:
  2946  03B4  087A               	movf	___fladd@a+3,w
  2947  03B5  3980               	andlw	128
  2948  03B6  00A0               	movwf	??___fladd
  2949  03B7  0820               	movf	??___fladd,w
  2950  03B8  00A9               	movwf	___fladd@aexp
  2951  03B9                     l1784:
  2952  03B9  0829               	movf	___fladd@aexp,w
  2953  03BA  0628               	xorwf	___fladd@signs,w
  2954  03BB  1903               	skipnz
  2955  03BC  2BBE               	goto	u1931
  2956  03BD  2BBF               	goto	u1930
  2957  03BE                     u1931:
  2958  03BE  2BC0               	goto	l1788
  2959  03BF                     u1930:
  2960  03BF                     l1786:
  2961  03BF  1728               	bsf	___fladd@signs,6
  2962  03C0                     l1788:
  2963  03C0  087A               	movf	___fladd@a+3,w
  2964  03C1  00A0               	movwf	??___fladd
  2965  03C2  0720               	addwf	??___fladd,w
  2966  03C3  00A1               	movwf	??___fladd+1
  2967  03C4  0821               	movf	??___fladd+1,w
  2968  03C5  00A9               	movwf	___fladd@aexp
  2969  03C6                     l1790:
  2970  03C6  1FF9               	btfss	___fladd@a+2,7
  2971  03C7  2BC9               	goto	u1941
  2972  03C8  2BCA               	goto	u1940
  2973  03C9                     u1941:
  2974  03C9  2BCB               	goto	l1794
  2975  03CA                     u1940:
  2976  03CA                     l1792:
  2977  03CA  1429               	bsf	___fladd@aexp,0
  2978  03CB                     l1794:
  2979  03CB  0829               	movf	___fladd@aexp,w
  2980  03CC  1903               	btfsc	3,2
  2981  03CD  2BCF               	goto	u1951
  2982  03CE  2BD0               	goto	u1950
  2983  03CF                     u1951:
  2984  03CF  2BE0               	goto	l1804
  2985  03D0                     u1950:
  2986  03D0                     l1796:
  2987  03D0  0A29               	incf	___fladd@aexp,w
  2988  03D1  1D03               	btfss	3,2
  2989  03D2  2BD4               	goto	u1961
  2990  03D3  2BD5               	goto	u1960
  2991  03D4                     u1961:
  2992  03D4  2BDD               	goto	l1800
  2993  03D5                     u1960:
  2994  03D5                     l1798:
  2995  03D5  3000               	movlw	0
  2996  03D6  00FA               	movwf	___fladd@a+3
  2997  03D7  3000               	movlw	0
  2998  03D8  00F9               	movwf	___fladd@a+2
  2999  03D9  3000               	movlw	0
  3000  03DA  00F8               	movwf	___fladd@a+1
  3001  03DB  3000               	movlw	0
  3002  03DC  00F7               	movwf	___fladd@a
  3003  03DD                     l1800:
  3004  03DD  17F9               	bsf	___fladd@a+2,7
  3005  03DE                     l1802:
  3006  03DE  01FA               	clrf	___fladd@a+3
  3007  03DF  2BE8               	goto	l536
  3008  03E0                     l1804:
  3009  03E0  3000               	movlw	0
  3010  03E1  00FA               	movwf	___fladd@a+3
  3011  03E2  3000               	movlw	0
  3012  03E3  00F9               	movwf	___fladd@a+2
  3013  03E4  3000               	movlw	0
  3014  03E5  00F8               	movwf	___fladd@a+1
  3015  03E6  3000               	movlw	0
  3016  03E7  00F7               	movwf	___fladd@a
  3017  03E8                     l536:
  3018  03E8  082A               	movf	___fladd@bexp,w
  3019  03E9  0229               	subwf	___fladd@aexp,w
  3020  03EA  1803               	skipnc
  3021  03EB  2BED               	goto	u1971
  3022  03EC  2BEE               	goto	u1970
  3023  03ED                     u1971:
  3024  03ED  2C32               	goto	l1840
  3025  03EE                     u1970:
  3026  03EE                     l1806:
  3027  03EE  1F28               	btfss	___fladd@signs,6
  3028  03EF  2BF1               	goto	u1981
  3029  03F0  2BF2               	goto	u1980
  3030  03F1                     u1981:
  3031  03F1  2BF6               	goto	l1810
  3032  03F2                     u1980:
  3033  03F2                     l1808:
  3034  03F2  3080               	movlw	128
  3035  03F3  00A0               	movwf	??___fladd
  3036  03F4  0820               	movf	??___fladd,w
  3037  03F5  06A8               	xorwf	___fladd@signs,f
  3038  03F6                     l1810:
  3039  03F6  082A               	movf	___fladd@bexp,w
  3040  03F7  00A0               	movwf	??___fladd
  3041  03F8  0820               	movf	??___fladd,w
  3042  03F9  00AB               	movwf	___fladd@grs
  3043  03FA                     l1812:
  3044  03FA  0829               	movf	___fladd@aexp,w
  3045  03FB  00A0               	movwf	??___fladd
  3046  03FC  0820               	movf	??___fladd,w
  3047  03FD  00AA               	movwf	___fladd@bexp
  3048  03FE                     l1814:
  3049  03FE  082B               	movf	___fladd@grs,w
  3050  03FF  00A0               	movwf	??___fladd
  3051  0400  0820               	movf	??___fladd,w
  3052  0401  00A9               	movwf	___fladd@aexp
  3053  0402                     l1816:
  3054  0402  0873               	movf	___fladd@b,w
  3055  0403  00A0               	movwf	??___fladd
  3056  0404  0820               	movf	??___fladd,w
  3057  0405  00AB               	movwf	___fladd@grs
  3058  0406                     l1818:
  3059  0406  0877               	movf	___fladd@a,w
  3060  0407  00A0               	movwf	??___fladd
  3061  0408  0820               	movf	??___fladd,w
  3062  0409  00F3               	movwf	___fladd@b
  3063  040A                     l1820:
  3064  040A  082B               	movf	___fladd@grs,w
  3065  040B  00A0               	movwf	??___fladd
  3066  040C  0820               	movf	??___fladd,w
  3067  040D  00F7               	movwf	___fladd@a
  3068  040E                     l1822:
  3069  040E  0874               	movf	___fladd@b+1,w
  3070  040F  00A0               	movwf	??___fladd
  3071  0410  0820               	movf	??___fladd,w
  3072  0411  00AB               	movwf	___fladd@grs
  3073  0412                     l1824:
  3074  0412  0878               	movf	___fladd@a+1,w
  3075  0413  00A0               	movwf	??___fladd
  3076  0414  0820               	movf	??___fladd,w
  3077  0415  00F4               	movwf	___fladd@b+1
  3078  0416                     l1826:
  3079  0416  082B               	movf	___fladd@grs,w
  3080  0417  00A0               	movwf	??___fladd
  3081  0418  0820               	movf	??___fladd,w
  3082  0419  00F8               	movwf	___fladd@a+1
  3083  041A                     l1828:
  3084  041A  0875               	movf	___fladd@b+2,w
  3085  041B  00A0               	movwf	??___fladd
  3086  041C  0820               	movf	??___fladd,w
  3087  041D  00AB               	movwf	___fladd@grs
  3088  041E                     l1830:
  3089  041E  0879               	movf	___fladd@a+2,w
  3090  041F  00A0               	movwf	??___fladd
  3091  0420  0820               	movf	??___fladd,w
  3092  0421  00F5               	movwf	___fladd@b+2
  3093  0422                     l1832:
  3094  0422  082B               	movf	___fladd@grs,w
  3095  0423  00A0               	movwf	??___fladd
  3096  0424  0820               	movf	??___fladd,w
  3097  0425  00F9               	movwf	___fladd@a+2
  3098  0426                     l1834:
  3099  0426  0876               	movf	___fladd@b+3,w
  3100  0427  00A0               	movwf	??___fladd
  3101  0428  0820               	movf	??___fladd,w
  3102  0429  00AB               	movwf	___fladd@grs
  3103  042A                     l1836:
  3104  042A  087A               	movf	___fladd@a+3,w
  3105  042B  00A0               	movwf	??___fladd
  3106  042C  0820               	movf	??___fladd,w
  3107  042D  00F6               	movwf	___fladd@b+3
  3108  042E                     l1838:
  3109  042E  082B               	movf	___fladd@grs,w
  3110  042F  00A0               	movwf	??___fladd
  3111  0430  0820               	movf	??___fladd,w
  3112  0431  00FA               	movwf	___fladd@a+3
  3113  0432                     l1840:
  3114  0432  01AB               	clrf	___fladd@grs
  3115  0433                     l1842:
  3116  0433  0829               	movf	___fladd@aexp,w
  3117  0434  00A0               	movwf	??___fladd
  3118  0435  01A1               	clrf	??___fladd+1
  3119  0436  0821               	movf	??___fladd+1,w
  3120  0437  00A3               	movwf	??___fladd+3
  3121  0438  082A               	movf	___fladd@bexp,w
  3122  0439  0220               	subwf	??___fladd,w
  3123  043A  00A2               	movwf	??___fladd+2
  3124  043B  1C03               	skipc
  3125  043C  03A3               	decf	??___fladd+3,f
  3126  043D  0823               	movf	??___fladd+3,w
  3127  043E  3A80               	xorlw	128
  3128  043F  00FF               	movwf	btemp+1
  3129  0440  3080               	movlw	128
  3130  0441  027F               	subwf	btemp+1,w
  3131  0442  1D03               	skipz
  3132  0443  2C46               	goto	u1995
  3133  0444  301A               	movlw	26
  3134  0445  0222               	subwf	??___fladd+2,w
  3135  0446                     u1995:
  3136  0446  1C03               	skipc
  3137  0447  2C49               	goto	u1991
  3138  0448  2C4A               	goto	u1990
  3139  0449                     u1991:
  3140  0449  2C87               	goto	l1858
  3141  044A                     u1990:
  3142  044A                     l1844:
  3143  044A  0876               	movf	___fladd@b+3,w
  3144  044B  0475               	iorwf	___fladd@b+2,w
  3145  044C  0474               	iorwf	___fladd@b+1,w
  3146  044D  0473               	iorwf	___fladd@b,w
  3147  044E  1D03               	skipz
  3148  044F  2C51               	goto	u2001
  3149  0450  2C53               	goto	u2000
  3150  0451                     u2001:
  3151  0451  3001               	movlw	1
  3152  0452  2C54               	goto	u2010
  3153  0453                     u2000:
  3154  0453  3000               	movlw	0
  3155  0454                     u2010:
  3156  0454  1283               	bcf	3,5	;RP0=0, select bank0
  3157  0455  1303               	bcf	3,6	;RP1=0, select bank0
  3158  0456  00A0               	movwf	??___fladd
  3159  0457  0820               	movf	??___fladd,w
  3160  0458  00AB               	movwf	___fladd@grs
  3161  0459  3000               	movlw	0
  3162  045A  00F6               	movwf	___fladd@b+3
  3163  045B  3000               	movlw	0
  3164  045C  00F5               	movwf	___fladd@b+2
  3165  045D  3000               	movlw	0
  3166  045E  00F4               	movwf	___fladd@b+1
  3167  045F  3000               	movlw	0
  3168  0460  00F3               	movwf	___fladd@b
  3169  0461  0829               	movf	___fladd@aexp,w
  3170  0462  00A0               	movwf	??___fladd
  3171  0463  0820               	movf	??___fladd,w
  3172  0464  00AA               	movwf	___fladd@bexp
  3173  0465  2C8F               	goto	l540
  3174  0466                     l542:
  3175  0466  1C2B               	btfss	___fladd@grs,0
  3176  0467  2C69               	goto	u2021
  3177  0468  2C6A               	goto	u2020
  3178  0469                     u2021:
  3179  0469  2C73               	goto	l1848
  3180  046A                     u2020:
  3181  046A                     l1846:
  3182  046A  082B               	movf	___fladd@grs,w
  3183  046B  00A0               	movwf	??___fladd
  3184  046C  1003               	clrc
  3185  046D  0C20               	rrf	??___fladd,w
  3186  046E  3801               	iorlw	1
  3187  046F  00A1               	movwf	??___fladd+1
  3188  0470  0821               	movf	??___fladd+1,w
  3189  0471  00AB               	movwf	___fladd@grs
  3190  0472  2C75               	goto	l1850
  3191  0473                     l1848:
  3192  0473  1003               	clrc
  3193  0474  0CAB               	rrf	___fladd@grs,f
  3194  0475                     l1850:
  3195  0475  1C73               	btfss	___fladd@b,0
  3196  0476  2C78               	goto	u2031
  3197  0477  2C79               	goto	u2030
  3198  0478                     u2031:
  3199  0478  2C7A               	goto	l1854
  3200  0479                     u2030:
  3201  0479                     l1852:
  3202  0479  17AB               	bsf	___fladd@grs,7
  3203  047A                     l1854:
  3204  047A  3001               	movlw	1
  3205  047B  00A0               	movwf	??___fladd
  3206  047C                     u2045:
  3207  047C  0D76               	rlf	___fladd@b+3,w
  3208  047D  0CF6               	rrf	___fladd@b+3,f
  3209  047E  0CF5               	rrf	___fladd@b+2,f
  3210  047F  0CF4               	rrf	___fladd@b+1,f
  3211  0480  0CF3               	rrf	___fladd@b,f
  3212  0481  0BA0               	decfsz	??___fladd& (0+127),f
  3213  0482  2C7C               	goto	u2045
  3214  0483                     l1856:
  3215  0483  3001               	movlw	1
  3216  0484  00A0               	movwf	??___fladd
  3217  0485  0820               	movf	??___fladd,w
  3218  0486  07AA               	addwf	___fladd@bexp,f
  3219  0487                     l1858:
  3220  0487  1283               	bcf	3,5	;RP0=0, select bank0
  3221  0488  1303               	bcf	3,6	;RP1=0, select bank0
  3222  0489  0829               	movf	___fladd@aexp,w
  3223  048A  022A               	subwf	___fladd@bexp,w
  3224  048B  1C03               	skipc
  3225  048C  2C8E               	goto	u2051
  3226  048D  2C8F               	goto	u2050
  3227  048E                     u2051:
  3228  048E  2C66               	goto	l542
  3229  048F                     u2050:
  3230  048F                     l540:
  3231  048F  1B28               	btfsc	___fladd@signs,6
  3232  0490  2C92               	goto	u2061
  3233  0491  2C93               	goto	u2060
  3234  0492                     u2061:
  3235  0492  2CDE               	goto	l1884
  3236  0493                     u2060:
  3237  0493                     l1860:
  3238  0493  082A               	movf	___fladd@bexp,w
  3239  0494  1D03               	btfss	3,2
  3240  0495  2C97               	goto	u2071
  3241  0496  2C98               	goto	u2070
  3242  0497                     u2071:
  3243  0497  2CA1               	goto	l1866
  3244  0498                     u2070:
  3245  0498                     l1862:
  3246  0498  3000               	movlw	0
  3247  0499  00F6               	movwf	?___fladd+3
  3248  049A  3000               	movlw	0
  3249  049B  00F5               	movwf	?___fladd+2
  3250  049C  3000               	movlw	0
  3251  049D  00F4               	movwf	?___fladd+1
  3252  049E  3000               	movlw	0
  3253  049F  00F3               	movwf	?___fladd
  3254  04A0  2E0C               	goto	l549
  3255  04A1                     l1866:
  3256  04A1  0877               	movf	___fladd@a,w
  3257  04A2  07F3               	addwf	___fladd@b,f
  3258  04A3  0878               	movf	___fladd@a+1,w
  3259  04A4  1103               	clrz
  3260  04A5  1803               	skipnc
  3261  04A6  3E01               	addlw	1
  3262  04A7  1903               	skipnz
  3263  04A8  2CAA               	goto	u2081
  3264  04A9  07F4               	addwf	___fladd@b+1,f
  3265  04AA                     u2081:
  3266  04AA  0879               	movf	___fladd@a+2,w
  3267  04AB  1103               	clrz
  3268  04AC  1803               	skipnc
  3269  04AD  3E01               	addlw	1
  3270  04AE  1903               	skipnz
  3271  04AF  2CB1               	goto	u2082
  3272  04B0  07F5               	addwf	___fladd@b+2,f
  3273  04B1                     u2082:
  3274  04B1  087A               	movf	___fladd@a+3,w
  3275  04B2  1103               	clrz
  3276  04B3  1803               	skipnc
  3277  04B4  3E01               	addlw	1
  3278  04B5  1903               	skipnz
  3279  04B6  2CB8               	goto	u2083
  3280  04B7  07F6               	addwf	___fladd@b+3,f
  3281  04B8                     u2083:
  3282  04B8                     l1868:
  3283  04B8  1C76               	btfss	___fladd@b+3,0
  3284  04B9  2CBB               	goto	u2091
  3285  04BA  2CBC               	goto	u2090
  3286  04BB                     u2091:
  3287  04BB  2D92               	goto	l1918
  3288  04BC                     u2090:
  3289  04BC                     l1870:
  3290  04BC  1C2B               	btfss	___fladd@grs,0
  3291  04BD  2CBF               	goto	u2101
  3292  04BE  2CC0               	goto	u2100
  3293  04BF                     u2101:
  3294  04BF  2CC9               	goto	l1874
  3295  04C0                     u2100:
  3296  04C0                     l1872:
  3297  04C0  082B               	movf	___fladd@grs,w
  3298  04C1  00A0               	movwf	??___fladd
  3299  04C2  1003               	clrc
  3300  04C3  0C20               	rrf	??___fladd,w
  3301  04C4  3801               	iorlw	1
  3302  04C5  00A1               	movwf	??___fladd+1
  3303  04C6  0821               	movf	??___fladd+1,w
  3304  04C7  00AB               	movwf	___fladd@grs
  3305  04C8  2CCB               	goto	l1876
  3306  04C9                     l1874:
  3307  04C9  1003               	clrc
  3308  04CA  0CAB               	rrf	___fladd@grs,f
  3309  04CB                     l1876:
  3310  04CB  1C73               	btfss	___fladd@b,0
  3311  04CC  2CCE               	goto	u2111
  3312  04CD  2CCF               	goto	u2110
  3313  04CE                     u2111:
  3314  04CE  2CD0               	goto	l1880
  3315  04CF                     u2110:
  3316  04CF                     l1878:
  3317  04CF  17AB               	bsf	___fladd@grs,7
  3318  04D0                     l1880:
  3319  04D0  3001               	movlw	1
  3320  04D1  00A0               	movwf	??___fladd
  3321  04D2                     u2125:
  3322  04D2  0D76               	rlf	___fladd@b+3,w
  3323  04D3  0CF6               	rrf	___fladd@b+3,f
  3324  04D4  0CF5               	rrf	___fladd@b+2,f
  3325  04D5  0CF4               	rrf	___fladd@b+1,f
  3326  04D6  0CF3               	rrf	___fladd@b,f
  3327  04D7  0BA0               	decfsz	??___fladd& (0+127),f
  3328  04D8  2CD2               	goto	u2125
  3329  04D9                     l1882:
  3330  04D9  3001               	movlw	1
  3331  04DA  00A0               	movwf	??___fladd
  3332  04DB  0820               	movf	??___fladd,w
  3333  04DC  07AA               	addwf	___fladd@bexp,f
  3334  04DD  2D92               	goto	l1918
  3335  04DE                     l1884:
  3336  04DE  0876               	movf	___fladd@b+3,w
  3337  04DF  3A80               	xorlw	128
  3338  04E0  00FF               	movwf	btemp+1
  3339  04E1  087A               	movf	___fladd@a+3,w
  3340  04E2  3A80               	xorlw	128
  3341  04E3  027F               	subwf	btemp+1,w
  3342  04E4  1D03               	skipz
  3343  04E5  2CF0               	goto	u2133
  3344  04E6  0879               	movf	___fladd@a+2,w
  3345  04E7  0275               	subwf	___fladd@b+2,w
  3346  04E8  1D03               	skipz
  3347  04E9  2CF0               	goto	u2133
  3348  04EA  0878               	movf	___fladd@a+1,w
  3349  04EB  0274               	subwf	___fladd@b+1,w
  3350  04EC  1D03               	skipz
  3351  04ED  2CF0               	goto	u2133
  3352  04EE  0877               	movf	___fladd@a,w
  3353  04EF  0273               	subwf	___fladd@b,w
  3354  04F0                     u2133:
  3355  04F0  1803               	skipnc
  3356  04F1  2CF3               	goto	u2131
  3357  04F2  2CF4               	goto	u2130
  3358  04F3                     u2131:
  3359  04F3  2D4C               	goto	l1894
  3360  04F4                     u2130:
  3361  04F4                     l1886:
  3362  04F4  30FF               	movlw	255
  3363  04F5  00A0               	movwf	??___fladd
  3364  04F6  30FF               	movlw	255
  3365  04F7  00A1               	movwf	??___fladd+1
  3366  04F8  30FF               	movlw	255
  3367  04F9  00A2               	movwf	??___fladd+2
  3368  04FA  30FF               	movlw	255
  3369  04FB  00A3               	movwf	??___fladd+3
  3370  04FC  0877               	movf	___fladd@a,w
  3371  04FD  00A4               	movwf	??___fladd+4
  3372  04FE  0878               	movf	___fladd@a+1,w
  3373  04FF  00A5               	movwf	??___fladd+5
  3374  0500  0879               	movf	___fladd@a+2,w
  3375  0501  00A6               	movwf	??___fladd+6
  3376  0502  087A               	movf	___fladd@a+3,w
  3377  0503  00A7               	movwf	??___fladd+7
  3378  0504  0873               	movf	___fladd@b,w
  3379  0505  02A4               	subwf	??___fladd+4,f
  3380  0506  0874               	movf	___fladd@b+1,w
  3381  0507  1C03               	skipc
  3382  0508  0F74               	incfsz	___fladd@b+1,w
  3383  0509  2D0B               	goto	u2141
  3384  050A  2D0C               	goto	u2142
  3385  050B                     u2141:
  3386  050B  02A5               	subwf	??___fladd+5,f
  3387  050C                     u2142:
  3388  050C  0875               	movf	___fladd@b+2,w
  3389  050D  1C03               	skipc
  3390  050E  0F75               	incfsz	___fladd@b+2,w
  3391  050F  2D11               	goto	u2143
  3392  0510  2D12               	goto	u2144
  3393  0511                     u2143:
  3394  0511  02A6               	subwf	??___fladd+6,f
  3395  0512                     u2144:
  3396  0512  0876               	movf	___fladd@b+3,w
  3397  0513  1C03               	skipc
  3398  0514  0F76               	incfsz	___fladd@b+3,w
  3399  0515  2D17               	goto	u2145
  3400  0516  2D18               	goto	u2146
  3401  0517                     u2145:
  3402  0517  02A7               	subwf	??___fladd+7,f
  3403  0518                     u2146:
  3404  0518  0824               	movf	??___fladd+4,w
  3405  0519  07A0               	addwf	??___fladd,f
  3406  051A  0825               	movf	??___fladd+5,w
  3407  051B  1803               	skipnc
  3408  051C  0F25               	incfsz	??___fladd+5,w
  3409  051D  2D1F               	goto	u2150
  3410  051E  2D20               	goto	u2151
  3411  051F                     u2150:
  3412  051F  07A1               	addwf	??___fladd+1,f
  3413  0520                     u2151:
  3414  0520  0826               	movf	??___fladd+6,w
  3415  0521  1803               	skipnc
  3416  0522  0F26               	incfsz	??___fladd+6,w
  3417  0523  2D25               	goto	u2152
  3418  0524  2D26               	goto	u2153
  3419  0525                     u2152:
  3420  0525  07A2               	addwf	??___fladd+2,f
  3421  0526                     u2153:
  3422  0526  0827               	movf	??___fladd+7,w
  3423  0527  1803               	skipnc
  3424  0528  0A27               	incf	??___fladd+7,w
  3425  0529  07A3               	addwf	??___fladd+3,f
  3426  052A  0823               	movf	??___fladd+3,w
  3427  052B  00F6               	movwf	___fladd@b+3
  3428  052C  0822               	movf	??___fladd+2,w
  3429  052D  00F5               	movwf	___fladd@b+2
  3430  052E  0821               	movf	??___fladd+1,w
  3431  052F  00F4               	movwf	___fladd@b+1
  3432  0530  0820               	movf	??___fladd,w
  3433  0531  00F3               	movwf	___fladd@b
  3434  0532                     l1888:
  3435  0532  3080               	movlw	128
  3436  0533  00A0               	movwf	??___fladd
  3437  0534  0820               	movf	??___fladd,w
  3438  0535  06A8               	xorwf	___fladd@signs,f
  3439  0536  09AB               	comf	___fladd@grs,f
  3440  0537  0AAB               	incf	___fladd@grs,f
  3441  0538                     l1890:
  3442  0538  082B               	movf	___fladd@grs,w
  3443  0539  1D03               	btfss	3,2
  3444  053A  2D3C               	goto	u2161
  3445  053B  2D3D               	goto	u2160
  3446  053C                     u2161:
  3447  053C  2D5A               	goto	l557
  3448  053D                     u2160:
  3449  053D                     l1892:
  3450  053D  3001               	movlw	1
  3451  053E  07F3               	addwf	___fladd@b,f
  3452  053F  3000               	movlw	0
  3453  0540  1803               	skipnc
  3454  0541  3001               	movlw	1
  3455  0542  07F4               	addwf	___fladd@b+1,f
  3456  0543  3000               	movlw	0
  3457  0544  1803               	skipnc
  3458  0545  3001               	movlw	1
  3459  0546  07F5               	addwf	___fladd@b+2,f
  3460  0547  3000               	movlw	0
  3461  0548  1803               	skipnc
  3462  0549  3001               	movlw	1
  3463  054A  07F6               	addwf	___fladd@b+3,f
  3464  054B  2D5A               	goto	l557
  3465  054C                     l1894:
  3466  054C  0877               	movf	___fladd@a,w
  3467  054D  02F3               	subwf	___fladd@b,f
  3468  054E  0878               	movf	___fladd@a+1,w
  3469  054F  1C03               	skipc
  3470  0550  0F78               	incfsz	___fladd@a+1,w
  3471  0551  02F4               	subwf	___fladd@b+1,f
  3472  0552  0879               	movf	___fladd@a+2,w
  3473  0553  1C03               	skipc
  3474  0554  0F79               	incfsz	___fladd@a+2,w
  3475  0555  02F5               	subwf	___fladd@b+2,f
  3476  0556  087A               	movf	___fladd@a+3,w
  3477  0557  1C03               	skipc
  3478  0558  0F7A               	incfsz	___fladd@a+3,w
  3479  0559  02F6               	subwf	___fladd@b+3,f
  3480  055A                     l557:
  3481  055A  0876               	movf	___fladd@b+3,w
  3482  055B  0475               	iorwf	___fladd@b+2,w
  3483  055C  0474               	iorwf	___fladd@b+1,w
  3484  055D  0473               	iorwf	___fladd@b,w
  3485  055E  1D03               	skipz
  3486  055F  2D61               	goto	u2171
  3487  0560  2D62               	goto	u2170
  3488  0561                     u2171:
  3489  0561  2D8E               	goto	l1916
  3490  0562                     u2170:
  3491  0562                     l1896:
  3492  0562  082B               	movf	___fladd@grs,w
  3493  0563  1D03               	btfss	3,2
  3494  0564  2D66               	goto	u2181
  3495  0565  2D67               	goto	u2180
  3496  0566                     u2181:
  3497  0566  2D8E               	goto	l1916
  3498  0567                     u2180:
  3499  0567                     l1898:
  3500  0567  3000               	movlw	0
  3501  0568  00F6               	movwf	?___fladd+3
  3502  0569  3000               	movlw	0
  3503  056A  00F5               	movwf	?___fladd+2
  3504  056B  3000               	movlw	0
  3505  056C  00F4               	movwf	?___fladd+1
  3506  056D  3000               	movlw	0
  3507  056E  00F3               	movwf	?___fladd
  3508  056F  2E0C               	goto	l549
  3509  0570                     l1902:
  3510  0570  3001               	movlw	1
  3511  0571  00A0               	movwf	??___fladd
  3512  0572                     u2195:
  3513  0572  1003               	clrc
  3514  0573  0DF3               	rlf	___fladd@b,f
  3515  0574  0DF4               	rlf	___fladd@b+1,f
  3516  0575  0DF5               	rlf	___fladd@b+2,f
  3517  0576  0DF6               	rlf	___fladd@b+3,f
  3518  0577  0BA0               	decfsz	??___fladd,f
  3519  0578  2D72               	goto	u2195
  3520  0579                     l1904:
  3521  0579  1FAB               	btfss	___fladd@grs,7
  3522  057A  2D7C               	goto	u2201
  3523  057B  2D7D               	goto	u2200
  3524  057C                     u2201:
  3525  057C  2D7E               	goto	l561
  3526  057D                     u2200:
  3527  057D                     l1906:
  3528  057D  1473               	bsf	___fladd@b,0
  3529  057E                     l561:
  3530  057E  1C2B               	btfss	___fladd@grs,0
  3531  057F  2D81               	goto	u2211
  3532  0580  2D82               	goto	u2210
  3533  0581                     u2211:
  3534  0581  2D85               	goto	l1910
  3535  0582                     u2210:
  3536  0582                     l1908:
  3537  0582  1403               	setc
  3538  0583  0DAB               	rlf	___fladd@grs,f
  3539  0584  2D87               	goto	l1912
  3540  0585                     l1910:
  3541  0585  1003               	clrc
  3542  0586  0DAB               	rlf	___fladd@grs,f
  3543  0587                     l1912:
  3544  0587  082A               	movf	___fladd@bexp,w
  3545  0588  1903               	btfsc	3,2
  3546  0589  2D8B               	goto	u2221
  3547  058A  2D8C               	goto	u2220
  3548  058B                     u2221:
  3549  058B  2D8E               	goto	l1916
  3550  058C                     u2220:
  3551  058C                     l1914:
  3552  058C  3001               	movlw	1
  3553  058D  02AA               	subwf	___fladd@bexp,f
  3554  058E                     l1916:
  3555  058E  1FF5               	btfss	___fladd@b+2,7
  3556  058F  2D91               	goto	u2231
  3557  0590  2D92               	goto	u2230
  3558  0591                     u2231:
  3559  0591  2D70               	goto	l1902
  3560  0592                     u2230:
  3561  0592                     l1918:
  3562  0592  01A9               	clrf	___fladd@aexp
  3563  0593                     l1920:
  3564  0593  1FAB               	btfss	___fladd@grs,7
  3565  0594  2D96               	goto	u2241
  3566  0595  2D97               	goto	u2240
  3567  0596                     u2241:
  3568  0596  2DA5               	goto	l1928
  3569  0597                     u2240:
  3570  0597                     l1922:
  3571  0597  082B               	movf	___fladd@grs,w
  3572  0598  397F               	andlw	127
  3573  0599  1903               	btfsc	3,2
  3574  059A  2D9C               	goto	u2251
  3575  059B  2D9D               	goto	u2250
  3576  059C                     u2251:
  3577  059C  2DA0               	goto	l567
  3578  059D                     u2250:
  3579  059D                     l1924:
  3580  059D  01A9               	clrf	___fladd@aexp
  3581  059E  0AA9               	incf	___fladd@aexp,f
  3582  059F  2DA5               	goto	l1928
  3583  05A0                     l567:
  3584  05A0  1C73               	btfss	___fladd@b,0
  3585  05A1  2DA3               	goto	u2261
  3586  05A2  2DA4               	goto	u2260
  3587  05A3                     u2261:
  3588  05A3  2DA5               	goto	l1928
  3589  05A4                     u2260:
  3590  05A4  2D9D               	goto	l1924
  3591  05A5                     l1928:
  3592  05A5  0829               	movf	___fladd@aexp,w
  3593  05A6  1903               	btfsc	3,2
  3594  05A7  2DA9               	goto	u2271
  3595  05A8  2DAA               	goto	u2270
  3596  05A9                     u2271:
  3597  05A9  2DDE               	goto	l570
  3598  05AA                     u2270:
  3599  05AA                     l1930:
  3600  05AA  3001               	movlw	1
  3601  05AB  07F3               	addwf	___fladd@b,f
  3602  05AC  3000               	movlw	0
  3603  05AD  1803               	skipnc
  3604  05AE  3001               	movlw	1
  3605  05AF  07F4               	addwf	___fladd@b+1,f
  3606  05B0  3000               	movlw	0
  3607  05B1  1803               	skipnc
  3608  05B2  3001               	movlw	1
  3609  05B3  07F5               	addwf	___fladd@b+2,f
  3610  05B4  3000               	movlw	0
  3611  05B5  1803               	skipnc
  3612  05B6  3001               	movlw	1
  3613  05B7  07F6               	addwf	___fladd@b+3,f
  3614  05B8                     l1932:
  3615  05B8  1C76               	btfss	___fladd@b+3,0
  3616  05B9  2DBB               	goto	u2281
  3617  05BA  2DBC               	goto	u2280
  3618  05BB                     u2281:
  3619  05BB  2DDE               	goto	l570
  3620  05BC                     u2280:
  3621  05BC                     l1934:
  3622  05BC  0873               	movf	___fladd@b,w
  3623  05BD  00A0               	movwf	??___fladd
  3624  05BE  0874               	movf	___fladd@b+1,w
  3625  05BF  00A1               	movwf	??___fladd+1
  3626  05C0  0875               	movf	___fladd@b+2,w
  3627  05C1  00A2               	movwf	??___fladd+2
  3628  05C2  0876               	movf	___fladd@b+3,w
  3629  05C3  00A3               	movwf	??___fladd+3
  3630  05C4  3001               	movlw	1
  3631  05C5  00A4               	movwf	??___fladd+4
  3632  05C6                     u2295:
  3633  05C6  0D23               	rlf	??___fladd+3,w
  3634  05C7  0CA3               	rrf	??___fladd+3,f
  3635  05C8  0CA2               	rrf	??___fladd+2,f
  3636  05C9  0CA1               	rrf	??___fladd+1,f
  3637  05CA  0CA0               	rrf	??___fladd,f
  3638  05CB                     u2290:
  3639  05CB  0BA4               	decfsz	??___fladd+4,f
  3640  05CC  2DC6               	goto	u2295
  3641  05CD  0823               	movf	??___fladd+3,w
  3642  05CE  00F6               	movwf	___fladd@b+3
  3643  05CF  0822               	movf	??___fladd+2,w
  3644  05D0  00F5               	movwf	___fladd@b+2
  3645  05D1  0821               	movf	??___fladd+1,w
  3646  05D2  00F4               	movwf	___fladd@b+1
  3647  05D3  0820               	movf	??___fladd,w
  3648  05D4  00F3               	movwf	___fladd@b
  3649  05D5  0A2A               	incf	___fladd@bexp,w
  3650  05D6  1903               	btfsc	3,2
  3651  05D7  2DD9               	goto	u2301
  3652  05D8  2DDA               	goto	u2300
  3653  05D9                     u2301:
  3654  05D9  2DDE               	goto	l570
  3655  05DA                     u2300:
  3656  05DA                     l1936:
  3657  05DA  3001               	movlw	1
  3658  05DB  00A0               	movwf	??___fladd
  3659  05DC  0820               	movf	??___fladd,w
  3660  05DD  07AA               	addwf	___fladd@bexp,f
  3661  05DE                     l570:
  3662  05DE  0A2A               	incf	___fladd@bexp,w
  3663  05DF  1903               	btfsc	3,2
  3664  05E0  2DE2               	goto	u2311
  3665  05E1  2DE3               	goto	u2310
  3666  05E2                     u2311:
  3667  05E2  2DE8               	goto	l1940
  3668  05E3                     u2310:
  3669  05E3                     l1938:
  3670  05E3  082A               	movf	___fladd@bexp,w
  3671  05E4  1D03               	btfss	3,2
  3672  05E5  2DE7               	goto	u2321
  3673  05E6  2DE8               	goto	u2320
  3674  05E7                     u2321:
  3675  05E7  2DF6               	goto	l1946
  3676  05E8                     u2320:
  3677  05E8                     l1940:
  3678  05E8  3000               	movlw	0
  3679  05E9  00F6               	movwf	___fladd@b+3
  3680  05EA  3000               	movlw	0
  3681  05EB  00F5               	movwf	___fladd@b+2
  3682  05EC  3000               	movlw	0
  3683  05ED  00F4               	movwf	___fladd@b+1
  3684  05EE  3000               	movlw	0
  3685  05EF  00F3               	movwf	___fladd@b
  3686  05F0                     l1942:
  3687  05F0  082A               	movf	___fladd@bexp,w
  3688  05F1  1D03               	btfss	3,2
  3689  05F2  2DF4               	goto	u2331
  3690  05F3  2DF5               	goto	u2330
  3691  05F4                     u2331:
  3692  05F4  2DF6               	goto	l1946
  3693  05F5                     u2330:
  3694  05F5                     l1944:
  3695  05F5  01A8               	clrf	___fladd@signs
  3696  05F6                     l1946:
  3697  05F6  1C2A               	btfss	___fladd@bexp,0
  3698  05F7  2DF9               	goto	u2341
  3699  05F8  2DFA               	goto	u2340
  3700  05F9                     u2341:
  3701  05F9  2DFC               	goto	l1950
  3702  05FA                     u2340:
  3703  05FA                     l1948:
  3704  05FA  17F5               	bsf	___fladd@b+2,7
  3705  05FB  2E00               	goto	l578
  3706  05FC                     l1950:
  3707  05FC  307F               	movlw	127
  3708  05FD  00A0               	movwf	??___fladd
  3709  05FE  0820               	movf	??___fladd,w
  3710  05FF  05F5               	andwf	___fladd@b+2,f
  3711  0600                     l578:
  3712  0600  082A               	movf	___fladd@bexp,w
  3713  0601  00A0               	movwf	??___fladd
  3714  0602  1003               	clrc
  3715  0603  0C20               	rrf	??___fladd,w
  3716  0604  00A1               	movwf	??___fladd+1
  3717  0605  0821               	movf	??___fladd+1,w
  3718  0606  00F6               	movwf	___fladd@b+3
  3719  0607                     l1952:
  3720  0607  1FA8               	btfss	___fladd@signs,7
  3721  0608  2E0A               	goto	u2351
  3722  0609  2E0B               	goto	u2350
  3723  060A                     u2351:
  3724  060A  2E0C               	goto	l579
  3725  060B                     u2350:
  3726  060B                     l1954:
  3727  060B  17F6               	bsf	___fladd@b+3,7
  3728  060C                     l579:
  3729  060C                     l549:
  3730  060C  0008               	return
  3731  060D                     __end_of___fladd:
  3732                           
  3733                           	psect	text10
  3734  17DC                     __ptext10:	
  3735 ;; *************** function ___flneg *****************
  3736 ;; Defined at:
  3737 ;;		line 15 in file "D:\Program Files\Microchip\xc8\v2.31\pic\sources\c90\common\flneg.c"
  3738 ;; Parameters:    Size  Location     Type
  3739 ;;  f1              4    3[COMMON] unsigned char 
  3740 ;; Auto vars:     Size  Location     Type
  3741 ;;		None
  3742 ;; Return value:  Size  Location     Type
  3743 ;;                  4    3[COMMON] unsigned char 
  3744 ;; Registers used:
  3745 ;;		wreg
  3746 ;; Tracked objects:
  3747 ;;		On entry : 0/0
  3748 ;;		On exit  : 0/0
  3749 ;;		Unchanged: 0/0
  3750 ;; Data sizes:     COMMON   BANK0   BANK1   BANK3   BANK2
  3751 ;;      Params:         4       0       0       0       0
  3752 ;;      Locals:         0       0       0       0       0
  3753 ;;      Temps:          0       0       0       0       0
  3754 ;;      Totals:         4       0       0       0       0
  3755 ;;Total ram usage:        4 bytes
  3756 ;; Hardware stack levels used:    1
  3757 ;; Hardware stack levels required when called:    1
  3758 ;; This function calls:
  3759 ;;		Nothing
  3760 ;; This function is called by:
  3761 ;;		_ftoa
  3762 ;; This function uses a non-reentrant model
  3763 ;;
  3764                           
  3765                           
  3766                           ;psect for function ___flneg
  3767  17DC                     ___flneg:
  3768  17DC                     l2038:	
  3769                           ;incstack = 0
  3770                           ; Regs used in ___flneg: [wreg]
  3771                           
  3772  17DC  0876               	movf	___flneg@f1+3,w
  3773  17DD  0475               	iorwf	___flneg@f1+2,w
  3774  17DE  0474               	iorwf	___flneg@f1+1,w
  3775  17DF  0473               	iorwf	___flneg@f1,w
  3776  17E0  1903               	skipnz
  3777  17E1  2FE3               	goto	u2531
  3778  17E2  2FE4               	goto	u2530
  3779  17E3                     u2531:
  3780  17E3  2FE6               	goto	l2042
  3781  17E4                     u2530:
  3782  17E4                     l2040:
  3783  17E4  3080               	movlw	128
  3784  17E5  06F6               	xorwf	___flneg@f1+3,f
  3785  17E6                     l2042:
  3786  17E6                     l425:
  3787  17E6  0008               	return
  3788  17E7                     __end_of___flneg:
  3789                           
  3790                           	psect	text11
  3791  0756                     __ptext11:	
  3792 ;; *************** function ___flge *****************
  3793 ;; Defined at:
  3794 ;;		line 4 in file "D:\Program Files\Microchip\xc8\v2.31\pic\sources\c90\common\flge.c"
  3795 ;; Parameters:    Size  Location     Type
  3796 ;;  ff1             4    3[COMMON] unsigned char 
  3797 ;;  ff2             4    7[COMMON] unsigned char 
  3798 ;; Auto vars:     Size  Location     Type
  3799 ;;		None
  3800 ;; Return value:  Size  Location     Type
  3801 ;;		None               void
  3802 ;; Registers used:
  3803 ;;		wreg, status,2, status,0
  3804 ;; Tracked objects:
  3805 ;;		On entry : 0/0
  3806 ;;		On exit  : 0/0
  3807 ;;		Unchanged: 0/0
  3808 ;; Data sizes:     COMMON   BANK0   BANK1   BANK3   BANK2
  3809 ;;      Params:         8       0       0       0       0
  3810 ;;      Locals:         0       0       0       0       0
  3811 ;;      Temps:          0       4       0       0       0
  3812 ;;      Totals:         8       4       0       0       0
  3813 ;;Total ram usage:       12 bytes
  3814 ;; Hardware stack levels used:    1
  3815 ;; Hardware stack levels required when called:    1
  3816 ;; This function calls:
  3817 ;;		Nothing
  3818 ;; This function is called by:
  3819 ;;		_ftoa
  3820 ;; This function uses a non-reentrant model
  3821 ;;
  3822                           
  3823                           
  3824                           ;psect for function ___flge
  3825  0756                     ___flge:
  3826  0756                     l2018:	
  3827                           ;incstack = 0
  3828                           ; Regs used in ___flge: [wreg+status,2+status,0]
  3829                           
  3830  0756  3000               	movlw	0
  3831  0757  0573               	andwf	___flge@ff1,w
  3832  0758  1283               	bcf	3,5	;RP0=0, select bank0
  3833  0759  1303               	bcf	3,6	;RP1=0, select bank0
  3834  075A  00A0               	movwf	??___flge
  3835  075B  3000               	movlw	0
  3836  075C  0574               	andwf	___flge@ff1+1,w
  3837  075D  00A1               	movwf	??___flge+1
  3838  075E  3080               	movlw	128
  3839  075F  0575               	andwf	___flge@ff1+2,w
  3840  0760  00A2               	movwf	??___flge+2
  3841  0761  307F               	movlw	127
  3842  0762  0576               	andwf	___flge@ff1+3,w
  3843  0763  00A3               	movwf	??___flge+3
  3844  0764  0823               	movf	??___flge+3,w
  3845  0765  0422               	iorwf	??___flge+2,w
  3846  0766  0421               	iorwf	??___flge+1,w
  3847  0767  0420               	iorwf	??___flge,w
  3848  0768  1D03               	skipz
  3849  0769  2F6B               	goto	u2461
  3850  076A  2F6C               	goto	u2460
  3851  076B                     u2461:
  3852  076B  2F74               	goto	l417
  3853  076C                     u2460:
  3854  076C                     l2020:
  3855  076C  3000               	movlw	0
  3856  076D  00F6               	movwf	___flge@ff1+3
  3857  076E  3000               	movlw	0
  3858  076F  00F5               	movwf	___flge@ff1+2
  3859  0770  3000               	movlw	0
  3860  0771  00F4               	movwf	___flge@ff1+1
  3861  0772  3000               	movlw	0
  3862  0773  00F3               	movwf	___flge@ff1
  3863  0774                     l417:
  3864  0774  3000               	movlw	0
  3865  0775  0577               	andwf	___flge@ff2,w
  3866  0776  00A0               	movwf	??___flge
  3867  0777  3000               	movlw	0
  3868  0778  0578               	andwf	___flge@ff2+1,w
  3869  0779  00A1               	movwf	??___flge+1
  3870  077A  3080               	movlw	128
  3871  077B  0579               	andwf	___flge@ff2+2,w
  3872  077C  00A2               	movwf	??___flge+2
  3873  077D  307F               	movlw	127
  3874  077E  057A               	andwf	___flge@ff2+3,w
  3875  077F  00A3               	movwf	??___flge+3
  3876  0780  0823               	movf	??___flge+3,w
  3877  0781  0422               	iorwf	??___flge+2,w
  3878  0782  0421               	iorwf	??___flge+1,w
  3879  0783  0420               	iorwf	??___flge,w
  3880  0784  1D03               	skipz
  3881  0785  2F87               	goto	u2471
  3882  0786  2F88               	goto	u2470
  3883  0787                     u2471:
  3884  0787  2F90               	goto	l2024
  3885  0788                     u2470:
  3886  0788                     l2022:
  3887  0788  3000               	movlw	0
  3888  0789  00FA               	movwf	___flge@ff2+3
  3889  078A  3000               	movlw	0
  3890  078B  00F9               	movwf	___flge@ff2+2
  3891  078C  3000               	movlw	0
  3892  078D  00F8               	movwf	___flge@ff2+1
  3893  078E  3000               	movlw	0
  3894  078F  00F7               	movwf	___flge@ff2
  3895  0790                     l2024:
  3896  0790  1FF6               	btfss	___flge@ff1+3,7
  3897  0791  2F93               	goto	u2481
  3898  0792  2F94               	goto	u2480
  3899  0793                     u2481:
  3900  0793  2FB8               	goto	l2028
  3901  0794                     u2480:
  3902  0794                     l2026:
  3903  0794  3000               	movlw	0
  3904  0795  00A0               	movwf	??___flge
  3905  0796  3000               	movlw	0
  3906  0797  00A1               	movwf	??___flge+1
  3907  0798  3000               	movlw	0
  3908  0799  00A2               	movwf	??___flge+2
  3909  079A  3080               	movlw	128
  3910  079B  00A3               	movwf	??___flge+3
  3911  079C  0873               	movf	___flge@ff1,w
  3912  079D  02A0               	subwf	??___flge,f
  3913  079E  0874               	movf	___flge@ff1+1,w
  3914  079F  1C03               	skipc
  3915  07A0  0F74               	incfsz	___flge@ff1+1,w
  3916  07A1  2FA3               	goto	u2491
  3917  07A2  2FA4               	goto	u2492
  3918  07A3                     u2491:
  3919  07A3  02A1               	subwf	??___flge+1,f
  3920  07A4                     u2492:
  3921  07A4  0875               	movf	___flge@ff1+2,w
  3922  07A5  1C03               	skipc
  3923  07A6  0F75               	incfsz	___flge@ff1+2,w
  3924  07A7  2FA9               	goto	u2493
  3925  07A8  2FAA               	goto	u2494
  3926  07A9                     u2493:
  3927  07A9  02A2               	subwf	??___flge+2,f
  3928  07AA                     u2494:
  3929  07AA  0876               	movf	___flge@ff1+3,w
  3930  07AB  1C03               	skipc
  3931  07AC  0F76               	incfsz	___flge@ff1+3,w
  3932  07AD  2FAF               	goto	u2495
  3933  07AE  2FB0               	goto	u2496
  3934  07AF                     u2495:
  3935  07AF  02A3               	subwf	??___flge+3,f
  3936  07B0                     u2496:
  3937  07B0  0823               	movf	??___flge+3,w
  3938  07B1  00F6               	movwf	___flge@ff1+3
  3939  07B2  0822               	movf	??___flge+2,w
  3940  07B3  00F5               	movwf	___flge@ff1+2
  3941  07B4  0821               	movf	??___flge+1,w
  3942  07B5  00F4               	movwf	___flge@ff1+1
  3943  07B6  0820               	movf	??___flge,w
  3944  07B7  00F3               	movwf	___flge@ff1
  3945  07B8                     l2028:
  3946  07B8  1FFA               	btfss	___flge@ff2+3,7
  3947  07B9  2FBB               	goto	u2501
  3948  07BA  2FBC               	goto	u2500
  3949  07BB                     u2501:
  3950  07BB  2FE0               	goto	l420
  3951  07BC                     u2500:
  3952  07BC                     l2030:
  3953  07BC  3000               	movlw	0
  3954  07BD  00A0               	movwf	??___flge
  3955  07BE  3000               	movlw	0
  3956  07BF  00A1               	movwf	??___flge+1
  3957  07C0  3000               	movlw	0
  3958  07C1  00A2               	movwf	??___flge+2
  3959  07C2  3080               	movlw	128
  3960  07C3  00A3               	movwf	??___flge+3
  3961  07C4  0877               	movf	___flge@ff2,w
  3962  07C5  02A0               	subwf	??___flge,f
  3963  07C6  0878               	movf	___flge@ff2+1,w
  3964  07C7  1C03               	skipc
  3965  07C8  0F78               	incfsz	___flge@ff2+1,w
  3966  07C9  2FCB               	goto	u2511
  3967  07CA  2FCC               	goto	u2512
  3968  07CB                     u2511:
  3969  07CB  02A1               	subwf	??___flge+1,f
  3970  07CC                     u2512:
  3971  07CC  0879               	movf	___flge@ff2+2,w
  3972  07CD  1C03               	skipc
  3973  07CE  0F79               	incfsz	___flge@ff2+2,w
  3974  07CF  2FD1               	goto	u2513
  3975  07D0  2FD2               	goto	u2514
  3976  07D1                     u2513:
  3977  07D1  02A2               	subwf	??___flge+2,f
  3978  07D2                     u2514:
  3979  07D2  087A               	movf	___flge@ff2+3,w
  3980  07D3  1C03               	skipc
  3981  07D4  0F7A               	incfsz	___flge@ff2+3,w
  3982  07D5  2FD7               	goto	u2515
  3983  07D6  2FD8               	goto	u2516
  3984  07D7                     u2515:
  3985  07D7  02A3               	subwf	??___flge+3,f
  3986  07D8                     u2516:
  3987  07D8  0823               	movf	??___flge+3,w
  3988  07D9  00FA               	movwf	___flge@ff2+3
  3989  07DA  0822               	movf	??___flge+2,w
  3990  07DB  00F9               	movwf	___flge@ff2+2
  3991  07DC  0821               	movf	??___flge+1,w
  3992  07DD  00F8               	movwf	___flge@ff2+1
  3993  07DE  0820               	movf	??___flge,w
  3994  07DF  00F7               	movwf	___flge@ff2
  3995  07E0                     l420:
  3996  07E0  3080               	movlw	128
  3997  07E1  06F6               	xorwf	___flge@ff1+3,f
  3998  07E2  3080               	movlw	128
  3999  07E3  06FA               	xorwf	___flge@ff2+3,f
  4000  07E4  087A               	movf	___flge@ff2+3,w
  4001  07E5  0276               	subwf	___flge@ff1+3,w
  4002  07E6  1D03               	skipz
  4003  07E7  2FF2               	goto	u2525
  4004  07E8  0879               	movf	___flge@ff2+2,w
  4005  07E9  0275               	subwf	___flge@ff1+2,w
  4006  07EA  1D03               	skipz
  4007  07EB  2FF2               	goto	u2525
  4008  07EC  0878               	movf	___flge@ff2+1,w
  4009  07ED  0274               	subwf	___flge@ff1+1,w
  4010  07EE  1D03               	skipz
  4011  07EF  2FF2               	goto	u2525
  4012  07F0  0877               	movf	___flge@ff2,w
  4013  07F1  0273               	subwf	___flge@ff1,w
  4014  07F2                     u2525:
  4015  07F2  1803               	skipnc
  4016  07F3  2FF5               	goto	u2521
  4017  07F4  2FF6               	goto	u2520
  4018  07F5                     u2521:
  4019  07F5  2FF8               	goto	l2034
  4020  07F6                     u2520:
  4021  07F6                     l2032:
  4022  07F6  1003               	clrc
  4023  07F7  2FF9               	goto	l421
  4024  07F8                     l2034:
  4025  07F8  1403               	setc
  4026  07F9                     l421:
  4027  07F9  0008               	return
  4028  07FA                     __end_of___flge:
  4029                           
  4030                           	psect	text12
  4031  0900                     __ptext12:	
  4032 ;; *************** function _UARTSendString *****************
  4033 ;; Defined at:
  4034 ;;		line 114 in file "newmain.c"
  4035 ;; Parameters:    Size  Location     Type
  4036 ;;  str             1    wreg     PTR const unsigned char 
  4037 ;;		 -> ftoa@buf(17), 
  4038 ;;  max_length      1    4[COMMON] const unsigned char 
  4039 ;; Auto vars:     Size  Location     Type
  4040 ;;  str             1    6[COMMON] PTR const unsigned char 
  4041 ;;		 -> ftoa@buf(17), 
  4042 ;;  i               2    7[COMMON] int 
  4043 ;; Return value:  Size  Location     Type
  4044 ;;                  1    wreg      void 
  4045 ;; Registers used:
  4046 ;;		wreg, fsr0l, fsr0h, status,2, status,0, pclath, cstack
  4047 ;; Tracked objects:
  4048 ;;		On entry : 0/0
  4049 ;;		On exit  : 0/0
  4050 ;;		Unchanged: 0/0
  4051 ;; Data sizes:     COMMON   BANK0   BANK1   BANK3   BANK2
  4052 ;;      Params:         1       0       0       0       0
  4053 ;;      Locals:         3       0       0       0       0
  4054 ;;      Temps:          1       0       0       0       0
  4055 ;;      Totals:         5       0       0       0       0
  4056 ;;Total ram usage:        5 bytes
  4057 ;; Hardware stack levels used:    1
  4058 ;; Hardware stack levels required when called:    2
  4059 ;; This function calls:
  4060 ;;		_UARTSendChar
  4061 ;; This function is called by:
  4062 ;;		_main
  4063 ;; This function uses a non-reentrant model
  4064 ;;
  4065                           
  4066                           
  4067                           ;psect for function _UARTSendString
  4068  0900                     _UARTSendString:
  4069                           
  4070                           ;incstack = 0
  4071                           ; Regs used in _UARTSendString: [wreg-fsr0h+status,2+status,0+pclath+cstack]
  4072                           ;UARTSendString@str stored from wreg
  4073  0900  00F6               	movwf	UARTSendString@str
  4074  0901                     l2476:
  4075                           
  4076                           ;newmain.c: 115:     int i = 0;
  4077  0901  01F7               	clrf	UARTSendString@i
  4078  0902  01F8               	clrf	UARTSendString@i+1
  4079                           
  4080                           ;newmain.c: 116:     for (i=0 ; i<max_length && str[i]!='\0' ; i++) {
  4081  0903  01F7               	clrf	UARTSendString@i
  4082  0904  01F8               	clrf	UARTSendString@i+1
  4083  0905  2917               	goto	l2482
  4084  0906                     l2478:
  4085                           
  4086                           ;newmain.c: 117:         UARTSendChar(str[i]);
  4087  0906  0877               	movf	UARTSendString@i,w
  4088  0907  0776               	addwf	UARTSendString@str,w
  4089  0908  00F5               	movwf	??_UARTSendString
  4090  0909  0875               	movf	??_UARTSendString,w
  4091  090A  0084               	movwf	4
  4092  090B  0800               	movf	0,w
  4093  090C  160A  118A  27E7  120A  158A  	fcall	_UARTSendChar
  4094  0911                     l2480:
  4095                           
  4096                           ;newmain.c: 118:     }
  4097  0911  3001               	movlw	1
  4098  0912  07F7               	addwf	UARTSendString@i,f
  4099  0913  1803               	skipnc
  4100  0914  0AF8               	incf	UARTSendString@i+1,f
  4101  0915  3000               	movlw	0
  4102  0916  07F8               	addwf	UARTSendString@i+1,f
  4103  0917                     l2482:
  4104  0917  0878               	movf	UARTSendString@i+1,w
  4105  0918  3A80               	xorlw	128
  4106  0919  00F5               	movwf	??_UARTSendString
  4107  091A  3080               	movlw	128
  4108  091B  0275               	subwf	??_UARTSendString,w
  4109  091C  1D03               	skipz
  4110  091D  2920               	goto	u3385
  4111  091E  0874               	movf	UARTSendString@max_length,w
  4112  091F  0277               	subwf	UARTSendString@i,w
  4113  0920                     u3385:
  4114  0920  1803               	skipnc
  4115  0921  2923               	goto	u3381
  4116  0922  2924               	goto	u3380
  4117  0923                     u3381:
  4118  0923  292F               	goto	l157
  4119  0924                     u3380:
  4120  0924                     l2484:
  4121  0924  0877               	movf	UARTSendString@i,w
  4122  0925  0776               	addwf	UARTSendString@str,w
  4123  0926  00F5               	movwf	??_UARTSendString
  4124  0927  0875               	movf	??_UARTSendString,w
  4125  0928  0084               	movwf	4
  4126  0929  1383               	bcf	3,7	;select IRP bank0
  4127  092A  0800               	movf	0,w
  4128  092B  1D03               	btfss	3,2
  4129  092C  292E               	goto	u3391
  4130  092D  292F               	goto	u3390
  4131  092E                     u3391:
  4132  092E  2906               	goto	l2478
  4133  092F                     u3390:
  4134  092F                     l157:
  4135  092F  0008               	return
  4136  0930                     __end_of_UARTSendString:
  4137                           
  4138                           	psect	text13
  4139  17E7                     __ptext13:	
  4140 ;; *************** function _UARTSendChar *****************
  4141 ;; Defined at:
  4142 ;;		line 104 in file "newmain.c"
  4143 ;; Parameters:    Size  Location     Type
  4144 ;;  c               1    wreg     const unsigned char 
  4145 ;; Auto vars:     Size  Location     Type
  4146 ;;  c               1    3[COMMON] const unsigned char 
  4147 ;; Return value:  Size  Location     Type
  4148 ;;                  1    wreg      void 
  4149 ;; Registers used:
  4150 ;;		wreg
  4151 ;; Tracked objects:
  4152 ;;		On entry : 0/0
  4153 ;;		On exit  : 0/0
  4154 ;;		Unchanged: 0/0
  4155 ;; Data sizes:     COMMON   BANK0   BANK1   BANK3   BANK2
  4156 ;;      Params:         0       0       0       0       0
  4157 ;;      Locals:         1       0       0       0       0
  4158 ;;      Temps:          0       0       0       0       0
  4159 ;;      Totals:         1       0       0       0       0
  4160 ;;Total ram usage:        1 bytes
  4161 ;; Hardware stack levels used:    1
  4162 ;; Hardware stack levels required when called:    1
  4163 ;; This function calls:
  4164 ;;		Nothing
  4165 ;; This function is called by:
  4166 ;;		_main
  4167 ;;		_UARTSendString
  4168 ;; This function uses a non-reentrant model
  4169 ;;
  4170                           
  4171                           
  4172                           ;psect for function _UARTSendChar
  4173  17E7                     _UARTSendChar:
  4174                           
  4175                           ;incstack = 0
  4176                           ; Regs used in _UARTSendChar: [wreg]
  4177                           ;UARTSendChar@c stored from wreg
  4178  17E7  00F3               	movwf	UARTSendChar@c
  4179  17E8                     l2014:
  4180  17E8                     l146:	
  4181                           ;newmain.c: 105:     while (TXSTAbits.TRMT == 0);
  4182                           
  4183  17E8  1683               	bsf	3,5	;RP0=1, select bank1
  4184  17E9  1303               	bcf	3,6	;RP1=0, select bank1
  4185  17EA  1C98               	btfss	24,1	;volatile
  4186  17EB  2FED               	goto	u2451
  4187  17EC  2FEE               	goto	u2450
  4188  17ED                     u2451:
  4189  17ED  2FE8               	goto	l146
  4190  17EE                     u2450:
  4191  17EE                     l2016:
  4192                           
  4193                           ;newmain.c: 106:     TXREG = c;
  4194  17EE  0873               	movf	UARTSendChar@c,w
  4195  17EF  1283               	bcf	3,5	;RP0=0, select bank0
  4196  17F0  1303               	bcf	3,6	;RP1=0, select bank0
  4197  17F1  0099               	movwf	25	;volatile
  4198  17F2                     l149:
  4199  17F2  0008               	return
  4200  17F3                     __end_of_UARTSendChar:
  4201                           
  4202                           	psect	text14
  4203  060D                     __ptext14:	
  4204 ;; *************** function _I2C_WWW *****************
  4205 ;; Defined at:
  4206 ;;		line 73 in file "./I2Clib.h"
  4207 ;; Parameters:    Size  Location     Type
  4208 ;;  dato            1    wreg     PTR float 
  4209 ;;		 -> I2gato(12), 
  4210 ;; Auto vars:     Size  Location     Type
  4211 ;;  dato            1   50[BANK0 ] PTR float 
  4212 ;;		 -> I2gato(12), 
  4213 ;;  i               2   51[BANK0 ] int 
  4214 ;;  i               2   48[BANK0 ] int 
  4215 ;;  d               6   42[BANK0 ] unsigned char [6]
  4216 ;;  e               6   36[BANK0 ] int [3]
  4217 ;; Return value:  Size  Location     Type
  4218 ;;                  1    wreg      void 
  4219 ;; Registers used:
  4220 ;;		wreg, fsr0l, fsr0h, status,2, status,0, btemp+1, pclath, cstack
  4221 ;; Tracked objects:
  4222 ;;		On entry : 0/0
  4223 ;;		On exit  : 0/0
  4224 ;;		Unchanged: 0/0
  4225 ;; Data sizes:     COMMON   BANK0   BANK1   BANK3   BANK2
  4226 ;;      Params:         0       0       0       0       0
  4227 ;;      Locals:         0      17       0       0       0
  4228 ;;      Temps:          0       4       0       0       0
  4229 ;;      Totals:         0      21       0       0       0
  4230 ;;Total ram usage:       21 bytes
  4231 ;; Hardware stack levels used:    1
  4232 ;; Hardware stack levels required when called:    3
  4233 ;; This function calls:
  4234 ;;		_I2C_Master_Read
  4235 ;;		_I2C_Master_RepeatedStart
  4236 ;;		_I2C_Master_Start
  4237 ;;		_I2C_Master_Stop
  4238 ;;		_I2C_Master_Write
  4239 ;;		___flmul
  4240 ;;		___xxtofl
  4241 ;; This function is called by:
  4242 ;;		_main
  4243 ;; This function uses a non-reentrant model
  4244 ;;
  4245                           
  4246                           
  4247                           ;psect for function _I2C_WWW
  4248  060D                     _I2C_WWW:
  4249                           
  4250                           ;incstack = 0
  4251                           ; Regs used in _I2C_WWW: [wreg-fsr0h+status,2+status,0+btemp+1+pclath+cstack]
  4252                           ;I2C_WWW@dato stored from wreg
  4253  060D  1283               	bcf	3,5	;RP0=0, select bank0
  4254  060E  1303               	bcf	3,6	;RP1=0, select bank0
  4255  060F  00D2               	movwf	I2C_WWW@dato
  4256  0610                     l2394:
  4257                           
  4258                           ;./I2Clib.h: 74:     char d[6];;./I2Clib.h: 75:     I2C_Master_Start();
  4259  0610  160A  118A  27C1  120A  118A  	fcall	_I2C_Master_Start
  4260                           
  4261                           ;./I2Clib.h: 76:     I2C_Master_Write(0xD0);
  4262  0615  30D0               	movlw	208
  4263  0616  00F3               	movwf	I2C_Master_Write@d
  4264  0617  3000               	movlw	0
  4265  0618  00F4               	movwf	I2C_Master_Write@d+1
  4266  0619  120A  158A  2039  120A  118A  	fcall	_I2C_Master_Write
  4267                           
  4268                           ;./I2Clib.h: 77:     I2C_Master_Write(0x3B);
  4269  061E  303B               	movlw	59
  4270  061F  00F3               	movwf	I2C_Master_Write@d
  4271  0620  3000               	movlw	0
  4272  0621  00F4               	movwf	I2C_Master_Write@d+1
  4273  0622  120A  158A  2039  120A  118A  	fcall	_I2C_Master_Write
  4274                           
  4275                           ;./I2Clib.h: 78:     I2C_Master_RepeatedStart();
  4276  0627  160A  118A  27D3  120A  118A  	fcall	_I2C_Master_RepeatedStart
  4277                           
  4278                           ;./I2Clib.h: 79:     I2C_Master_Write(0xD1);
  4279  062C  30D1               	movlw	209
  4280  062D  00F3               	movwf	I2C_Master_Write@d
  4281  062E  3000               	movlw	0
  4282  062F  00F4               	movwf	I2C_Master_Write@d+1
  4283  0630  120A  158A  2039  120A  118A  	fcall	_I2C_Master_Write
  4284  0635                     l2396:
  4285                           
  4286                           ;./I2Clib.h: 80:     for(int i = 0;i<5;i++)d[i]=I2C_Master_Read(0);
  4287  0635  1283               	bcf	3,5	;RP0=0, select bank0
  4288  0636  1303               	bcf	3,6	;RP1=0, select bank0
  4289  0637  01D0               	clrf	I2C_WWW@i
  4290  0638  01D1               	clrf	I2C_WWW@i+1
  4291  0639                     l2402:
  4292  0639  3000               	movlw	0
  4293  063A  00F3               	movwf	I2C_Master_Read@a
  4294  063B  00F4               	movwf	I2C_Master_Read@a+1
  4295  063C  120A  158A  2130  120A  118A  	fcall	_I2C_Master_Read
  4296  0641  0873               	movf	?_I2C_Master_Read,w
  4297  0642  1283               	bcf	3,5	;RP0=0, select bank0
  4298  0643  1303               	bcf	3,6	;RP1=0, select bank0
  4299  0644  00C0               	movwf	??_I2C_WWW
  4300  0645  0850               	movf	I2C_WWW@i,w
  4301  0646  3E4A               	addlw	(low (I2C_WWW@d| 0))& (0+255)
  4302  0647  0084               	movwf	4
  4303  0648  0840               	movf	??_I2C_WWW,w
  4304  0649  1383               	bcf	3,7	;select IRP bank0
  4305  064A  0080               	movwf	0
  4306  064B                     l2404:
  4307  064B  3001               	movlw	1
  4308  064C  07D0               	addwf	I2C_WWW@i,f
  4309  064D  1803               	skipnc
  4310  064E  0AD1               	incf	I2C_WWW@i+1,f
  4311  064F  3000               	movlw	0
  4312  0650  07D1               	addwf	I2C_WWW@i+1,f
  4313  0651                     l2406:
  4314  0651  0851               	movf	I2C_WWW@i+1,w
  4315  0652  3A80               	xorlw	128
  4316  0653  00FF               	movwf	btemp+1
  4317  0654  3080               	movlw	128
  4318  0655  027F               	subwf	btemp+1,w
  4319  0656  1D03               	skipz
  4320  0657  2E5A               	goto	u3355
  4321  0658  3005               	movlw	5
  4322  0659  0250               	subwf	I2C_WWW@i,w
  4323  065A                     u3355:
  4324  065A  1C03               	skipc
  4325  065B  2E5D               	goto	u3351
  4326  065C  2E5E               	goto	u3350
  4327  065D                     u3351:
  4328  065D  2E39               	goto	l2402
  4329  065E                     u3350:
  4330  065E                     l2408:
  4331                           
  4332                           ;./I2Clib.h: 81:     d[5]=I2C_Master_Read(1);
  4333  065E  3001               	movlw	1
  4334  065F  00F3               	movwf	I2C_Master_Read@a
  4335  0660  3000               	movlw	0
  4336  0661  00F4               	movwf	I2C_Master_Read@a+1
  4337  0662  120A  158A  2130  120A  118A  	fcall	_I2C_Master_Read
  4338  0667  0873               	movf	?_I2C_Master_Read,w
  4339  0668  1283               	bcf	3,5	;RP0=0, select bank0
  4340  0669  1303               	bcf	3,6	;RP1=0, select bank0
  4341  066A  00C0               	movwf	??_I2C_WWW
  4342  066B  0840               	movf	??_I2C_WWW,w
  4343  066C  00CF               	movwf	I2C_WWW@d+5
  4344                           
  4345                           ;./I2Clib.h: 82:     I2C_Master_Stop();
  4346  066D  160A  118A  27CA  120A  118A  	fcall	_I2C_Master_Stop
  4347  0672                     l2410:
  4348                           
  4349                           ;./I2Clib.h: 83:     int e[3];;./I2Clib.h: 84:     for(int i = 0; i<3 ; i++) e[i]=((int)
      +                           d[2*i]<<8)|((int)d[2*i+1]);
  4350  0672  1283               	bcf	3,5	;RP0=0, select bank0
  4351  0673  1303               	bcf	3,6	;RP1=0, select bank0
  4352  0674  01D3               	clrf	I2C_WWW@i_166
  4353  0675  01D4               	clrf	I2C_WWW@i_166+1
  4354  0676                     l2416:
  4355  0676  1403               	setc
  4356  0677  1283               	bcf	3,5	;RP0=0, select bank0
  4357  0678  1303               	bcf	3,6	;RP1=0, select bank0
  4358  0679  0D53               	rlf	I2C_WWW@i_166,w
  4359  067A  3E4A               	addlw	(low (I2C_WWW@d| 0))& (0+255)
  4360  067B  0084               	movwf	4
  4361  067C  1383               	bcf	3,7	;select IRP bank0
  4362  067D  0800               	movf	0,w
  4363  067E  00C0               	movwf	??_I2C_WWW
  4364  067F  0853               	movf	I2C_WWW@i_166,w
  4365  0680  00C1               	movwf	??_I2C_WWW+1
  4366  0681  0741               	addwf	??_I2C_WWW+1,w
  4367  0682  3E4A               	addlw	(low (I2C_WWW@d| 0))& (0+255)
  4368  0683  0084               	movwf	4
  4369  0684  0800               	movf	0,w
  4370  0685  00C2               	movwf	??_I2C_WWW+2
  4371  0686  0853               	movf	I2C_WWW@i_166,w
  4372  0687  00C3               	movwf	??_I2C_WWW+3
  4373  0688  0743               	addwf	??_I2C_WWW+3,w
  4374  0689  3E44               	addlw	(low (I2C_WWW@e| 0))& (0+255)
  4375  068A  0084               	movwf	4
  4376  068B  0840               	movf	??_I2C_WWW,w
  4377  068C  0080               	movwf	0
  4378  068D  0A84               	incf	4,f
  4379  068E  0842               	movf	??_I2C_WWW+2,w
  4380  068F  0080               	movwf	0
  4381  0690                     l2418:
  4382  0690  3001               	movlw	1
  4383  0691  07D3               	addwf	I2C_WWW@i_166,f
  4384  0692  1803               	skipnc
  4385  0693  0AD4               	incf	I2C_WWW@i_166+1,f
  4386  0694  3000               	movlw	0
  4387  0695  07D4               	addwf	I2C_WWW@i_166+1,f
  4388  0696                     l2420:
  4389  0696  0854               	movf	I2C_WWW@i_166+1,w
  4390  0697  3A80               	xorlw	128
  4391  0698  00FF               	movwf	btemp+1
  4392  0699  3080               	movlw	128
  4393  069A  027F               	subwf	btemp+1,w
  4394  069B  1D03               	skipz
  4395  069C  2E9F               	goto	u3365
  4396  069D  3003               	movlw	3
  4397  069E  0253               	subwf	I2C_WWW@i_166,w
  4398  069F                     u3365:
  4399  069F  1C03               	skipc
  4400  06A0  2EA2               	goto	u3361
  4401  06A1  2EA3               	goto	u3360
  4402  06A2                     u3361:
  4403  06A2  2E76               	goto	l2416
  4404  06A3                     u3360:
  4405  06A3                     l2422:
  4406                           
  4407                           ;./I2Clib.h: 85:     dato[0] = d[0]*0.000598;
  4408  06A3  303A               	movlw	58
  4409  06A4  1283               	bcf	3,5	;RP0=0, select bank0
  4410  06A5  1303               	bcf	3,6	;RP1=0, select bank0
  4411  06A6  00A9               	movwf	___flmul@b+3
  4412  06A7  301C               	movlw	28
  4413  06A8  00A8               	movwf	___flmul@b+2
  4414  06A9  30C3               	movlw	195
  4415  06AA  00A7               	movwf	___flmul@b+1
  4416  06AB  301A               	movlw	26
  4417  06AC  00A6               	movwf	___flmul@b
  4418  06AD  084A               	movf	I2C_WWW@d,w
  4419  06AE  00C0               	movwf	??_I2C_WWW
  4420  06AF  01C1               	clrf	??_I2C_WWW+1
  4421  06B0  01C2               	clrf	??_I2C_WWW+2
  4422  06B1  01C3               	clrf	??_I2C_WWW+3
  4423  06B2  0843               	movf	??_I2C_WWW+3,w
  4424  06B3  00F6               	movwf	___xxtofl@val+3
  4425  06B4  0842               	movf	??_I2C_WWW+2,w
  4426  06B5  00F5               	movwf	___xxtofl@val+2
  4427  06B6  0841               	movf	??_I2C_WWW+1,w
  4428  06B7  00F4               	movwf	___xxtofl@val+1
  4429  06B8  0840               	movf	??_I2C_WWW,w
  4430  06B9  00F3               	movwf	___xxtofl@val
  4431  06BA  3001               	movlw	1
  4432  06BB  120A  158A  2337  120A  118A  	fcall	___xxtofl
  4433  06C0  0876               	movf	?___xxtofl+3,w
  4434  06C1  1283               	bcf	3,5	;RP0=0, select bank0
  4435  06C2  1303               	bcf	3,6	;RP1=0, select bank0
  4436  06C3  00AD               	movwf	___flmul@a+3
  4437  06C4  0875               	movf	?___xxtofl+2,w
  4438  06C5  00AC               	movwf	___flmul@a+2
  4439  06C6  0874               	movf	?___xxtofl+1,w
  4440  06C7  00AB               	movwf	___flmul@a+1
  4441  06C8  0873               	movf	?___xxtofl,w
  4442  06C9  00AA               	movwf	___flmul@a
  4443  06CA  120A  118A  2024  120A  118A  	fcall	___flmul
  4444  06CF  1283               	bcf	3,5	;RP0=0, select bank0
  4445  06D0  1303               	bcf	3,6	;RP1=0, select bank0
  4446  06D1  0852               	movf	I2C_WWW@dato,w
  4447  06D2  0084               	movwf	4
  4448  06D3  0826               	movf	?___flmul,w
  4449  06D4  1383               	bcf	3,7	;select IRP bank0
  4450  06D5  0080               	movwf	0
  4451  06D6  0A84               	incf	4,f
  4452  06D7  0827               	movf	?___flmul+1,w
  4453  06D8  0080               	movwf	0
  4454  06D9  0A84               	incf	4,f
  4455  06DA  0828               	movf	?___flmul+2,w
  4456  06DB  0080               	movwf	0
  4457  06DC  0A84               	incf	4,f
  4458  06DD  0829               	movf	?___flmul+3,w
  4459  06DE  0080               	movwf	0
  4460                           
  4461                           ;./I2Clib.h: 86:     dato[1] = d[0]*0.000598;
  4462  06DF  303A               	movlw	58
  4463  06E0  00A9               	movwf	___flmul@b+3
  4464  06E1  301C               	movlw	28
  4465  06E2  00A8               	movwf	___flmul@b+2
  4466  06E3  30C3               	movlw	195
  4467  06E4  00A7               	movwf	___flmul@b+1
  4468  06E5  301A               	movlw	26
  4469  06E6  00A6               	movwf	___flmul@b
  4470  06E7  084A               	movf	I2C_WWW@d,w
  4471  06E8  00C0               	movwf	??_I2C_WWW
  4472  06E9  01C1               	clrf	??_I2C_WWW+1
  4473  06EA  01C2               	clrf	??_I2C_WWW+2
  4474  06EB  01C3               	clrf	??_I2C_WWW+3
  4475  06EC  0843               	movf	??_I2C_WWW+3,w
  4476  06ED  00F6               	movwf	___xxtofl@val+3
  4477  06EE  0842               	movf	??_I2C_WWW+2,w
  4478  06EF  00F5               	movwf	___xxtofl@val+2
  4479  06F0  0841               	movf	??_I2C_WWW+1,w
  4480  06F1  00F4               	movwf	___xxtofl@val+1
  4481  06F2  0840               	movf	??_I2C_WWW,w
  4482  06F3  00F3               	movwf	___xxtofl@val
  4483  06F4  3001               	movlw	1
  4484  06F5  120A  158A  2337  120A  118A  	fcall	___xxtofl
  4485  06FA  0876               	movf	?___xxtofl+3,w
  4486  06FB  1283               	bcf	3,5	;RP0=0, select bank0
  4487  06FC  1303               	bcf	3,6	;RP1=0, select bank0
  4488  06FD  00AD               	movwf	___flmul@a+3
  4489  06FE  0875               	movf	?___xxtofl+2,w
  4490  06FF  00AC               	movwf	___flmul@a+2
  4491  0700  0874               	movf	?___xxtofl+1,w
  4492  0701  00AB               	movwf	___flmul@a+1
  4493  0702  0873               	movf	?___xxtofl,w
  4494  0703  00AA               	movwf	___flmul@a
  4495  0704  120A  118A  2024  120A  118A  	fcall	___flmul
  4496  0709  1283               	bcf	3,5	;RP0=0, select bank0
  4497  070A  1303               	bcf	3,6	;RP1=0, select bank0
  4498  070B  0852               	movf	I2C_WWW@dato,w
  4499  070C  3E04               	addlw	4
  4500  070D  0084               	movwf	4
  4501  070E  0826               	movf	?___flmul,w
  4502  070F  1383               	bcf	3,7	;select IRP bank0
  4503  0710  0080               	movwf	0
  4504  0711  0A84               	incf	4,f
  4505  0712  0827               	movf	?___flmul+1,w
  4506  0713  0080               	movwf	0
  4507  0714  0A84               	incf	4,f
  4508  0715  0828               	movf	?___flmul+2,w
  4509  0716  0080               	movwf	0
  4510  0717  0A84               	incf	4,f
  4511  0718  0829               	movf	?___flmul+3,w
  4512  0719  0080               	movwf	0
  4513                           
  4514                           ;./I2Clib.h: 87:     dato[2] = d[0]*0.000598;
  4515  071A  303A               	movlw	58
  4516  071B  00A9               	movwf	___flmul@b+3
  4517  071C  301C               	movlw	28
  4518  071D  00A8               	movwf	___flmul@b+2
  4519  071E  30C3               	movlw	195
  4520  071F  00A7               	movwf	___flmul@b+1
  4521  0720  301A               	movlw	26
  4522  0721  00A6               	movwf	___flmul@b
  4523  0722  084A               	movf	I2C_WWW@d,w
  4524  0723  00C0               	movwf	??_I2C_WWW
  4525  0724  01C1               	clrf	??_I2C_WWW+1
  4526  0725  01C2               	clrf	??_I2C_WWW+2
  4527  0726  01C3               	clrf	??_I2C_WWW+3
  4528  0727  0843               	movf	??_I2C_WWW+3,w
  4529  0728  00F6               	movwf	___xxtofl@val+3
  4530  0729  0842               	movf	??_I2C_WWW+2,w
  4531  072A  00F5               	movwf	___xxtofl@val+2
  4532  072B  0841               	movf	??_I2C_WWW+1,w
  4533  072C  00F4               	movwf	___xxtofl@val+1
  4534  072D  0840               	movf	??_I2C_WWW,w
  4535  072E  00F3               	movwf	___xxtofl@val
  4536  072F  3001               	movlw	1
  4537  0730  120A  158A  2337  120A  118A  	fcall	___xxtofl
  4538  0735  0876               	movf	?___xxtofl+3,w
  4539  0736  1283               	bcf	3,5	;RP0=0, select bank0
  4540  0737  1303               	bcf	3,6	;RP1=0, select bank0
  4541  0738  00AD               	movwf	___flmul@a+3
  4542  0739  0875               	movf	?___xxtofl+2,w
  4543  073A  00AC               	movwf	___flmul@a+2
  4544  073B  0874               	movf	?___xxtofl+1,w
  4545  073C  00AB               	movwf	___flmul@a+1
  4546  073D  0873               	movf	?___xxtofl,w
  4547  073E  00AA               	movwf	___flmul@a
  4548  073F  120A  118A  2024  120A  118A  	fcall	___flmul
  4549  0744  1283               	bcf	3,5	;RP0=0, select bank0
  4550  0745  1303               	bcf	3,6	;RP1=0, select bank0
  4551  0746  0852               	movf	I2C_WWW@dato,w
  4552  0747  3E08               	addlw	8
  4553  0748  0084               	movwf	4
  4554  0749  0826               	movf	?___flmul,w
  4555  074A  1383               	bcf	3,7	;select IRP bank0
  4556  074B  0080               	movwf	0
  4557  074C  0A84               	incf	4,f
  4558  074D  0827               	movf	?___flmul+1,w
  4559  074E  0080               	movwf	0
  4560  074F  0A84               	incf	4,f
  4561  0750  0828               	movf	?___flmul+2,w
  4562  0751  0080               	movwf	0
  4563  0752  0A84               	incf	4,f
  4564  0753  0829               	movf	?___flmul+3,w
  4565  0754  0080               	movwf	0
  4566  0755                     l116:
  4567  0755  0008               	return
  4568  0756                     __end_of_I2C_WWW:
  4569                           
  4570                           	psect	text15
  4571  0B37                     __ptext15:	
  4572 ;; *************** function ___xxtofl *****************
  4573 ;; Defined at:
  4574 ;;		line 10 in file "D:\Program Files\Microchip\xc8\v2.31\pic\sources\c90\common\xxtofl.c"
  4575 ;; Parameters:    Size  Location     Type
  4576 ;;  sign            1    wreg     unsigned char 
  4577 ;;  val             4    3[COMMON] long 
  4578 ;; Auto vars:     Size  Location     Type
  4579 ;;  sign            1    0[BANK0 ] unsigned char 
  4580 ;;  arg             4    2[BANK0 ] unsigned long 
  4581 ;;  exp             1    1[BANK0 ] unsigned char 
  4582 ;; Return value:  Size  Location     Type
  4583 ;;                  4    3[COMMON] unsigned char 
  4584 ;; Registers used:
  4585 ;;		wreg, status,2, status,0
  4586 ;; Tracked objects:
  4587 ;;		On entry : 0/0
  4588 ;;		On exit  : 0/0
  4589 ;;		Unchanged: 0/0
  4590 ;; Data sizes:     COMMON   BANK0   BANK1   BANK3   BANK2
  4591 ;;      Params:         4       0       0       0       0
  4592 ;;      Locals:         0       6       0       0       0
  4593 ;;      Temps:          4       0       0       0       0
  4594 ;;      Totals:         8       6       0       0       0
  4595 ;;Total ram usage:       14 bytes
  4596 ;; Hardware stack levels used:    1
  4597 ;; Hardware stack levels required when called:    1
  4598 ;; This function calls:
  4599 ;;		Nothing
  4600 ;; This function is called by:
  4601 ;;		_I2C_WWW
  4602 ;;		_ftoa
  4603 ;; This function uses a non-reentrant model
  4604 ;;
  4605                           
  4606                           
  4607                           ;psect for function ___xxtofl
  4608  0B37                     ___xxtofl:
  4609                           
  4610                           ;incstack = 0
  4611                           ; Regs used in ___xxtofl: [wreg+status,2+status,0]
  4612                           ;___xxtofl@sign stored from wreg
  4613  0B37  1283               	bcf	3,5	;RP0=0, select bank0
  4614  0B38  1303               	bcf	3,6	;RP1=0, select bank0
  4615  0B39  00A0               	movwf	___xxtofl@sign
  4616  0B3A                     l2228:
  4617  0B3A  0820               	movf	___xxtofl@sign,w
  4618  0B3B  1903               	btfsc	3,2
  4619  0B3C  2B3E               	goto	u3011
  4620  0B3D  2B3F               	goto	u3010
  4621  0B3E                     u3011:
  4622  0B3E  2B53               	goto	l2234
  4623  0B3F                     u3010:
  4624  0B3F                     l2230:
  4625  0B3F  1FF6               	btfss	___xxtofl@val+3,7
  4626  0B40  2B42               	goto	u3021
  4627  0B41  2B43               	goto	u3020
  4628  0B42                     u3021:
  4629  0B42  2B53               	goto	l2234
  4630  0B43                     u3020:
  4631  0B43                     l2232:
  4632  0B43  0973               	comf	___xxtofl@val,w
  4633  0B44  00A2               	movwf	___xxtofl@arg
  4634  0B45  0974               	comf	___xxtofl@val+1,w
  4635  0B46  00A3               	movwf	___xxtofl@arg+1
  4636  0B47  0975               	comf	___xxtofl@val+2,w
  4637  0B48  00A4               	movwf	___xxtofl@arg+2
  4638  0B49  0976               	comf	___xxtofl@val+3,w
  4639  0B4A  00A5               	movwf	___xxtofl@arg+3
  4640  0B4B  0AA2               	incf	___xxtofl@arg,f
  4641  0B4C  1903               	skipnz
  4642  0B4D  0AA3               	incf	___xxtofl@arg+1,f
  4643  0B4E  1903               	skipnz
  4644  0B4F  0AA4               	incf	___xxtofl@arg+2,f
  4645  0B50  1903               	skipnz
  4646  0B51  0AA5               	incf	___xxtofl@arg+3,f
  4647  0B52  2B5B               	goto	l676
  4648  0B53                     l2234:
  4649  0B53  0876               	movf	___xxtofl@val+3,w
  4650  0B54  00A5               	movwf	___xxtofl@arg+3
  4651  0B55  0875               	movf	___xxtofl@val+2,w
  4652  0B56  00A4               	movwf	___xxtofl@arg+2
  4653  0B57  0874               	movf	___xxtofl@val+1,w
  4654  0B58  00A3               	movwf	___xxtofl@arg+1
  4655  0B59  0873               	movf	___xxtofl@val,w
  4656  0B5A  00A2               	movwf	___xxtofl@arg
  4657  0B5B                     l676:
  4658  0B5B  0876               	movf	___xxtofl@val+3,w
  4659  0B5C  0475               	iorwf	___xxtofl@val+2,w
  4660  0B5D  0474               	iorwf	___xxtofl@val+1,w
  4661  0B5E  0473               	iorwf	___xxtofl@val,w
  4662  0B5F  1D03               	skipz
  4663  0B60  2B62               	goto	u3031
  4664  0B61  2B63               	goto	u3030
  4665  0B62                     u3031:
  4666  0B62  2B6C               	goto	l2240
  4667  0B63                     u3030:
  4668  0B63                     l2236:
  4669  0B63  3000               	movlw	0
  4670  0B64  00F6               	movwf	?___xxtofl+3
  4671  0B65  3000               	movlw	0
  4672  0B66  00F5               	movwf	?___xxtofl+2
  4673  0B67  3000               	movlw	0
  4674  0B68  00F4               	movwf	?___xxtofl+1
  4675  0B69  3000               	movlw	0
  4676  0B6A  00F3               	movwf	?___xxtofl
  4677  0B6B  2BF2               	goto	l678
  4678  0B6C                     l2240:
  4679  0B6C  3096               	movlw	150
  4680  0B6D  00F7               	movwf	??___xxtofl
  4681  0B6E  0877               	movf	??___xxtofl,w
  4682  0B6F  00A1               	movwf	___xxtofl@exp
  4683  0B70  2B7E               	goto	l2244
  4684  0B71                     l2242:
  4685  0B71  3001               	movlw	1
  4686  0B72  00F7               	movwf	??___xxtofl
  4687  0B73  0877               	movf	??___xxtofl,w
  4688  0B74  07A1               	addwf	___xxtofl@exp,f
  4689  0B75  3001               	movlw	1
  4690  0B76                     u3045:
  4691  0B76  1003               	clrc
  4692  0B77  0CA5               	rrf	___xxtofl@arg+3,f
  4693  0B78  0CA4               	rrf	___xxtofl@arg+2,f
  4694  0B79  0CA3               	rrf	___xxtofl@arg+1,f
  4695  0B7A  0CA2               	rrf	___xxtofl@arg,f
  4696  0B7B  3EFF               	addlw	-1
  4697  0B7C  1D03               	skipz
  4698  0B7D  2B76               	goto	u3045
  4699  0B7E                     l2244:
  4700  0B7E  30FE               	movlw	254
  4701  0B7F  0525               	andwf	___xxtofl@arg+3,w
  4702  0B80  1D03               	btfss	3,2
  4703  0B81  2B83               	goto	u3051
  4704  0B82  2B84               	goto	u3050
  4705  0B83                     u3051:
  4706  0B83  2B71               	goto	l2242
  4707  0B84                     u3050:
  4708  0B84  2BA0               	goto	l682
  4709  0B85                     l2246:
  4710  0B85  3001               	movlw	1
  4711  0B86  00F7               	movwf	??___xxtofl
  4712  0B87  0877               	movf	??___xxtofl,w
  4713  0B88  07A1               	addwf	___xxtofl@exp,f
  4714  0B89                     l2248:
  4715  0B89  3001               	movlw	1
  4716  0B8A  07A2               	addwf	___xxtofl@arg,f
  4717  0B8B  3000               	movlw	0
  4718  0B8C  1803               	skipnc
  4719  0B8D  3001               	movlw	1
  4720  0B8E  07A3               	addwf	___xxtofl@arg+1,f
  4721  0B8F  3000               	movlw	0
  4722  0B90  1803               	skipnc
  4723  0B91  3001               	movlw	1
  4724  0B92  07A4               	addwf	___xxtofl@arg+2,f
  4725  0B93  3000               	movlw	0
  4726  0B94  1803               	skipnc
  4727  0B95  3001               	movlw	1
  4728  0B96  07A5               	addwf	___xxtofl@arg+3,f
  4729  0B97                     l2250:
  4730  0B97  3001               	movlw	1
  4731  0B98                     u3065:
  4732  0B98  1003               	clrc
  4733  0B99  0CA5               	rrf	___xxtofl@arg+3,f
  4734  0B9A  0CA4               	rrf	___xxtofl@arg+2,f
  4735  0B9B  0CA3               	rrf	___xxtofl@arg+1,f
  4736  0B9C  0CA2               	rrf	___xxtofl@arg,f
  4737  0B9D  3EFF               	addlw	-1
  4738  0B9E  1D03               	skipz
  4739  0B9F  2B98               	goto	u3065
  4740  0BA0                     l682:
  4741  0BA0  30FF               	movlw	255
  4742  0BA1  0525               	andwf	___xxtofl@arg+3,w
  4743  0BA2  1D03               	btfss	3,2
  4744  0BA3  2BA5               	goto	u3071
  4745  0BA4  2BA6               	goto	u3070
  4746  0BA5                     u3071:
  4747  0BA5  2B85               	goto	l2246
  4748  0BA6                     u3070:
  4749  0BA6  2BB2               	goto	l2254
  4750  0BA7                     l2252:
  4751  0BA7  3001               	movlw	1
  4752  0BA8  02A1               	subwf	___xxtofl@exp,f
  4753  0BA9  3001               	movlw	1
  4754  0BAA  00F7               	movwf	??___xxtofl
  4755  0BAB                     u3085:
  4756  0BAB  1003               	clrc
  4757  0BAC  0DA2               	rlf	___xxtofl@arg,f
  4758  0BAD  0DA3               	rlf	___xxtofl@arg+1,f
  4759  0BAE  0DA4               	rlf	___xxtofl@arg+2,f
  4760  0BAF  0DA5               	rlf	___xxtofl@arg+3,f
  4761  0BB0  0BF7               	decfsz	??___xxtofl,f
  4762  0BB1  2BAB               	goto	u3085
  4763  0BB2                     l2254:
  4764  0BB2  1BA4               	btfsc	___xxtofl@arg+2,7
  4765  0BB3  2BB5               	goto	u3091
  4766  0BB4  2BB6               	goto	u3090
  4767  0BB5                     u3091:
  4768  0BB5  2BBC               	goto	l689
  4769  0BB6                     u3090:
  4770  0BB6                     l2256:
  4771  0BB6  3002               	movlw	2
  4772  0BB7  0221               	subwf	___xxtofl@exp,w
  4773  0BB8  1803               	skipnc
  4774  0BB9  2BBB               	goto	u3101
  4775  0BBA  2BBC               	goto	u3100
  4776  0BBB                     u3101:
  4777  0BBB  2BA7               	goto	l2252
  4778  0BBC                     u3100:
  4779  0BBC                     l689:
  4780  0BBC  1821               	btfsc	___xxtofl@exp,0
  4781  0BBD  2BBF               	goto	u3111
  4782  0BBE  2BC0               	goto	u3110
  4783  0BBF                     u3111:
  4784  0BBF  2BC8               	goto	l690
  4785  0BC0                     u3110:
  4786  0BC0                     l2258:
  4787  0BC0  30FF               	movlw	255
  4788  0BC1  05A2               	andwf	___xxtofl@arg,f
  4789  0BC2  30FF               	movlw	255
  4790  0BC3  05A3               	andwf	___xxtofl@arg+1,f
  4791  0BC4  307F               	movlw	127
  4792  0BC5  05A4               	andwf	___xxtofl@arg+2,f
  4793  0BC6  30FF               	movlw	255
  4794  0BC7  05A5               	andwf	___xxtofl@arg+3,f
  4795  0BC8                     l690:
  4796  0BC8  1003               	clrc
  4797  0BC9  0CA1               	rrf	___xxtofl@exp,f
  4798  0BCA                     l2260:
  4799  0BCA  0821               	movf	___xxtofl@exp,w
  4800  0BCB  00F7               	movwf	??___xxtofl
  4801  0BCC  01F8               	clrf	??___xxtofl+1
  4802  0BCD  01F9               	clrf	??___xxtofl+2
  4803  0BCE  01FA               	clrf	??___xxtofl+3
  4804  0BCF  3018               	movlw	24
  4805  0BD0                     u3125:
  4806  0BD0  1003               	clrc
  4807  0BD1  0DF7               	rlf	??___xxtofl,f
  4808  0BD2  0DF8               	rlf	??___xxtofl+1,f
  4809  0BD3  0DF9               	rlf	??___xxtofl+2,f
  4810  0BD4  0DFA               	rlf	??___xxtofl+3,f
  4811  0BD5                     u3120:
  4812  0BD5  3EFF               	addlw	-1
  4813  0BD6  1D03               	skipz
  4814  0BD7  2BD0               	goto	u3125
  4815  0BD8  0877               	movf	??___xxtofl,w
  4816  0BD9  04A2               	iorwf	___xxtofl@arg,f
  4817  0BDA  0878               	movf	??___xxtofl+1,w
  4818  0BDB  04A3               	iorwf	___xxtofl@arg+1,f
  4819  0BDC  0879               	movf	??___xxtofl+2,w
  4820  0BDD  04A4               	iorwf	___xxtofl@arg+2,f
  4821  0BDE  087A               	movf	??___xxtofl+3,w
  4822  0BDF  04A5               	iorwf	___xxtofl@arg+3,f
  4823  0BE0                     l2262:
  4824  0BE0  0820               	movf	___xxtofl@sign,w
  4825  0BE1  1903               	btfsc	3,2
  4826  0BE2  2BE4               	goto	u3131
  4827  0BE3  2BE5               	goto	u3130
  4828  0BE4                     u3131:
  4829  0BE4  2BEA               	goto	l2268
  4830  0BE5                     u3130:
  4831  0BE5                     l2264:
  4832  0BE5  1FF6               	btfss	___xxtofl@val+3,7
  4833  0BE6  2BE8               	goto	u3141
  4834  0BE7  2BE9               	goto	u3140
  4835  0BE8                     u3141:
  4836  0BE8  2BEA               	goto	l2268
  4837  0BE9                     u3140:
  4838  0BE9                     l2266:
  4839  0BE9  17A5               	bsf	___xxtofl@arg+3,7
  4840  0BEA                     l2268:
  4841  0BEA  0825               	movf	___xxtofl@arg+3,w
  4842  0BEB  00F6               	movwf	?___xxtofl+3
  4843  0BEC  0824               	movf	___xxtofl@arg+2,w
  4844  0BED  00F5               	movwf	?___xxtofl+2
  4845  0BEE  0823               	movf	___xxtofl@arg+1,w
  4846  0BEF  00F4               	movwf	?___xxtofl+1
  4847  0BF0  0822               	movf	___xxtofl@arg,w
  4848  0BF1  00F3               	movwf	?___xxtofl
  4849  0BF2                     l678:
  4850  0BF2  0008               	return
  4851  0BF3                     __end_of___xxtofl:
  4852                           
  4853                           	psect	text16
  4854  0024                     __ptext16:	
  4855 ;; *************** function ___flmul *****************
  4856 ;; Defined at:
  4857 ;;		line 8 in file "D:\Program Files\Microchip\xc8\v2.31\pic\sources\c90\common\sprcmul.c"
  4858 ;; Parameters:    Size  Location     Type
  4859 ;;  b               4    6[BANK0 ] unsigned char 
  4860 ;;  a               4   10[BANK0 ] unsigned char 
  4861 ;; Auto vars:     Size  Location     Type
  4862 ;;  prod            4   26[BANK0 ] struct .
  4863 ;;  grs             4   20[BANK0 ] unsigned long 
  4864 ;;  temp            2   30[BANK0 ] struct .
  4865 ;;  bexp            1   25[BANK0 ] unsigned char 
  4866 ;;  aexp            1   24[BANK0 ] unsigned char 
  4867 ;;  sign            1   19[BANK0 ] unsigned char 
  4868 ;; Return value:  Size  Location     Type
  4869 ;;                  4    6[BANK0 ] unsigned char 
  4870 ;; Registers used:
  4871 ;;		wreg, status,2, status,0, btemp+1, pclath, cstack
  4872 ;; Tracked objects:
  4873 ;;		On entry : 0/0
  4874 ;;		On exit  : 0/0
  4875 ;;		Unchanged: 0/0
  4876 ;; Data sizes:     COMMON   BANK0   BANK1   BANK3   BANK2
  4877 ;;      Params:         0       8       0       0       0
  4878 ;;      Locals:         0      13       0       0       0
  4879 ;;      Temps:          0       5       0       0       0
  4880 ;;      Totals:         0      26       0       0       0
  4881 ;;Total ram usage:       26 bytes
  4882 ;; Hardware stack levels used:    1
  4883 ;; Hardware stack levels required when called:    2
  4884 ;; This function calls:
  4885 ;;		__Umul8_16
  4886 ;; This function is called by:
  4887 ;;		_I2C_WWW
  4888 ;;		_ftoa
  4889 ;; This function uses a non-reentrant model
  4890 ;;
  4891                           
  4892                           
  4893                           ;psect for function ___flmul
  4894  0024                     ___flmul:
  4895  0024                     l2088:	
  4896                           ;incstack = 0
  4897                           ; Regs used in ___flmul: [wreg+status,2+status,0+btemp+1+pclath+cstack]
  4898                           
  4899  0024  1283               	bcf	3,5	;RP0=0, select bank0
  4900  0025  1303               	bcf	3,6	;RP1=0, select bank0
  4901  0026  0829               	movf	___flmul@b+3,w
  4902  0027  3980               	andlw	128
  4903  0028  00AE               	movwf	??___flmul
  4904  0029  082E               	movf	??___flmul,w
  4905  002A  00B3               	movwf	___flmul@sign
  4906  002B                     l2090:
  4907  002B  0829               	movf	___flmul@b+3,w
  4908  002C  00AE               	movwf	??___flmul
  4909  002D  072E               	addwf	??___flmul,w
  4910  002E  00AF               	movwf	??___flmul+1
  4911  002F  082F               	movf	??___flmul+1,w
  4912  0030  00B9               	movwf	___flmul@bexp
  4913  0031                     l2092:
  4914  0031  1FA8               	btfss	___flmul@b+2,7
  4915  0032  2834               	goto	u2641
  4916  0033  2835               	goto	u2640
  4917  0034                     u2641:
  4918  0034  2836               	goto	l2096
  4919  0035                     u2640:
  4920  0035                     l2094:
  4921  0035  1439               	bsf	___flmul@bexp,0
  4922  0036                     l2096:
  4923  0036  0839               	movf	___flmul@bexp,w
  4924  0037  1903               	btfsc	3,2
  4925  0038  283A               	goto	u2651
  4926  0039  283B               	goto	u2650
  4927  003A                     u2651:
  4928  003A  284A               	goto	l2104
  4929  003B                     u2650:
  4930  003B                     l2098:
  4931  003B  0A39               	incf	___flmul@bexp,w
  4932  003C  1D03               	btfss	3,2
  4933  003D  283F               	goto	u2661
  4934  003E  2840               	goto	u2660
  4935  003F                     u2661:
  4936  003F  2848               	goto	l2102
  4937  0040                     u2660:
  4938  0040                     l2100:
  4939  0040  3000               	movlw	0
  4940  0041  00A9               	movwf	___flmul@b+3
  4941  0042  3000               	movlw	0
  4942  0043  00A8               	movwf	___flmul@b+2
  4943  0044  3000               	movlw	0
  4944  0045  00A7               	movwf	___flmul@b+1
  4945  0046  3000               	movlw	0
  4946  0047  00A6               	movwf	___flmul@b
  4947  0048                     l2102:
  4948  0048  17A8               	bsf	___flmul@b+2,7
  4949  0049  2852               	goto	l2106
  4950  004A                     l2104:
  4951  004A  3000               	movlw	0
  4952  004B  00A9               	movwf	___flmul@b+3
  4953  004C  3000               	movlw	0
  4954  004D  00A8               	movwf	___flmul@b+2
  4955  004E  3000               	movlw	0
  4956  004F  00A7               	movwf	___flmul@b+1
  4957  0050  3000               	movlw	0
  4958  0051  00A6               	movwf	___flmul@b
  4959  0052                     l2106:
  4960  0052  082D               	movf	___flmul@a+3,w
  4961  0053  3980               	andlw	128
  4962  0054  00AE               	movwf	??___flmul
  4963  0055  082E               	movf	??___flmul,w
  4964  0056  06B3               	xorwf	___flmul@sign,f
  4965  0057                     l2108:
  4966  0057  082D               	movf	___flmul@a+3,w
  4967  0058  00AE               	movwf	??___flmul
  4968  0059  072E               	addwf	??___flmul,w
  4969  005A  00AF               	movwf	??___flmul+1
  4970  005B  082F               	movf	??___flmul+1,w
  4971  005C  00B8               	movwf	___flmul@aexp
  4972  005D                     l2110:
  4973  005D  1FAC               	btfss	___flmul@a+2,7
  4974  005E  2860               	goto	u2671
  4975  005F  2861               	goto	u2670
  4976  0060                     u2671:
  4977  0060  2862               	goto	l2114
  4978  0061                     u2670:
  4979  0061                     l2112:
  4980  0061  1438               	bsf	___flmul@aexp,0
  4981  0062                     l2114:
  4982  0062  0838               	movf	___flmul@aexp,w
  4983  0063  1903               	btfsc	3,2
  4984  0064  2866               	goto	u2681
  4985  0065  2867               	goto	u2680
  4986  0066                     u2681:
  4987  0066  2876               	goto	l2122
  4988  0067                     u2680:
  4989  0067                     l2116:
  4990  0067  0A38               	incf	___flmul@aexp,w
  4991  0068  1D03               	btfss	3,2
  4992  0069  286B               	goto	u2691
  4993  006A  286C               	goto	u2690
  4994  006B                     u2691:
  4995  006B  2874               	goto	l2120
  4996  006C                     u2690:
  4997  006C                     l2118:
  4998  006C  3000               	movlw	0
  4999  006D  00AD               	movwf	___flmul@a+3
  5000  006E  3000               	movlw	0
  5001  006F  00AC               	movwf	___flmul@a+2
  5002  0070  3000               	movlw	0
  5003  0071  00AB               	movwf	___flmul@a+1
  5004  0072  3000               	movlw	0
  5005  0073  00AA               	movwf	___flmul@a
  5006  0074                     l2120:
  5007  0074  17AC               	bsf	___flmul@a+2,7
  5008  0075  287E               	goto	l2124
  5009  0076                     l2122:
  5010  0076  3000               	movlw	0
  5011  0077  00AD               	movwf	___flmul@a+3
  5012  0078  3000               	movlw	0
  5013  0079  00AC               	movwf	___flmul@a+2
  5014  007A  3000               	movlw	0
  5015  007B  00AB               	movwf	___flmul@a+1
  5016  007C  3000               	movlw	0
  5017  007D  00AA               	movwf	___flmul@a
  5018  007E                     l2124:
  5019  007E  0838               	movf	___flmul@aexp,w
  5020  007F  1903               	btfsc	3,2
  5021  0080  2882               	goto	u2701
  5022  0081  2883               	goto	u2700
  5023  0082                     u2701:
  5024  0082  2888               	goto	l2128
  5025  0083                     u2700:
  5026  0083                     l2126:
  5027  0083  0839               	movf	___flmul@bexp,w
  5028  0084  1D03               	btfss	3,2
  5029  0085  2887               	goto	u2711
  5030  0086  2888               	goto	u2710
  5031  0087                     u2711:
  5032  0087  2891               	goto	l2132
  5033  0088                     u2710:
  5034  0088                     l2128:
  5035  0088  3000               	movlw	0
  5036  0089  00A9               	movwf	?___flmul+3
  5037  008A  3000               	movlw	0
  5038  008B  00A8               	movwf	?___flmul+2
  5039  008C  3000               	movlw	0
  5040  008D  00A7               	movwf	?___flmul+1
  5041  008E  3000               	movlw	0
  5042  008F  00A6               	movwf	?___flmul
  5043  0090  2B84               	goto	l632
  5044  0091                     l2132:
  5045  0091  0826               	movf	___flmul@b,w
  5046  0092  00AE               	movwf	??___flmul
  5047  0093  082E               	movf	??___flmul,w
  5048  0094  00F3               	movwf	__Umul8_16@multiplicand
  5049  0095  082C               	movf	___flmul@a+2,w
  5050  0096  120A  158A  20D7  120A  118A  	fcall	__Umul8_16
  5051  009B  0874               	movf	?__Umul8_16+1,w
  5052  009C  1283               	bcf	3,5	;RP0=0, select bank0
  5053  009D  1303               	bcf	3,6	;RP1=0, select bank0
  5054  009E  00BF               	movwf	___flmul@temp+1
  5055  009F  0873               	movf	?__Umul8_16,w
  5056  00A0  00BE               	movwf	___flmul@temp
  5057  00A1                     l2134:
  5058  00A1  083E               	movf	___flmul@temp,w
  5059  00A2  00AE               	movwf	??___flmul
  5060  00A3  01AF               	clrf	??___flmul+1
  5061  00A4  01B0               	clrf	??___flmul+2
  5062  00A5  01B1               	clrf	??___flmul+3
  5063  00A6  0831               	movf	??___flmul+3,w
  5064  00A7  00B7               	movwf	___flmul@grs+3
  5065  00A8  0830               	movf	??___flmul+2,w
  5066  00A9  00B6               	movwf	___flmul@grs+2
  5067  00AA  082F               	movf	??___flmul+1,w
  5068  00AB  00B5               	movwf	___flmul@grs+1
  5069  00AC  082E               	movf	??___flmul,w
  5070  00AD  00B4               	movwf	___flmul@grs
  5071  00AE                     l2136:
  5072  00AE  083F               	movf	___flmul@temp+1,w
  5073  00AF  00AE               	movwf	??___flmul
  5074  00B0  01AF               	clrf	??___flmul+1
  5075  00B1  01B0               	clrf	??___flmul+2
  5076  00B2  01B1               	clrf	??___flmul+3
  5077  00B3  0831               	movf	??___flmul+3,w
  5078  00B4  00BD               	movwf	___flmul@prod+3
  5079  00B5  0830               	movf	??___flmul+2,w
  5080  00B6  00BC               	movwf	___flmul@prod+2
  5081  00B7  082F               	movf	??___flmul+1,w
  5082  00B8  00BB               	movwf	___flmul@prod+1
  5083  00B9  082E               	movf	??___flmul,w
  5084  00BA  00BA               	movwf	___flmul@prod
  5085  00BB  0827               	movf	___flmul@b+1,w
  5086  00BC  00AE               	movwf	??___flmul
  5087  00BD  082E               	movf	??___flmul,w
  5088  00BE  00F3               	movwf	__Umul8_16@multiplicand
  5089  00BF  082B               	movf	___flmul@a+1,w
  5090  00C0  120A  158A  20D7  120A  118A  	fcall	__Umul8_16
  5091  00C5  0874               	movf	?__Umul8_16+1,w
  5092  00C6  1283               	bcf	3,5	;RP0=0, select bank0
  5093  00C7  1303               	bcf	3,6	;RP1=0, select bank0
  5094  00C8  00BF               	movwf	___flmul@temp+1
  5095  00C9  0873               	movf	?__Umul8_16,w
  5096  00CA  00BE               	movwf	___flmul@temp
  5097  00CB                     l2138:
  5098  00CB  083E               	movf	___flmul@temp,w
  5099  00CC  00AE               	movwf	??___flmul
  5100  00CD  01AF               	clrf	??___flmul+1
  5101  00CE  01B0               	clrf	??___flmul+2
  5102  00CF  01B1               	clrf	??___flmul+3
  5103  00D0  082E               	movf	??___flmul,w
  5104  00D1  07B4               	addwf	___flmul@grs,f
  5105  00D2  082F               	movf	??___flmul+1,w
  5106  00D3  1103               	clrz
  5107  00D4  1803               	skipnc
  5108  00D5  3E01               	addlw	1
  5109  00D6  1903               	skipnz
  5110  00D7  28D9               	goto	u2721
  5111  00D8  07B5               	addwf	___flmul@grs+1,f
  5112  00D9                     u2721:
  5113  00D9  0830               	movf	??___flmul+2,w
  5114  00DA  1103               	clrz
  5115  00DB  1803               	skipnc
  5116  00DC  3E01               	addlw	1
  5117  00DD  1903               	skipnz
  5118  00DE  28E0               	goto	u2722
  5119  00DF  07B6               	addwf	___flmul@grs+2,f
  5120  00E0                     u2722:
  5121  00E0  0831               	movf	??___flmul+3,w
  5122  00E1  1103               	clrz
  5123  00E2  1803               	skipnc
  5124  00E3  3E01               	addlw	1
  5125  00E4  1903               	skipnz
  5126  00E5  28E7               	goto	u2723
  5127  00E6  07B7               	addwf	___flmul@grs+3,f
  5128  00E7                     u2723:
  5129  00E7                     l2140:
  5130  00E7  083F               	movf	___flmul@temp+1,w
  5131  00E8  00AE               	movwf	??___flmul
  5132  00E9  01AF               	clrf	??___flmul+1
  5133  00EA  01B0               	clrf	??___flmul+2
  5134  00EB  01B1               	clrf	??___flmul+3
  5135  00EC  082E               	movf	??___flmul,w
  5136  00ED  07BA               	addwf	___flmul@prod,f
  5137  00EE  082F               	movf	??___flmul+1,w
  5138  00EF  1103               	clrz
  5139  00F0  1803               	skipnc
  5140  00F1  3E01               	addlw	1
  5141  00F2  1903               	skipnz
  5142  00F3  28F5               	goto	u2731
  5143  00F4  07BB               	addwf	___flmul@prod+1,f
  5144  00F5                     u2731:
  5145  00F5  0830               	movf	??___flmul+2,w
  5146  00F6  1103               	clrz
  5147  00F7  1803               	skipnc
  5148  00F8  3E01               	addlw	1
  5149  00F9  1903               	skipnz
  5150  00FA  28FC               	goto	u2732
  5151  00FB  07BC               	addwf	___flmul@prod+2,f
  5152  00FC                     u2732:
  5153  00FC  0831               	movf	??___flmul+3,w
  5154  00FD  1103               	clrz
  5155  00FE  1803               	skipnc
  5156  00FF  3E01               	addlw	1
  5157  0100  1903               	skipnz
  5158  0101  2903               	goto	u2733
  5159  0102  07BD               	addwf	___flmul@prod+3,f
  5160  0103                     u2733:
  5161  0103  0828               	movf	___flmul@b+2,w
  5162  0104  00AE               	movwf	??___flmul
  5163  0105  082E               	movf	??___flmul,w
  5164  0106  00F3               	movwf	__Umul8_16@multiplicand
  5165  0107  082A               	movf	___flmul@a,w
  5166  0108  120A  158A  20D7  120A  118A  	fcall	__Umul8_16
  5167  010D  0874               	movf	?__Umul8_16+1,w
  5168  010E  1283               	bcf	3,5	;RP0=0, select bank0
  5169  010F  1303               	bcf	3,6	;RP1=0, select bank0
  5170  0110  00BF               	movwf	___flmul@temp+1
  5171  0111  0873               	movf	?__Umul8_16,w
  5172  0112  00BE               	movwf	___flmul@temp
  5173  0113                     l2142:
  5174  0113  083E               	movf	___flmul@temp,w
  5175  0114  00AE               	movwf	??___flmul
  5176  0115  01AF               	clrf	??___flmul+1
  5177  0116  01B0               	clrf	??___flmul+2
  5178  0117  01B1               	clrf	??___flmul+3
  5179  0118  082E               	movf	??___flmul,w
  5180  0119  07B4               	addwf	___flmul@grs,f
  5181  011A  082F               	movf	??___flmul+1,w
  5182  011B  1103               	clrz
  5183  011C  1803               	skipnc
  5184  011D  3E01               	addlw	1
  5185  011E  1903               	skipnz
  5186  011F  2921               	goto	u2741
  5187  0120  07B5               	addwf	___flmul@grs+1,f
  5188  0121                     u2741:
  5189  0121  0830               	movf	??___flmul+2,w
  5190  0122  1103               	clrz
  5191  0123  1803               	skipnc
  5192  0124  3E01               	addlw	1
  5193  0125  1903               	skipnz
  5194  0126  2928               	goto	u2742
  5195  0127  07B6               	addwf	___flmul@grs+2,f
  5196  0128                     u2742:
  5197  0128  0831               	movf	??___flmul+3,w
  5198  0129  1103               	clrz
  5199  012A  1803               	skipnc
  5200  012B  3E01               	addlw	1
  5201  012C  1903               	skipnz
  5202  012D  292F               	goto	u2743
  5203  012E  07B7               	addwf	___flmul@grs+3,f
  5204  012F                     u2743:
  5205  012F                     l2144:
  5206  012F  083F               	movf	___flmul@temp+1,w
  5207  0130  00AE               	movwf	??___flmul
  5208  0131  01AF               	clrf	??___flmul+1
  5209  0132  01B0               	clrf	??___flmul+2
  5210  0133  01B1               	clrf	??___flmul+3
  5211  0134  082E               	movf	??___flmul,w
  5212  0135  07BA               	addwf	___flmul@prod,f
  5213  0136  082F               	movf	??___flmul+1,w
  5214  0137  1103               	clrz
  5215  0138  1803               	skipnc
  5216  0139  3E01               	addlw	1
  5217  013A  1903               	skipnz
  5218  013B  293D               	goto	u2751
  5219  013C  07BB               	addwf	___flmul@prod+1,f
  5220  013D                     u2751:
  5221  013D  0830               	movf	??___flmul+2,w
  5222  013E  1103               	clrz
  5223  013F  1803               	skipnc
  5224  0140  3E01               	addlw	1
  5225  0141  1903               	skipnz
  5226  0142  2944               	goto	u2752
  5227  0143  07BC               	addwf	___flmul@prod+2,f
  5228  0144                     u2752:
  5229  0144  0831               	movf	??___flmul+3,w
  5230  0145  1103               	clrz
  5231  0146  1803               	skipnc
  5232  0147  3E01               	addlw	1
  5233  0148  1903               	skipnz
  5234  0149  294B               	goto	u2753
  5235  014A  07BD               	addwf	___flmul@prod+3,f
  5236  014B                     u2753:
  5237  014B                     l2146:
  5238  014B  3008               	movlw	8
  5239  014C  00AE               	movwf	??___flmul
  5240  014D                     u2765:
  5241  014D  1003               	clrc
  5242  014E  0DB4               	rlf	___flmul@grs,f
  5243  014F  0DB5               	rlf	___flmul@grs+1,f
  5244  0150  0DB6               	rlf	___flmul@grs+2,f
  5245  0151  0DB7               	rlf	___flmul@grs+3,f
  5246  0152  0BAE               	decfsz	??___flmul,f
  5247  0153  294D               	goto	u2765
  5248  0154                     l2148:
  5249  0154  0827               	movf	___flmul@b+1,w
  5250  0155  00AE               	movwf	??___flmul
  5251  0156  082E               	movf	??___flmul,w
  5252  0157  00F3               	movwf	__Umul8_16@multiplicand
  5253  0158  082A               	movf	___flmul@a,w
  5254  0159  120A  158A  20D7  120A  118A  	fcall	__Umul8_16
  5255  015E  0874               	movf	?__Umul8_16+1,w
  5256  015F  1283               	bcf	3,5	;RP0=0, select bank0
  5257  0160  1303               	bcf	3,6	;RP1=0, select bank0
  5258  0161  00BF               	movwf	___flmul@temp+1
  5259  0162  0873               	movf	?__Umul8_16,w
  5260  0163  00BE               	movwf	___flmul@temp
  5261  0164                     l2150:
  5262  0164  083E               	movf	___flmul@temp,w
  5263  0165  00AE               	movwf	??___flmul
  5264  0166  083F               	movf	___flmul@temp+1,w
  5265  0167  00AF               	movwf	??___flmul+1
  5266  0168  01B0               	clrf	??___flmul+2
  5267  0169  01B1               	clrf	??___flmul+3
  5268  016A  082E               	movf	??___flmul,w
  5269  016B  07B4               	addwf	___flmul@grs,f
  5270  016C  082F               	movf	??___flmul+1,w
  5271  016D  1103               	clrz
  5272  016E  1803               	skipnc
  5273  016F  3E01               	addlw	1
  5274  0170  1903               	skipnz
  5275  0171  2973               	goto	u2771
  5276  0172  07B5               	addwf	___flmul@grs+1,f
  5277  0173                     u2771:
  5278  0173  0830               	movf	??___flmul+2,w
  5279  0174  1103               	clrz
  5280  0175  1803               	skipnc
  5281  0176  3E01               	addlw	1
  5282  0177  1903               	skipnz
  5283  0178  297A               	goto	u2772
  5284  0179  07B6               	addwf	___flmul@grs+2,f
  5285  017A                     u2772:
  5286  017A  0831               	movf	??___flmul+3,w
  5287  017B  1103               	clrz
  5288  017C  1803               	skipnc
  5289  017D  3E01               	addlw	1
  5290  017E  1903               	skipnz
  5291  017F  2981               	goto	u2773
  5292  0180  07B7               	addwf	___flmul@grs+3,f
  5293  0181                     u2773:
  5294  0181                     l2152:
  5295  0181  0826               	movf	___flmul@b,w
  5296  0182  00AE               	movwf	??___flmul
  5297  0183  082E               	movf	??___flmul,w
  5298  0184  00F3               	movwf	__Umul8_16@multiplicand
  5299  0185  082B               	movf	___flmul@a+1,w
  5300  0186  120A  158A  20D7  120A  118A  	fcall	__Umul8_16
  5301  018B  0874               	movf	?__Umul8_16+1,w
  5302  018C  1283               	bcf	3,5	;RP0=0, select bank0
  5303  018D  1303               	bcf	3,6	;RP1=0, select bank0
  5304  018E  00BF               	movwf	___flmul@temp+1
  5305  018F  0873               	movf	?__Umul8_16,w
  5306  0190  00BE               	movwf	___flmul@temp
  5307  0191                     l2154:
  5308  0191  083E               	movf	___flmul@temp,w
  5309  0192  00AE               	movwf	??___flmul
  5310  0193  083F               	movf	___flmul@temp+1,w
  5311  0194  00AF               	movwf	??___flmul+1
  5312  0195  01B0               	clrf	??___flmul+2
  5313  0196  01B1               	clrf	??___flmul+3
  5314  0197  082E               	movf	??___flmul,w
  5315  0198  07B4               	addwf	___flmul@grs,f
  5316  0199  082F               	movf	??___flmul+1,w
  5317  019A  1103               	clrz
  5318  019B  1803               	skipnc
  5319  019C  3E01               	addlw	1
  5320  019D  1903               	skipnz
  5321  019E  29A0               	goto	u2781
  5322  019F  07B5               	addwf	___flmul@grs+1,f
  5323  01A0                     u2781:
  5324  01A0  0830               	movf	??___flmul+2,w
  5325  01A1  1103               	clrz
  5326  01A2  1803               	skipnc
  5327  01A3  3E01               	addlw	1
  5328  01A4  1903               	skipnz
  5329  01A5  29A7               	goto	u2782
  5330  01A6  07B6               	addwf	___flmul@grs+2,f
  5331  01A7                     u2782:
  5332  01A7  0831               	movf	??___flmul+3,w
  5333  01A8  1103               	clrz
  5334  01A9  1803               	skipnc
  5335  01AA  3E01               	addlw	1
  5336  01AB  1903               	skipnz
  5337  01AC  29AE               	goto	u2783
  5338  01AD  07B7               	addwf	___flmul@grs+3,f
  5339  01AE                     u2783:
  5340  01AE                     l2156:
  5341  01AE  3008               	movlw	8
  5342  01AF  00AE               	movwf	??___flmul
  5343  01B0                     u2795:
  5344  01B0  1003               	clrc
  5345  01B1  0DB4               	rlf	___flmul@grs,f
  5346  01B2  0DB5               	rlf	___flmul@grs+1,f
  5347  01B3  0DB6               	rlf	___flmul@grs+2,f
  5348  01B4  0DB7               	rlf	___flmul@grs+3,f
  5349  01B5  0BAE               	decfsz	??___flmul,f
  5350  01B6  29B0               	goto	u2795
  5351  01B7  0826               	movf	___flmul@b,w
  5352  01B8  00AE               	movwf	??___flmul
  5353  01B9  082E               	movf	??___flmul,w
  5354  01BA  00F3               	movwf	__Umul8_16@multiplicand
  5355  01BB  082A               	movf	___flmul@a,w
  5356  01BC  120A  158A  20D7  120A  118A  	fcall	__Umul8_16
  5357  01C1  0874               	movf	?__Umul8_16+1,w
  5358  01C2  1283               	bcf	3,5	;RP0=0, select bank0
  5359  01C3  1303               	bcf	3,6	;RP1=0, select bank0
  5360  01C4  00BF               	movwf	___flmul@temp+1
  5361  01C5  0873               	movf	?__Umul8_16,w
  5362  01C6  00BE               	movwf	___flmul@temp
  5363  01C7                     l2158:
  5364  01C7  083E               	movf	___flmul@temp,w
  5365  01C8  00AE               	movwf	??___flmul
  5366  01C9  083F               	movf	___flmul@temp+1,w
  5367  01CA  00AF               	movwf	??___flmul+1
  5368  01CB  01B0               	clrf	??___flmul+2
  5369  01CC  01B1               	clrf	??___flmul+3
  5370  01CD  082E               	movf	??___flmul,w
  5371  01CE  07B4               	addwf	___flmul@grs,f
  5372  01CF  082F               	movf	??___flmul+1,w
  5373  01D0  1103               	clrz
  5374  01D1  1803               	skipnc
  5375  01D2  3E01               	addlw	1
  5376  01D3  1903               	skipnz
  5377  01D4  29D6               	goto	u2801
  5378  01D5  07B5               	addwf	___flmul@grs+1,f
  5379  01D6                     u2801:
  5380  01D6  0830               	movf	??___flmul+2,w
  5381  01D7  1103               	clrz
  5382  01D8  1803               	skipnc
  5383  01D9  3E01               	addlw	1
  5384  01DA  1903               	skipnz
  5385  01DB  29DD               	goto	u2802
  5386  01DC  07B6               	addwf	___flmul@grs+2,f
  5387  01DD                     u2802:
  5388  01DD  0831               	movf	??___flmul+3,w
  5389  01DE  1103               	clrz
  5390  01DF  1803               	skipnc
  5391  01E0  3E01               	addlw	1
  5392  01E1  1903               	skipnz
  5393  01E2  29E4               	goto	u2803
  5394  01E3  07B7               	addwf	___flmul@grs+3,f
  5395  01E4                     u2803:
  5396  01E4                     l2160:
  5397  01E4  0827               	movf	___flmul@b+1,w
  5398  01E5  00AE               	movwf	??___flmul
  5399  01E6  082E               	movf	??___flmul,w
  5400  01E7  00F3               	movwf	__Umul8_16@multiplicand
  5401  01E8  082C               	movf	___flmul@a+2,w
  5402  01E9  120A  158A  20D7  120A  118A  	fcall	__Umul8_16
  5403  01EE  0874               	movf	?__Umul8_16+1,w
  5404  01EF  1283               	bcf	3,5	;RP0=0, select bank0
  5405  01F0  1303               	bcf	3,6	;RP1=0, select bank0
  5406  01F1  00BF               	movwf	___flmul@temp+1
  5407  01F2  0873               	movf	?__Umul8_16,w
  5408  01F3  00BE               	movwf	___flmul@temp
  5409  01F4  083E               	movf	___flmul@temp,w
  5410  01F5  00AE               	movwf	??___flmul
  5411  01F6  083F               	movf	___flmul@temp+1,w
  5412  01F7  00AF               	movwf	??___flmul+1
  5413  01F8  01B0               	clrf	??___flmul+2
  5414  01F9  01B1               	clrf	??___flmul+3
  5415  01FA  082E               	movf	??___flmul,w
  5416  01FB  07BA               	addwf	___flmul@prod,f
  5417  01FC  082F               	movf	??___flmul+1,w
  5418  01FD  1103               	clrz
  5419  01FE  1803               	skipnc
  5420  01FF  3E01               	addlw	1
  5421  0200  1903               	skipnz
  5422  0201  2A03               	goto	u2811
  5423  0202  07BB               	addwf	___flmul@prod+1,f
  5424  0203                     u2811:
  5425  0203  0830               	movf	??___flmul+2,w
  5426  0204  1103               	clrz
  5427  0205  1803               	skipnc
  5428  0206  3E01               	addlw	1
  5429  0207  1903               	skipnz
  5430  0208  2A0A               	goto	u2812
  5431  0209  07BC               	addwf	___flmul@prod+2,f
  5432  020A                     u2812:
  5433  020A  0831               	movf	??___flmul+3,w
  5434  020B  1103               	clrz
  5435  020C  1803               	skipnc
  5436  020D  3E01               	addlw	1
  5437  020E  1903               	skipnz
  5438  020F  2A11               	goto	u2813
  5439  0210  07BD               	addwf	___flmul@prod+3,f
  5440  0211                     u2813:
  5441  0211                     l2162:
  5442  0211  0828               	movf	___flmul@b+2,w
  5443  0212  00AE               	movwf	??___flmul
  5444  0213  082E               	movf	??___flmul,w
  5445  0214  00F3               	movwf	__Umul8_16@multiplicand
  5446  0215  082B               	movf	___flmul@a+1,w
  5447  0216  120A  158A  20D7  120A  118A  	fcall	__Umul8_16
  5448  021B  0874               	movf	?__Umul8_16+1,w
  5449  021C  1283               	bcf	3,5	;RP0=0, select bank0
  5450  021D  1303               	bcf	3,6	;RP1=0, select bank0
  5451  021E  00BF               	movwf	___flmul@temp+1
  5452  021F  0873               	movf	?__Umul8_16,w
  5453  0220  00BE               	movwf	___flmul@temp
  5454  0221                     l2164:
  5455  0221  083E               	movf	___flmul@temp,w
  5456  0222  00AE               	movwf	??___flmul
  5457  0223  083F               	movf	___flmul@temp+1,w
  5458  0224  00AF               	movwf	??___flmul+1
  5459  0225  01B0               	clrf	??___flmul+2
  5460  0226  01B1               	clrf	??___flmul+3
  5461  0227  082E               	movf	??___flmul,w
  5462  0228  07BA               	addwf	___flmul@prod,f
  5463  0229  082F               	movf	??___flmul+1,w
  5464  022A  1103               	clrz
  5465  022B  1803               	skipnc
  5466  022C  3E01               	addlw	1
  5467  022D  1903               	skipnz
  5468  022E  2A30               	goto	u2821
  5469  022F  07BB               	addwf	___flmul@prod+1,f
  5470  0230                     u2821:
  5471  0230  0830               	movf	??___flmul+2,w
  5472  0231  1103               	clrz
  5473  0232  1803               	skipnc
  5474  0233  3E01               	addlw	1
  5475  0234  1903               	skipnz
  5476  0235  2A37               	goto	u2822
  5477  0236  07BC               	addwf	___flmul@prod+2,f
  5478  0237                     u2822:
  5479  0237  0831               	movf	??___flmul+3,w
  5480  0238  1103               	clrz
  5481  0239  1803               	skipnc
  5482  023A  3E01               	addlw	1
  5483  023B  1903               	skipnz
  5484  023C  2A3E               	goto	u2823
  5485  023D  07BD               	addwf	___flmul@prod+3,f
  5486  023E                     u2823:
  5487  023E  0828               	movf	___flmul@b+2,w
  5488  023F  00AE               	movwf	??___flmul
  5489  0240  082E               	movf	??___flmul,w
  5490  0241  00F3               	movwf	__Umul8_16@multiplicand
  5491  0242  082C               	movf	___flmul@a+2,w
  5492  0243  120A  158A  20D7  120A  118A  	fcall	__Umul8_16
  5493  0248  0874               	movf	?__Umul8_16+1,w
  5494  0249  1283               	bcf	3,5	;RP0=0, select bank0
  5495  024A  1303               	bcf	3,6	;RP1=0, select bank0
  5496  024B  00BF               	movwf	___flmul@temp+1
  5497  024C  0873               	movf	?__Umul8_16,w
  5498  024D  00BE               	movwf	___flmul@temp
  5499  024E                     l2166:
  5500  024E  083E               	movf	___flmul@temp,w
  5501  024F  00AE               	movwf	??___flmul
  5502  0250  083F               	movf	___flmul@temp+1,w
  5503  0251  00AF               	movwf	??___flmul+1
  5504  0252  01B0               	clrf	??___flmul+2
  5505  0253  01B1               	clrf	??___flmul+3
  5506  0254  3008               	movlw	8
  5507  0255                     u2835:
  5508  0255  1003               	clrc
  5509  0256  0DAE               	rlf	??___flmul,f
  5510  0257  0DAF               	rlf	??___flmul+1,f
  5511  0258  0DB0               	rlf	??___flmul+2,f
  5512  0259  0DB1               	rlf	??___flmul+3,f
  5513  025A                     u2830:
  5514  025A  3EFF               	addlw	-1
  5515  025B  1D03               	skipz
  5516  025C  2A55               	goto	u2835
  5517  025D  082E               	movf	??___flmul,w
  5518  025E  07BA               	addwf	___flmul@prod,f
  5519  025F  082F               	movf	??___flmul+1,w
  5520  0260  1103               	clrz
  5521  0261  1803               	skipnc
  5522  0262  3E01               	addlw	1
  5523  0263  1903               	skipnz
  5524  0264  2A66               	goto	u2841
  5525  0265  07BB               	addwf	___flmul@prod+1,f
  5526  0266                     u2841:
  5527  0266  0830               	movf	??___flmul+2,w
  5528  0267  1103               	clrz
  5529  0268  1803               	skipnc
  5530  0269  3E01               	addlw	1
  5531  026A  1903               	skipnz
  5532  026B  2A6D               	goto	u2842
  5533  026C  07BC               	addwf	___flmul@prod+2,f
  5534  026D                     u2842:
  5535  026D  0831               	movf	??___flmul+3,w
  5536  026E  1103               	clrz
  5537  026F  1803               	skipnc
  5538  0270  3E01               	addlw	1
  5539  0271  1903               	skipnz
  5540  0272  2A74               	goto	u2843
  5541  0273  07BD               	addwf	___flmul@prod+3,f
  5542  0274                     u2843:
  5543  0274                     l2168:
  5544  0274  0834               	movf	___flmul@grs,w
  5545  0275  00AE               	movwf	??___flmul
  5546  0276  0835               	movf	___flmul@grs+1,w
  5547  0277  00AF               	movwf	??___flmul+1
  5548  0278  0836               	movf	___flmul@grs+2,w
  5549  0279  00B0               	movwf	??___flmul+2
  5550  027A  0837               	movf	___flmul@grs+3,w
  5551  027B  00B1               	movwf	??___flmul+3
  5552  027C  3018               	movlw	24
  5553  027D                     u2855:
  5554  027D  1003               	clrc
  5555  027E  0CB1               	rrf	??___flmul+3,f
  5556  027F  0CB0               	rrf	??___flmul+2,f
  5557  0280  0CAF               	rrf	??___flmul+1,f
  5558  0281  0CAE               	rrf	??___flmul,f
  5559  0282                     u2850:
  5560  0282  3EFF               	addlw	-1
  5561  0283  1D03               	skipz
  5562  0284  2A7D               	goto	u2855
  5563  0285  082E               	movf	??___flmul,w
  5564  0286  07BA               	addwf	___flmul@prod,f
  5565  0287  082F               	movf	??___flmul+1,w
  5566  0288  1103               	clrz
  5567  0289  1803               	skipnc
  5568  028A  3E01               	addlw	1
  5569  028B  1903               	skipnz
  5570  028C  2A8E               	goto	u2861
  5571  028D  07BB               	addwf	___flmul@prod+1,f
  5572  028E                     u2861:
  5573  028E  0830               	movf	??___flmul+2,w
  5574  028F  1103               	clrz
  5575  0290  1803               	skipnc
  5576  0291  3E01               	addlw	1
  5577  0292  1903               	skipnz
  5578  0293  2A95               	goto	u2862
  5579  0294  07BC               	addwf	___flmul@prod+2,f
  5580  0295                     u2862:
  5581  0295  0831               	movf	??___flmul+3,w
  5582  0296  1103               	clrz
  5583  0297  1803               	skipnc
  5584  0298  3E01               	addlw	1
  5585  0299  1903               	skipnz
  5586  029A  2A9C               	goto	u2863
  5587  029B  07BD               	addwf	___flmul@prod+3,f
  5588  029C                     u2863:
  5589  029C                     l2170:
  5590  029C  3008               	movlw	8
  5591  029D  00AE               	movwf	??___flmul
  5592  029E                     u2875:
  5593  029E  1003               	clrc
  5594  029F  0DB4               	rlf	___flmul@grs,f
  5595  02A0  0DB5               	rlf	___flmul@grs+1,f
  5596  02A1  0DB6               	rlf	___flmul@grs+2,f
  5597  02A2  0DB7               	rlf	___flmul@grs+3,f
  5598  02A3  0BAE               	decfsz	??___flmul,f
  5599  02A4  2A9E               	goto	u2875
  5600  02A5                     l2172:
  5601  02A5  0839               	movf	___flmul@bexp,w
  5602  02A6  0738               	addwf	___flmul@aexp,w
  5603  02A7  00AE               	movwf	??___flmul
  5604  02A8  01AF               	clrf	??___flmul+1
  5605  02A9  0DAF               	rlf	??___flmul+1,f
  5606  02AA  082E               	movf	??___flmul,w
  5607  02AB  3E82               	addlw	130
  5608  02AC  00BE               	movwf	___flmul@temp
  5609  02AD  082F               	movf	??___flmul+1,w
  5610  02AE  1803               	skipnc
  5611  02AF  3E01               	addlw	1
  5612  02B0  3EFF               	addlw	255
  5613  02B1  00BF               	movwf	___flmul@temp+1
  5614  02B2  2AD0               	goto	l2184
  5615  02B3                     l2174:
  5616  02B3  3001               	movlw	1
  5617  02B4  00AE               	movwf	??___flmul
  5618  02B5                     u2885:
  5619  02B5  1003               	clrc
  5620  02B6  0DBA               	rlf	___flmul@prod,f
  5621  02B7  0DBB               	rlf	___flmul@prod+1,f
  5622  02B8  0DBC               	rlf	___flmul@prod+2,f
  5623  02B9  0DBD               	rlf	___flmul@prod+3,f
  5624  02BA  0BAE               	decfsz	??___flmul,f
  5625  02BB  2AB5               	goto	u2885
  5626  02BC                     l2176:
  5627  02BC  1FB7               	btfss	___flmul@grs+3,7
  5628  02BD  2ABF               	goto	u2891
  5629  02BE  2AC0               	goto	u2890
  5630  02BF                     u2891:
  5631  02BF  2AC1               	goto	l2180
  5632  02C0                     u2890:
  5633  02C0                     l2178:
  5634  02C0  143A               	bsf	___flmul@prod,0
  5635  02C1                     l2180:
  5636  02C1  3001               	movlw	1
  5637  02C2  00AE               	movwf	??___flmul
  5638  02C3                     u2905:
  5639  02C3  1003               	clrc
  5640  02C4  0DB4               	rlf	___flmul@grs,f
  5641  02C5  0DB5               	rlf	___flmul@grs+1,f
  5642  02C6  0DB6               	rlf	___flmul@grs+2,f
  5643  02C7  0DB7               	rlf	___flmul@grs+3,f
  5644  02C8  0BAE               	decfsz	??___flmul,f
  5645  02C9  2AC3               	goto	u2905
  5646  02CA                     l2182:
  5647  02CA  30FF               	movlw	255
  5648  02CB  07BE               	addwf	___flmul@temp,f
  5649  02CC  1803               	skipnc
  5650  02CD  0ABF               	incf	___flmul@temp+1,f
  5651  02CE  30FF               	movlw	255
  5652  02CF  07BF               	addwf	___flmul@temp+1,f
  5653  02D0                     l2184:
  5654  02D0  1FBC               	btfss	___flmul@prod+2,7
  5655  02D1  2AD3               	goto	u2911
  5656  02D2  2AD4               	goto	u2910
  5657  02D3                     u2911:
  5658  02D3  2AB3               	goto	l2174
  5659  02D4                     u2910:
  5660  02D4                     l2186:
  5661  02D4  01B8               	clrf	___flmul@aexp
  5662  02D5                     l2188:
  5663  02D5  1FB7               	btfss	___flmul@grs+3,7
  5664  02D6  2AD8               	goto	u2921
  5665  02D7  2AD9               	goto	u2920
  5666  02D8                     u2921:
  5667  02D8  2AF5               	goto	l2196
  5668  02D9                     u2920:
  5669  02D9                     l2190:
  5670  02D9  30FF               	movlw	255
  5671  02DA  0534               	andwf	___flmul@grs,w
  5672  02DB  00AE               	movwf	??___flmul
  5673  02DC  30FF               	movlw	255
  5674  02DD  0535               	andwf	___flmul@grs+1,w
  5675  02DE  00AF               	movwf	??___flmul+1
  5676  02DF  30FF               	movlw	255
  5677  02E0  0536               	andwf	___flmul@grs+2,w
  5678  02E1  00B0               	movwf	??___flmul+2
  5679  02E2  307F               	movlw	127
  5680  02E3  0537               	andwf	___flmul@grs+3,w
  5681  02E4  00B1               	movwf	??___flmul+3
  5682  02E5  0831               	movf	??___flmul+3,w
  5683  02E6  0430               	iorwf	??___flmul+2,w
  5684  02E7  042F               	iorwf	??___flmul+1,w
  5685  02E8  042E               	iorwf	??___flmul,w
  5686  02E9  1903               	skipnz
  5687  02EA  2AEC               	goto	u2931
  5688  02EB  2AED               	goto	u2930
  5689  02EC                     u2931:
  5690  02EC  2AF0               	goto	l638
  5691  02ED                     u2930:
  5692  02ED                     l2192:
  5693  02ED  01B8               	clrf	___flmul@aexp
  5694  02EE  0AB8               	incf	___flmul@aexp,f
  5695  02EF  2AF5               	goto	l2196
  5696  02F0                     l638:
  5697  02F0  1C3A               	btfss	___flmul@prod,0
  5698  02F1  2AF3               	goto	u2941
  5699  02F2  2AF4               	goto	u2940
  5700  02F3                     u2941:
  5701  02F3  2AF5               	goto	l2196
  5702  02F4                     u2940:
  5703  02F4  2AED               	goto	l2192
  5704  02F5                     l2196:
  5705  02F5  0838               	movf	___flmul@aexp,w
  5706  02F6  1903               	btfsc	3,2
  5707  02F7  2AF9               	goto	u2951
  5708  02F8  2AFA               	goto	u2950
  5709  02F9                     u2951:
  5710  02F9  2B2B               	goto	l2206
  5711  02FA                     u2950:
  5712  02FA                     l2198:
  5713  02FA  3001               	movlw	1
  5714  02FB  07BA               	addwf	___flmul@prod,f
  5715  02FC  3000               	movlw	0
  5716  02FD  1803               	skipnc
  5717  02FE  3001               	movlw	1
  5718  02FF  07BB               	addwf	___flmul@prod+1,f
  5719  0300  3000               	movlw	0
  5720  0301  1803               	skipnc
  5721  0302  3001               	movlw	1
  5722  0303  07BC               	addwf	___flmul@prod+2,f
  5723  0304  3000               	movlw	0
  5724  0305  1803               	skipnc
  5725  0306  3001               	movlw	1
  5726  0307  07BD               	addwf	___flmul@prod+3,f
  5727  0308                     l2200:
  5728  0308  1C3D               	btfss	___flmul@prod+3,0
  5729  0309  2B0B               	goto	u2961
  5730  030A  2B0C               	goto	u2960
  5731  030B                     u2961:
  5732  030B  2B2B               	goto	l2206
  5733  030C                     u2960:
  5734  030C                     l2202:
  5735  030C  083A               	movf	___flmul@prod,w
  5736  030D  00AE               	movwf	??___flmul
  5737  030E  083B               	movf	___flmul@prod+1,w
  5738  030F  00AF               	movwf	??___flmul+1
  5739  0310  083C               	movf	___flmul@prod+2,w
  5740  0311  00B0               	movwf	??___flmul+2
  5741  0312  083D               	movf	___flmul@prod+3,w
  5742  0313  00B1               	movwf	??___flmul+3
  5743  0314  3001               	movlw	1
  5744  0315  00B2               	movwf	??___flmul+4
  5745  0316                     u2975:
  5746  0316  0D31               	rlf	??___flmul+3,w
  5747  0317  0CB1               	rrf	??___flmul+3,f
  5748  0318  0CB0               	rrf	??___flmul+2,f
  5749  0319  0CAF               	rrf	??___flmul+1,f
  5750  031A  0CAE               	rrf	??___flmul,f
  5751  031B                     u2970:
  5752  031B  0BB2               	decfsz	??___flmul+4,f
  5753  031C  2B16               	goto	u2975
  5754  031D  0831               	movf	??___flmul+3,w
  5755  031E  00BD               	movwf	___flmul@prod+3
  5756  031F  0830               	movf	??___flmul+2,w
  5757  0320  00BC               	movwf	___flmul@prod+2
  5758  0321  082F               	movf	??___flmul+1,w
  5759  0322  00BB               	movwf	___flmul@prod+1
  5760  0323  082E               	movf	??___flmul,w
  5761  0324  00BA               	movwf	___flmul@prod
  5762  0325                     l2204:
  5763  0325  3001               	movlw	1
  5764  0326  07BE               	addwf	___flmul@temp,f
  5765  0327  1803               	skipnc
  5766  0328  0ABF               	incf	___flmul@temp+1,f
  5767  0329  3000               	movlw	0
  5768  032A  07BF               	addwf	___flmul@temp+1,f
  5769  032B                     l2206:
  5770  032B  083F               	movf	___flmul@temp+1,w
  5771  032C  3A80               	xorlw	128
  5772  032D  00FF               	movwf	btemp+1
  5773  032E  3080               	movlw	128
  5774  032F  027F               	subwf	btemp+1,w
  5775  0330  1D03               	skipz
  5776  0331  2B34               	goto	u2985
  5777  0332  30FF               	movlw	255
  5778  0333  023E               	subwf	___flmul@temp,w
  5779  0334                     u2985:
  5780  0334  1C03               	skipc
  5781  0335  2B37               	goto	u2981
  5782  0336  2B38               	goto	u2980
  5783  0337                     u2981:
  5784  0337  2B43               	goto	l2210
  5785  0338                     u2980:
  5786  0338                     l2208:
  5787  0338  307F               	movlw	127
  5788  0339  1283               	bcf	3,5	;RP0=0, select bank0
  5789  033A  1303               	bcf	3,6	;RP1=0, select bank0
  5790  033B  00BD               	movwf	___flmul@prod+3
  5791  033C  3080               	movlw	128
  5792  033D  00BC               	movwf	___flmul@prod+2
  5793  033E  3000               	movlw	0
  5794  033F  00BB               	movwf	___flmul@prod+1
  5795  0340  3000               	movlw	0
  5796  0341  00BA               	movwf	___flmul@prod
  5797  0342  2B78               	goto	l644
  5798  0343                     l2210:
  5799  0343  1283               	bcf	3,5	;RP0=0, select bank0
  5800  0344  1303               	bcf	3,6	;RP1=0, select bank0
  5801  0345  083F               	movf	___flmul@temp+1,w
  5802  0346  3A80               	xorlw	128
  5803  0347  00FF               	movwf	btemp+1
  5804  0348  3080               	movlw	128
  5805  0349  027F               	subwf	btemp+1,w
  5806  034A  1D03               	skipz
  5807  034B  2B4E               	goto	u2995
  5808  034C  3001               	movlw	1
  5809  034D  023E               	subwf	___flmul@temp,w
  5810  034E                     u2995:
  5811  034E  1803               	skipnc
  5812  034F  2B51               	goto	u2991
  5813  0350  2B52               	goto	u2990
  5814  0351                     u2991:
  5815  0351  2B5E               	goto	l2216
  5816  0352                     u2990:
  5817  0352                     l2212:
  5818  0352  3000               	movlw	0
  5819  0353  1283               	bcf	3,5	;RP0=0, select bank0
  5820  0354  1303               	bcf	3,6	;RP1=0, select bank0
  5821  0355  00BD               	movwf	___flmul@prod+3
  5822  0356  3000               	movlw	0
  5823  0357  00BC               	movwf	___flmul@prod+2
  5824  0358  3000               	movlw	0
  5825  0359  00BB               	movwf	___flmul@prod+1
  5826  035A  3000               	movlw	0
  5827  035B  00BA               	movwf	___flmul@prod
  5828  035C                     l2214:
  5829  035C  01B3               	clrf	___flmul@sign
  5830  035D  2B78               	goto	l644
  5831  035E                     l2216:
  5832  035E  1283               	bcf	3,5	;RP0=0, select bank0
  5833  035F  1303               	bcf	3,6	;RP1=0, select bank0
  5834  0360  083E               	movf	___flmul@temp,w
  5835  0361  00AE               	movwf	??___flmul
  5836  0362  082E               	movf	??___flmul,w
  5837  0363  00B9               	movwf	___flmul@bexp
  5838  0364  30FF               	movlw	255
  5839  0365  05BA               	andwf	___flmul@prod,f
  5840  0366  30FF               	movlw	255
  5841  0367  05BB               	andwf	___flmul@prod+1,f
  5842  0368  307F               	movlw	127
  5843  0369  05BC               	andwf	___flmul@prod+2,f
  5844  036A  3000               	movlw	0
  5845  036B  05BD               	andwf	___flmul@prod+3,f
  5846  036C                     l2218:
  5847  036C  1C39               	btfss	___flmul@bexp,0
  5848  036D  2B6F               	goto	u3001
  5849  036E  2B70               	goto	u3000
  5850  036F                     u3001:
  5851  036F  2B71               	goto	l2222
  5852  0370                     u3000:
  5853  0370                     l2220:
  5854  0370  17BC               	bsf	___flmul@prod+2,7
  5855  0371                     l2222:
  5856  0371  0839               	movf	___flmul@bexp,w
  5857  0372  00AE               	movwf	??___flmul
  5858  0373  1003               	clrc
  5859  0374  0C2E               	rrf	??___flmul,w
  5860  0375  00AF               	movwf	??___flmul+1
  5861  0376  082F               	movf	??___flmul+1,w
  5862  0377  00BD               	movwf	___flmul@prod+3
  5863  0378                     l644:
  5864  0378  0833               	movf	___flmul@sign,w
  5865  0379  00AE               	movwf	??___flmul
  5866  037A  082E               	movf	??___flmul,w
  5867  037B  04BD               	iorwf	___flmul@prod+3,f
  5868  037C                     l2224:
  5869  037C  083D               	movf	___flmul@prod+3,w
  5870  037D  00A9               	movwf	?___flmul+3
  5871  037E  083C               	movf	___flmul@prod+2,w
  5872  037F  00A8               	movwf	?___flmul+2
  5873  0380  083B               	movf	___flmul@prod+1,w
  5874  0381  00A7               	movwf	?___flmul+1
  5875  0382  083A               	movf	___flmul@prod,w
  5876  0383  00A6               	movwf	?___flmul
  5877  0384                     l632:
  5878  0384  0008               	return
  5879  0385                     __end_of___flmul:
  5880                           
  5881                           	psect	text17
  5882  08D7                     __ptext17:	
  5883 ;; *************** function __Umul8_16 *****************
  5884 ;; Defined at:
  5885 ;;		line 4 in file "D:\Program Files\Microchip\xc8\v2.31\pic\sources\c90\common\Umul8_16.c"
  5886 ;; Parameters:    Size  Location     Type
  5887 ;;  multiplier      1    wreg     unsigned char 
  5888 ;;  multiplicand    1    3[COMMON] unsigned char 
  5889 ;; Auto vars:     Size  Location     Type
  5890 ;;  multiplier      1    4[BANK0 ] unsigned char 
  5891 ;;  word_mpld       2    2[BANK0 ] unsigned int 
  5892 ;;  product         2    0[BANK0 ] unsigned int 
  5893 ;; Return value:  Size  Location     Type
  5894 ;;                  2    3[COMMON] unsigned int 
  5895 ;; Registers used:
  5896 ;;		wreg, status,2, status,0
  5897 ;; Tracked objects:
  5898 ;;		On entry : 0/0
  5899 ;;		On exit  : 0/0
  5900 ;;		Unchanged: 0/0
  5901 ;; Data sizes:     COMMON   BANK0   BANK1   BANK3   BANK2
  5902 ;;      Params:         2       0       0       0       0
  5903 ;;      Locals:         0       5       0       0       0
  5904 ;;      Temps:          2       0       0       0       0
  5905 ;;      Totals:         4       5       0       0       0
  5906 ;;Total ram usage:        9 bytes
  5907 ;; Hardware stack levels used:    1
  5908 ;; Hardware stack levels required when called:    1
  5909 ;; This function calls:
  5910 ;;		Nothing
  5911 ;; This function is called by:
  5912 ;;		___flmul
  5913 ;; This function uses a non-reentrant model
  5914 ;;
  5915                           
  5916                           
  5917                           ;psect for function __Umul8_16
  5918  08D7                     __Umul8_16:
  5919                           
  5920                           ;incstack = 0
  5921                           ; Regs used in __Umul8_16: [wreg+status,2+status,0]
  5922                           ;__Umul8_16@multiplier stored from wreg
  5923  08D7  1283               	bcf	3,5	;RP0=0, select bank0
  5924  08D8  1303               	bcf	3,6	;RP1=0, select bank0
  5925  08D9  00A4               	movwf	__Umul8_16@multiplier
  5926  08DA                     l1956:
  5927  08DA  01A0               	clrf	__Umul8_16@product
  5928  08DB  01A1               	clrf	__Umul8_16@product+1
  5929  08DC                     l1958:
  5930  08DC  0873               	movf	__Umul8_16@multiplicand,w
  5931  08DD  00F5               	movwf	??__Umul8_16
  5932  08DE  01F6               	clrf	??__Umul8_16+1
  5933  08DF  0875               	movf	??__Umul8_16,w
  5934  08E0  00A2               	movwf	__Umul8_16@word_mpld
  5935  08E1  0876               	movf	??__Umul8_16+1,w
  5936  08E2  00A3               	movwf	__Umul8_16@word_mpld+1
  5937  08E3                     l1960:
  5938  08E3  1C24               	btfss	__Umul8_16@multiplier,0
  5939  08E4  28E6               	goto	u2361
  5940  08E5  28E7               	goto	u2360
  5941  08E6                     u2361:
  5942  08E6  28ED               	goto	l651
  5943  08E7                     u2360:
  5944  08E7                     l1962:
  5945  08E7  0822               	movf	__Umul8_16@word_mpld,w
  5946  08E8  07A0               	addwf	__Umul8_16@product,f
  5947  08E9  1803               	skipnc
  5948  08EA  0AA1               	incf	__Umul8_16@product+1,f
  5949  08EB  0823               	movf	__Umul8_16@word_mpld+1,w
  5950  08EC  07A1               	addwf	__Umul8_16@product+1,f
  5951  08ED                     l651:
  5952  08ED  3001               	movlw	1
  5953  08EE                     u2375:
  5954  08EE  1003               	clrc
  5955  08EF  0DA2               	rlf	__Umul8_16@word_mpld,f
  5956  08F0  0DA3               	rlf	__Umul8_16@word_mpld+1,f
  5957  08F1  3EFF               	addlw	-1
  5958  08F2  1D03               	skipz
  5959  08F3  28EE               	goto	u2375
  5960  08F4  1003               	clrc
  5961  08F5  0CA4               	rrf	__Umul8_16@multiplier,f
  5962  08F6                     l1964:
  5963  08F6  0824               	movf	__Umul8_16@multiplier,w
  5964  08F7  1D03               	btfss	3,2
  5965  08F8  28FA               	goto	u2381
  5966  08F9  28FB               	goto	u2380
  5967  08FA                     u2381:
  5968  08FA  28E3               	goto	l1960
  5969  08FB                     u2380:
  5970  08FB                     l1966:
  5971  08FB  0821               	movf	__Umul8_16@product+1,w
  5972  08FC  00F4               	movwf	?__Umul8_16+1
  5973  08FD  0820               	movf	__Umul8_16@product,w
  5974  08FE  00F3               	movwf	?__Umul8_16
  5975  08FF                     l653:
  5976  08FF  0008               	return
  5977  0900                     __end_of__Umul8_16:
  5978                           
  5979                           	psect	text18
  5980  17D3                     __ptext18:	
  5981 ;; *************** function _I2C_Master_RepeatedStart *****************
  5982 ;; Defined at:
  5983 ;;		line 24 in file "./I2Clib.h"
  5984 ;; Parameters:    Size  Location     Type
  5985 ;;		None
  5986 ;; Auto vars:     Size  Location     Type
  5987 ;;		None
  5988 ;; Return value:  Size  Location     Type
  5989 ;;                  1    wreg      void 
  5990 ;; Registers used:
  5991 ;;		wreg, status,2, status,0, pclath, cstack
  5992 ;; Tracked objects:
  5993 ;;		On entry : 0/0
  5994 ;;		On exit  : 0/0
  5995 ;;		Unchanged: 0/0
  5996 ;; Data sizes:     COMMON   BANK0   BANK1   BANK3   BANK2
  5997 ;;      Params:         0       0       0       0       0
  5998 ;;      Locals:         0       0       0       0       0
  5999 ;;      Temps:          0       0       0       0       0
  6000 ;;      Totals:         0       0       0       0       0
  6001 ;;Total ram usage:        0 bytes
  6002 ;; Hardware stack levels used:    1
  6003 ;; Hardware stack levels required when called:    2
  6004 ;; This function calls:
  6005 ;;		_I2C_Master_Wait
  6006 ;; This function is called by:
  6007 ;;		_I2C_WWW
  6008 ;; This function uses a non-reentrant model
  6009 ;;
  6010                           
  6011                           
  6012                           ;psect for function _I2C_Master_RepeatedStart
  6013  17D3                     _I2C_Master_RepeatedStart:
  6014  17D3                     l1986:	
  6015                           ;incstack = 0
  6016                           ; Regs used in _I2C_Master_RepeatedStart: [wreg+status,2+status,0+pclath+cstack]
  6017                           
  6018                           
  6019                           ;./I2Clib.h: 26:     I2C_Master_Wait();
  6020  17D3  160A  118A  27F3  160A  118A  	fcall	_I2C_Master_Wait
  6021  17D8                     l1988:
  6022                           
  6023                           ;./I2Clib.h: 27:     RSEN = 1;
  6024  17D8  1683               	bsf	3,5	;RP0=1, select bank1
  6025  17D9  1303               	bcf	3,6	;RP1=0, select bank1
  6026  17DA  1491               	bsf	17,1	;volatile
  6027  17DB                     l91:
  6028  17DB  0008               	return
  6029  17DC                     __end_of_I2C_Master_RepeatedStart:
  6030                           
  6031                           	psect	text19
  6032  0930                     __ptext19:	
  6033 ;; *************** function _I2C_Master_Read *****************
  6034 ;; Defined at:
  6035 ;;		line 43 in file "./I2Clib.h"
  6036 ;; Parameters:    Size  Location     Type
  6037 ;;  a               2    3[COMMON] unsigned short 
  6038 ;; Auto vars:     Size  Location     Type
  6039 ;;  temp            2    7[COMMON] unsigned short 
  6040 ;; Return value:  Size  Location     Type
  6041 ;;                  2    3[COMMON] unsigned short 
  6042 ;; Registers used:
  6043 ;;		wreg, status,2, status,0, pclath, cstack
  6044 ;; Tracked objects:
  6045 ;;		On entry : 0/0
  6046 ;;		On exit  : 0/0
  6047 ;;		Unchanged: 0/0
  6048 ;; Data sizes:     COMMON   BANK0   BANK1   BANK3   BANK2
  6049 ;;      Params:         2       0       0       0       0
  6050 ;;      Locals:         2       0       0       0       0
  6051 ;;      Temps:          2       0       0       0       0
  6052 ;;      Totals:         6       0       0       0       0
  6053 ;;Total ram usage:        6 bytes
  6054 ;; Hardware stack levels used:    1
  6055 ;; Hardware stack levels required when called:    2
  6056 ;; This function calls:
  6057 ;;		_I2C_Master_Wait
  6058 ;; This function is called by:
  6059 ;;		_I2C_WWW
  6060 ;; This function uses a non-reentrant model
  6061 ;;
  6062                           
  6063                           
  6064                           ;psect for function _I2C_Master_Read
  6065  0930                     _I2C_Master_Read:
  6066  0930                     l1998:	
  6067                           ;incstack = 0
  6068                           ; Regs used in _I2C_Master_Read: [wreg+status,2+status,0+pclath+cstack]
  6069                           
  6070                           
  6071                           ;./I2Clib.h: 43: unsigned short I2C_Master_Read(unsigned short a);./I2Clib.h: 44: {;./I2
      +                          Clib.h: 45:     unsigned short temp;;./I2Clib.h: 46:     I2C_Master_Wait();
  6072  0930  160A  118A  27F3  120A  158A  	fcall	_I2C_Master_Wait
  6073  0935                     l2000:
  6074                           
  6075                           ;./I2Clib.h: 47:     RCEN = 1;
  6076  0935  1683               	bsf	3,5	;RP0=1, select bank1
  6077  0936  1303               	bcf	3,6	;RP1=0, select bank1
  6078  0937  1591               	bsf	17,3	;volatile
  6079                           
  6080                           ;./I2Clib.h: 48:     I2C_Master_Wait();
  6081  0938  160A  118A  27F3  120A  158A  	fcall	_I2C_Master_Wait
  6082  093D                     l103:	
  6083                           ;./I2Clib.h: 49:     while(!SSPIF);
  6084                           
  6085  093D  1283               	bcf	3,5	;RP0=0, select bank0
  6086  093E  1303               	bcf	3,6	;RP1=0, select bank0
  6087  093F  1D8C               	btfss	12,3	;volatile
  6088  0940  2942               	goto	u2421
  6089  0941  2943               	goto	u2420
  6090  0942                     u2421:
  6091  0942  293D               	goto	l103
  6092  0943                     u2420:
  6093  0943                     l2002:
  6094                           
  6095                           ;./I2Clib.h: 50:     temp = SSPBUF;
  6096  0943  0813               	movf	19,w	;volatile
  6097  0944  00F5               	movwf	??_I2C_Master_Read
  6098  0945  01F6               	clrf	??_I2C_Master_Read+1
  6099  0946  0875               	movf	??_I2C_Master_Read,w
  6100  0947  00F7               	movwf	I2C_Master_Read@temp
  6101  0948  0876               	movf	??_I2C_Master_Read+1,w
  6102  0949  00F8               	movwf	I2C_Master_Read@temp+1
  6103  094A                     l2004:
  6104                           
  6105                           ;./I2Clib.h: 51:     I2C_Master_Wait();
  6106  094A  160A  118A  27F3  120A  158A  	fcall	_I2C_Master_Wait
  6107  094F                     l2006:
  6108                           
  6109                           ;./I2Clib.h: 52:     ACKDT = (a)?0:1;
  6110  094F  0873               	movf	I2C_Master_Read@a,w
  6111  0950  0474               	iorwf	I2C_Master_Read@a+1,w
  6112  0951  1903               	btfsc	3,2
  6113  0952  2954               	goto	u2431
  6114  0953  2958               	goto	u2430
  6115  0954                     u2431:
  6116  0954  1683               	bsf	3,5	;RP0=1, select bank1
  6117  0955  1303               	bcf	3,6	;RP1=0, select bank1
  6118  0956  1691               	bsf	17,5	;volatile
  6119  0957  295B               	goto	u2444
  6120  0958                     u2430:
  6121  0958  1683               	bsf	3,5	;RP0=1, select bank1
  6122  0959  1303               	bcf	3,6	;RP1=0, select bank1
  6123  095A  1291               	bcf	17,5	;volatile
  6124  095B                     u2444:
  6125  095B                     l2008:
  6126                           
  6127                           ;./I2Clib.h: 53:     ACKEN = 1;
  6128  095B  1611               	bsf	17,4	;volatile
  6129  095C                     l2010:
  6130                           
  6131                           ;./I2Clib.h: 54:     return temp;
  6132  095C  0878               	movf	I2C_Master_Read@temp+1,w
  6133  095D  00F4               	movwf	?_I2C_Master_Read+1
  6134  095E  0877               	movf	I2C_Master_Read@temp,w
  6135  095F  00F3               	movwf	?_I2C_Master_Read
  6136  0960                     l106:
  6137  0960  0008               	return
  6138  0961                     __end_of_I2C_Master_Read:
  6139                           
  6140                           	psect	text20
  6141  0961                     __ptext20:	
  6142 ;; *************** function _I2C_Master_Init *****************
  6143 ;; Defined at:
  6144 ;;		line 3 in file "./I2Clib.h"
  6145 ;; Parameters:    Size  Location     Type
  6146 ;;  c               4    6[BANK0 ] const unsigned long 
  6147 ;; Auto vars:     Size  Location     Type
  6148 ;;		None
  6149 ;; Return value:  Size  Location     Type
  6150 ;;                  1    wreg      void 
  6151 ;; Registers used:
  6152 ;;		wreg, status,2, status,0, pclath, cstack
  6153 ;; Tracked objects:
  6154 ;;		On entry : 0/0
  6155 ;;		On exit  : 0/0
  6156 ;;		Unchanged: 0/0
  6157 ;; Data sizes:     COMMON   BANK0   BANK1   BANK3   BANK2
  6158 ;;      Params:         0       4       0       0       0
  6159 ;;      Locals:         0       0       0       0       0
  6160 ;;      Temps:          0       4       0       0       0
  6161 ;;      Totals:         0       8       0       0       0
  6162 ;;Total ram usage:        8 bytes
  6163 ;; Hardware stack levels used:    1
  6164 ;; Hardware stack levels required when called:    2
  6165 ;; This function calls:
  6166 ;;		___lldiv
  6167 ;; This function is called by:
  6168 ;;		_main
  6169 ;; This function uses a non-reentrant model
  6170 ;;
  6171                           
  6172                           
  6173                           ;psect for function _I2C_Master_Init
  6174  0961                     _I2C_Master_Init:
  6175  0961                     l2380:	
  6176                           ;incstack = 0
  6177                           ; Regs used in _I2C_Master_Init: [wreg+status,2+status,0+pclath+cstack]
  6178                           
  6179                           
  6180                           ;./I2Clib.h: 3: void I2C_Master_Init(const unsigned long c);./I2Clib.h: 4: {;./I2Clib.h:
      +                           5:     SSPCON = 0b00101000;
  6181  0961  3028               	movlw	40
  6182  0962  1283               	bcf	3,5	;RP0=0, select bank0
  6183  0963  1303               	bcf	3,6	;RP1=0, select bank0
  6184  0964  0094               	movwf	20	;volatile
  6185  0965                     l2382:
  6186                           
  6187                           ;./I2Clib.h: 6:     SSPCON2 = 0;
  6188  0965  1683               	bsf	3,5	;RP0=1, select bank1
  6189  0966  1303               	bcf	3,6	;RP1=0, select bank1
  6190  0967  0191               	clrf	17	;volatile
  6191  0968                     l2384:
  6192                           
  6193                           ;./I2Clib.h: 7:     SSPADD = (4000000/(4*c))-1;
  6194  0968  1283               	bcf	3,5	;RP0=0, select bank0
  6195  0969  1303               	bcf	3,6	;RP1=0, select bank0
  6196  096A  0826               	movf	I2C_Master_Init@c,w
  6197  096B  00AA               	movwf	??_I2C_Master_Init
  6198  096C  0827               	movf	I2C_Master_Init@c+1,w
  6199  096D  00AB               	movwf	??_I2C_Master_Init+1
  6200  096E  0828               	movf	I2C_Master_Init@c+2,w
  6201  096F  00AC               	movwf	??_I2C_Master_Init+2
  6202  0970  0829               	movf	I2C_Master_Init@c+3,w
  6203  0971  00AD               	movwf	??_I2C_Master_Init+3
  6204  0972  3002               	movlw	2
  6205  0973                     u3345:
  6206  0973  1003               	clrc
  6207  0974  0DAA               	rlf	??_I2C_Master_Init,f
  6208  0975  0DAB               	rlf	??_I2C_Master_Init+1,f
  6209  0976  0DAC               	rlf	??_I2C_Master_Init+2,f
  6210  0977  0DAD               	rlf	??_I2C_Master_Init+3,f
  6211  0978                     u3340:
  6212  0978  3EFF               	addlw	-1
  6213  0979  1D03               	skipz
  6214  097A  2973               	goto	u3345
  6215  097B  082D               	movf	??_I2C_Master_Init+3,w
  6216  097C  00F6               	movwf	___lldiv@divisor+3
  6217  097D  082C               	movf	??_I2C_Master_Init+2,w
  6218  097E  00F5               	movwf	___lldiv@divisor+2
  6219  097F  082B               	movf	??_I2C_Master_Init+1,w
  6220  0980  00F4               	movwf	___lldiv@divisor+1
  6221  0981  082A               	movf	??_I2C_Master_Init,w
  6222  0982  00F3               	movwf	___lldiv@divisor
  6223  0983  3000               	movlw	0
  6224  0984  00FA               	movwf	___lldiv@dividend+3
  6225  0985  303D               	movlw	61
  6226  0986  00F9               	movwf	___lldiv@dividend+2
  6227  0987  3009               	movlw	9
  6228  0988  00F8               	movwf	___lldiv@dividend+1
  6229  0989  3000               	movlw	0
  6230  098A  00F7               	movwf	___lldiv@dividend
  6231  098B  120A  158A  2253  120A  158A  	fcall	___lldiv
  6232  0990  0873               	movf	?___lldiv,w
  6233  0991  3EFF               	addlw	255
  6234  0992  1683               	bsf	3,5	;RP0=1, select bank1
  6235  0993  1303               	bcf	3,6	;RP1=0, select bank1
  6236  0994  0093               	movwf	19	;volatile
  6237  0995                     l2386:
  6238                           
  6239                           ;./I2Clib.h: 8:     SSPSTAT = 0x80;
  6240  0995  3080               	movlw	128
  6241  0996  0094               	movwf	20	;volatile
  6242  0997                     l2388:
  6243                           
  6244                           ;./I2Clib.h: 9:     TRISC3 = 1;
  6245  0997  1587               	bsf	7,3	;volatile
  6246  0998                     l2390:
  6247                           
  6248                           ;./I2Clib.h: 10:     TRISC4 = 1;
  6249  0998  1607               	bsf	7,4	;volatile
  6250  0999                     l79:
  6251  0999  0008               	return
  6252  099A                     __end_of_I2C_Master_Init:
  6253                           
  6254                           	psect	text21
  6255  0A53                     __ptext21:	
  6256 ;; *************** function ___lldiv *****************
  6257 ;; Defined at:
  6258 ;;		line 5 in file "D:\Program Files\Microchip\xc8\v2.31\pic\sources\c90\common\__lldiv.c"
  6259 ;; Parameters:    Size  Location     Type
  6260 ;;  divisor         4    3[COMMON] unsigned long 
  6261 ;;  dividend        4    7[COMMON] unsigned long 
  6262 ;; Auto vars:     Size  Location     Type
  6263 ;;  quotient        4    1[BANK0 ] unsigned long 
  6264 ;;  counter         1    5[BANK0 ] unsigned char 
  6265 ;; Return value:  Size  Location     Type
  6266 ;;                  4    3[COMMON] unsigned long 
  6267 ;; Registers used:
  6268 ;;		wreg, status,2, status,0
  6269 ;; Tracked objects:
  6270 ;;		On entry : 0/0
  6271 ;;		On exit  : 0/0
  6272 ;;		Unchanged: 0/0
  6273 ;; Data sizes:     COMMON   BANK0   BANK1   BANK3   BANK2
  6274 ;;      Params:         8       0       0       0       0
  6275 ;;      Locals:         0       5       0       0       0
  6276 ;;      Temps:          0       1       0       0       0
  6277 ;;      Totals:         8       6       0       0       0
  6278 ;;Total ram usage:       14 bytes
  6279 ;; Hardware stack levels used:    1
  6280 ;; Hardware stack levels required when called:    1
  6281 ;; This function calls:
  6282 ;;		Nothing
  6283 ;; This function is called by:
  6284 ;;		_I2C_Master_Init
  6285 ;;		_sprintf
  6286 ;; This function uses a non-reentrant model
  6287 ;;
  6288                           
  6289                           
  6290                           ;psect for function ___lldiv
  6291  0A53                     ___lldiv:
  6292  0A53                     l1718:	
  6293                           ;incstack = 0
  6294                           ; Regs used in ___lldiv: [wreg+status,2+status,0]
  6295                           
  6296  0A53  3000               	movlw	0
  6297  0A54  1283               	bcf	3,5	;RP0=0, select bank0
  6298  0A55  1303               	bcf	3,6	;RP1=0, select bank0
  6299  0A56  00A4               	movwf	___lldiv@quotient+3
  6300  0A57  3000               	movlw	0
  6301  0A58  00A3               	movwf	___lldiv@quotient+2
  6302  0A59  3000               	movlw	0
  6303  0A5A  00A2               	movwf	___lldiv@quotient+1
  6304  0A5B  3000               	movlw	0
  6305  0A5C  00A1               	movwf	___lldiv@quotient
  6306  0A5D  0876               	movf	___lldiv@divisor+3,w
  6307  0A5E  0475               	iorwf	___lldiv@divisor+2,w
  6308  0A5F  0474               	iorwf	___lldiv@divisor+1,w
  6309  0A60  0473               	iorwf	___lldiv@divisor,w
  6310  0A61  1903               	skipnz
  6311  0A62  2A64               	goto	u1771
  6312  0A63  2A65               	goto	u1770
  6313  0A64                     u1771:
  6314  0A64  2AB2               	goto	l1738
  6315  0A65                     u1770:
  6316  0A65                     l1720:
  6317  0A65  01A5               	clrf	___lldiv@counter
  6318  0A66  0AA5               	incf	___lldiv@counter,f
  6319  0A67  2A75               	goto	l1724
  6320  0A68                     l1722:
  6321  0A68  3001               	movlw	1
  6322  0A69  00A0               	movwf	??___lldiv
  6323  0A6A                     u1785:
  6324  0A6A  1003               	clrc
  6325  0A6B  0DF3               	rlf	___lldiv@divisor,f
  6326  0A6C  0DF4               	rlf	___lldiv@divisor+1,f
  6327  0A6D  0DF5               	rlf	___lldiv@divisor+2,f
  6328  0A6E  0DF6               	rlf	___lldiv@divisor+3,f
  6329  0A6F  0BA0               	decfsz	??___lldiv,f
  6330  0A70  2A6A               	goto	u1785
  6331  0A71  3001               	movlw	1
  6332  0A72  00A0               	movwf	??___lldiv
  6333  0A73  0820               	movf	??___lldiv,w
  6334  0A74  07A5               	addwf	___lldiv@counter,f
  6335  0A75                     l1724:
  6336  0A75  1FF6               	btfss	___lldiv@divisor+3,7
  6337  0A76  2A78               	goto	u1791
  6338  0A77  2A79               	goto	u1790
  6339  0A78                     u1791:
  6340  0A78  2A68               	goto	l1722
  6341  0A79                     u1790:
  6342  0A79                     l1726:
  6343  0A79  3001               	movlw	1
  6344  0A7A  00A0               	movwf	??___lldiv
  6345  0A7B                     u1805:
  6346  0A7B  1003               	clrc
  6347  0A7C  0DA1               	rlf	___lldiv@quotient,f
  6348  0A7D  0DA2               	rlf	___lldiv@quotient+1,f
  6349  0A7E  0DA3               	rlf	___lldiv@quotient+2,f
  6350  0A7F  0DA4               	rlf	___lldiv@quotient+3,f
  6351  0A80  0BA0               	decfsz	??___lldiv,f
  6352  0A81  2A7B               	goto	u1805
  6353  0A82                     l1728:
  6354  0A82  0876               	movf	___lldiv@divisor+3,w
  6355  0A83  027A               	subwf	___lldiv@dividend+3,w
  6356  0A84  1D03               	skipz
  6357  0A85  2A90               	goto	u1815
  6358  0A86  0875               	movf	___lldiv@divisor+2,w
  6359  0A87  0279               	subwf	___lldiv@dividend+2,w
  6360  0A88  1D03               	skipz
  6361  0A89  2A90               	goto	u1815
  6362  0A8A  0874               	movf	___lldiv@divisor+1,w
  6363  0A8B  0278               	subwf	___lldiv@dividend+1,w
  6364  0A8C  1D03               	skipz
  6365  0A8D  2A90               	goto	u1815
  6366  0A8E  0873               	movf	___lldiv@divisor,w
  6367  0A8F  0277               	subwf	___lldiv@dividend,w
  6368  0A90                     u1815:
  6369  0A90  1C03               	skipc
  6370  0A91  2A93               	goto	u1811
  6371  0A92  2A94               	goto	u1810
  6372  0A93                     u1811:
  6373  0A93  2AA3               	goto	l1734
  6374  0A94                     u1810:
  6375  0A94                     l1730:
  6376  0A94  0873               	movf	___lldiv@divisor,w
  6377  0A95  02F7               	subwf	___lldiv@dividend,f
  6378  0A96  0874               	movf	___lldiv@divisor+1,w
  6379  0A97  1C03               	skipc
  6380  0A98  0F74               	incfsz	___lldiv@divisor+1,w
  6381  0A99  02F8               	subwf	___lldiv@dividend+1,f
  6382  0A9A  0875               	movf	___lldiv@divisor+2,w
  6383  0A9B  1C03               	skipc
  6384  0A9C  0F75               	incfsz	___lldiv@divisor+2,w
  6385  0A9D  02F9               	subwf	___lldiv@dividend+2,f
  6386  0A9E  0876               	movf	___lldiv@divisor+3,w
  6387  0A9F  1C03               	skipc
  6388  0AA0  0F76               	incfsz	___lldiv@divisor+3,w
  6389  0AA1  02FA               	subwf	___lldiv@dividend+3,f
  6390  0AA2                     l1732:
  6391  0AA2  1421               	bsf	___lldiv@quotient,0
  6392  0AA3                     l1734:
  6393  0AA3  3001               	movlw	1
  6394  0AA4                     u1825:
  6395  0AA4  1003               	clrc
  6396  0AA5  0CF6               	rrf	___lldiv@divisor+3,f
  6397  0AA6  0CF5               	rrf	___lldiv@divisor+2,f
  6398  0AA7  0CF4               	rrf	___lldiv@divisor+1,f
  6399  0AA8  0CF3               	rrf	___lldiv@divisor,f
  6400  0AA9  3EFF               	addlw	-1
  6401  0AAA  1D03               	skipz
  6402  0AAB  2AA4               	goto	u1825
  6403  0AAC                     l1736:
  6404  0AAC  3001               	movlw	1
  6405  0AAD  02A5               	subwf	___lldiv@counter,f
  6406  0AAE  1D03               	btfss	3,2
  6407  0AAF  2AB1               	goto	u1831
  6408  0AB0  2AB2               	goto	u1830
  6409  0AB1                     u1831:
  6410  0AB1  2A79               	goto	l1726
  6411  0AB2                     u1830:
  6412  0AB2                     l1738:
  6413  0AB2  0824               	movf	___lldiv@quotient+3,w
  6414  0AB3  00F6               	movwf	?___lldiv+3
  6415  0AB4  0823               	movf	___lldiv@quotient+2,w
  6416  0AB5  00F5               	movwf	?___lldiv+2
  6417  0AB6  0822               	movf	___lldiv@quotient+1,w
  6418  0AB7  00F4               	movwf	?___lldiv+1
  6419  0AB8  0821               	movf	___lldiv@quotient,w
  6420  0AB9  00F3               	movwf	?___lldiv
  6421  0ABA                     l279:
  6422  0ABA  0008               	return
  6423  0ABB                     __end_of___lldiv:
  6424                           
  6425                           	psect	text22
  6426  09F0                     __ptext22:	
  6427 ;; *************** function _I2C_ConfigM *****************
  6428 ;; Defined at:
  6429 ;;		line 57 in file "./I2Clib.h"
  6430 ;; Parameters:    Size  Location     Type
  6431 ;;		None
  6432 ;; Auto vars:     Size  Location     Type
  6433 ;;		None
  6434 ;; Return value:  Size  Location     Type
  6435 ;;                  1    wreg      void 
  6436 ;; Registers used:
  6437 ;;		wreg, status,2, status,0, pclath, cstack
  6438 ;; Tracked objects:
  6439 ;;		On entry : 0/0
  6440 ;;		On exit  : 0/0
  6441 ;;		Unchanged: 0/0
  6442 ;; Data sizes:     COMMON   BANK0   BANK1   BANK3   BANK2
  6443 ;;      Params:         0       0       0       0       0
  6444 ;;      Locals:         0       0       0       0       0
  6445 ;;      Temps:          0       0       0       0       0
  6446 ;;      Totals:         0       0       0       0       0
  6447 ;;Total ram usage:        0 bytes
  6448 ;; Hardware stack levels used:    1
  6449 ;; Hardware stack levels required when called:    3
  6450 ;; This function calls:
  6451 ;;		_I2C_Master_Start
  6452 ;;		_I2C_Master_Stop
  6453 ;;		_I2C_Master_Write
  6454 ;; This function is called by:
  6455 ;;		_main
  6456 ;; This function uses a non-reentrant model
  6457 ;;
  6458                           
  6459                           
  6460                           ;psect for function _I2C_ConfigM
  6461  09F0                     _I2C_ConfigM:
  6462  09F0                     l2392:	
  6463                           ;incstack = 0
  6464                           ; Regs used in _I2C_ConfigM: [wreg+status,2+status,0+pclath+cstack]
  6465                           
  6466                           
  6467                           ;./I2Clib.h: 58:     I2C_Master_Start();
  6468  09F0  160A  118A  27C1  120A  158A  	fcall	_I2C_Master_Start
  6469                           
  6470                           ;./I2Clib.h: 59:     I2C_Master_Write(0xD0);
  6471  09F5  30D0               	movlw	208
  6472  09F6  00F3               	movwf	I2C_Master_Write@d
  6473  09F7  3000               	movlw	0
  6474  09F8  00F4               	movwf	I2C_Master_Write@d+1
  6475  09F9  120A  158A  2039  120A  158A  	fcall	_I2C_Master_Write
  6476                           
  6477                           ;./I2Clib.h: 60:     I2C_Master_Write(0x6B);
  6478  09FE  306B               	movlw	107
  6479  09FF  00F3               	movwf	I2C_Master_Write@d
  6480  0A00  3000               	movlw	0
  6481  0A01  00F4               	movwf	I2C_Master_Write@d+1
  6482  0A02  120A  158A  2039  120A  158A  	fcall	_I2C_Master_Write
  6483                           
  6484                           ;./I2Clib.h: 61:     I2C_Master_Write(0x01);
  6485  0A07  3001               	movlw	1
  6486  0A08  00F3               	movwf	I2C_Master_Write@d
  6487  0A09  3000               	movlw	0
  6488  0A0A  00F4               	movwf	I2C_Master_Write@d+1
  6489  0A0B  120A  158A  2039  120A  158A  	fcall	_I2C_Master_Write
  6490                           
  6491                           ;./I2Clib.h: 62:     I2C_Master_Stop();
  6492  0A10  160A  118A  27CA  120A  158A  	fcall	_I2C_Master_Stop
  6493                           
  6494                           ;./I2Clib.h: 63:     I2C_Master_Start();
  6495  0A15  160A  118A  27C1  120A  158A  	fcall	_I2C_Master_Start
  6496                           
  6497                           ;./I2Clib.h: 64:     I2C_Master_Write(0xD0);
  6498  0A1A  30D0               	movlw	208
  6499  0A1B  00F3               	movwf	I2C_Master_Write@d
  6500  0A1C  3000               	movlw	0
  6501  0A1D  00F4               	movwf	I2C_Master_Write@d+1
  6502  0A1E  120A  158A  2039  120A  158A  	fcall	_I2C_Master_Write
  6503                           
  6504                           ;./I2Clib.h: 65:     I2C_Master_Write(0x19);
  6505  0A23  3019               	movlw	25
  6506  0A24  00F3               	movwf	I2C_Master_Write@d
  6507  0A25  3000               	movlw	0
  6508  0A26  00F4               	movwf	I2C_Master_Write@d+1
  6509  0A27  120A  158A  2039  120A  158A  	fcall	_I2C_Master_Write
  6510                           
  6511                           ;./I2Clib.h: 66:     I2C_Master_Write(0x07);
  6512  0A2C  3007               	movlw	7
  6513  0A2D  00F3               	movwf	I2C_Master_Write@d
  6514  0A2E  3000               	movlw	0
  6515  0A2F  00F4               	movwf	I2C_Master_Write@d+1
  6516  0A30  120A  158A  2039  120A  158A  	fcall	_I2C_Master_Write
  6517                           
  6518                           ;./I2Clib.h: 67:     I2C_Master_Write(0x00);
  6519  0A35  3000               	movlw	0
  6520  0A36  00F3               	movwf	I2C_Master_Write@d
  6521  0A37  00F4               	movwf	I2C_Master_Write@d+1
  6522  0A38  120A  158A  2039  120A  158A  	fcall	_I2C_Master_Write
  6523                           
  6524                           ;./I2Clib.h: 68:     I2C_Master_Write(0x00);
  6525  0A3D  3000               	movlw	0
  6526  0A3E  00F3               	movwf	I2C_Master_Write@d
  6527  0A3F  00F4               	movwf	I2C_Master_Write@d+1
  6528  0A40  120A  158A  2039  120A  158A  	fcall	_I2C_Master_Write
  6529                           
  6530                           ;./I2Clib.h: 69:     I2C_Master_Write(0x00);
  6531  0A45  3000               	movlw	0
  6532  0A46  00F3               	movwf	I2C_Master_Write@d
  6533  0A47  00F4               	movwf	I2C_Master_Write@d+1
  6534  0A48  120A  158A  2039  120A  158A  	fcall	_I2C_Master_Write
  6535                           
  6536                           ;./I2Clib.h: 70:     I2C_Master_Stop();
  6537  0A4D  160A  118A  27CA  120A  158A  	fcall	_I2C_Master_Stop
  6538  0A52                     l109:
  6539  0A52  0008               	return
  6540  0A53                     __end_of_I2C_ConfigM:
  6541                           
  6542                           	psect	text23
  6543  0839                     __ptext23:	
  6544 ;; *************** function _I2C_Master_Write *****************
  6545 ;; Defined at:
  6546 ;;		line 36 in file "./I2Clib.h"
  6547 ;; Parameters:    Size  Location     Type
  6548 ;;  d               2    3[COMMON] unsigned int 
  6549 ;; Auto vars:     Size  Location     Type
  6550 ;;		None
  6551 ;; Return value:  Size  Location     Type
  6552 ;;                  1    wreg      void 
  6553 ;; Registers used:
  6554 ;;		wreg, status,2, status,0, pclath, cstack
  6555 ;; Tracked objects:
  6556 ;;		On entry : 0/0
  6557 ;;		On exit  : 0/0
  6558 ;;		Unchanged: 0/0
  6559 ;; Data sizes:     COMMON   BANK0   BANK1   BANK3   BANK2
  6560 ;;      Params:         2       0       0       0       0
  6561 ;;      Locals:         0       0       0       0       0
  6562 ;;      Temps:          0       0       0       0       0
  6563 ;;      Totals:         2       0       0       0       0
  6564 ;;Total ram usage:        2 bytes
  6565 ;; Hardware stack levels used:    1
  6566 ;; Hardware stack levels required when called:    2
  6567 ;; This function calls:
  6568 ;;		_I2C_Master_Wait
  6569 ;; This function is called by:
  6570 ;;		_I2C_ConfigM
  6571 ;;		_I2C_WWW
  6572 ;; This function uses a non-reentrant model
  6573 ;;
  6574                           
  6575                           
  6576                           ;psect for function _I2C_Master_Write
  6577  0839                     _I2C_Master_Write:
  6578  0839                     l1994:	
  6579                           ;incstack = 0
  6580                           ; Regs used in _I2C_Master_Write: [wreg+status,2+status,0+pclath+cstack]
  6581                           
  6582                           
  6583                           ;./I2Clib.h: 36: void I2C_Master_Write(unsigned d);./I2Clib.h: 37: {;./I2Clib.h: 38:    
      +                           I2C_Master_Wait();
  6584  0839  160A  118A  27F3  120A  158A  	fcall	_I2C_Master_Wait
  6585  083E                     l1996:
  6586                           
  6587                           ;./I2Clib.h: 39:     SSPBUF = d;
  6588  083E  0873               	movf	I2C_Master_Write@d,w
  6589  083F  1283               	bcf	3,5	;RP0=0, select bank0
  6590  0840  1303               	bcf	3,6	;RP1=0, select bank0
  6591  0841  0093               	movwf	19	;volatile
  6592  0842                     l97:	
  6593                           ;./I2Clib.h: 40:     while(!PIR1bits.SSPIF);
  6594                           
  6595  0842  1D8C               	btfss	12,3	;volatile
  6596  0843  2845               	goto	u2411
  6597  0844  2846               	goto	u2410
  6598  0845                     u2411:
  6599  0845  2842               	goto	l97
  6600  0846                     u2410:
  6601  0846                     l100:
  6602  0846  0008               	return
  6603  0847                     __end_of_I2C_Master_Write:
  6604                           
  6605                           	psect	text24
  6606  17CA                     __ptext24:	
  6607 ;; *************** function _I2C_Master_Stop *****************
  6608 ;; Defined at:
  6609 ;;		line 30 in file "./I2Clib.h"
  6610 ;; Parameters:    Size  Location     Type
  6611 ;;		None
  6612 ;; Auto vars:     Size  Location     Type
  6613 ;;		None
  6614 ;; Return value:  Size  Location     Type
  6615 ;;                  1    wreg      void 
  6616 ;; Registers used:
  6617 ;;		wreg, status,2, status,0, pclath, cstack
  6618 ;; Tracked objects:
  6619 ;;		On entry : 0/0
  6620 ;;		On exit  : 0/0
  6621 ;;		Unchanged: 0/0
  6622 ;; Data sizes:     COMMON   BANK0   BANK1   BANK3   BANK2
  6623 ;;      Params:         0       0       0       0       0
  6624 ;;      Locals:         0       0       0       0       0
  6625 ;;      Temps:          0       0       0       0       0
  6626 ;;      Totals:         0       0       0       0       0
  6627 ;;Total ram usage:        0 bytes
  6628 ;; Hardware stack levels used:    1
  6629 ;; Hardware stack levels required when called:    2
  6630 ;; This function calls:
  6631 ;;		_I2C_Master_Wait
  6632 ;; This function is called by:
  6633 ;;		_I2C_ConfigM
  6634 ;;		_I2C_WWW
  6635 ;; This function uses a non-reentrant model
  6636 ;;
  6637                           
  6638                           
  6639                           ;psect for function _I2C_Master_Stop
  6640  17CA                     _I2C_Master_Stop:
  6641  17CA                     l1990:	
  6642                           ;incstack = 0
  6643                           ; Regs used in _I2C_Master_Stop: [wreg+status,2+status,0+pclath+cstack]
  6644                           
  6645                           
  6646                           ;./I2Clib.h: 32:     I2C_Master_Wait();
  6647  17CA  160A  118A  27F3  160A  118A  	fcall	_I2C_Master_Wait
  6648  17CF                     l1992:
  6649                           
  6650                           ;./I2Clib.h: 33:     PEN = 1;
  6651  17CF  1683               	bsf	3,5	;RP0=1, select bank1
  6652  17D0  1303               	bcf	3,6	;RP1=0, select bank1
  6653  17D1  1511               	bsf	17,2	;volatile
  6654  17D2                     l94:
  6655  17D2  0008               	return
  6656  17D3                     __end_of_I2C_Master_Stop:
  6657                           
  6658                           	psect	text25
  6659  17C1                     __ptext25:	
  6660 ;; *************** function _I2C_Master_Start *****************
  6661 ;; Defined at:
  6662 ;;		line 18 in file "./I2Clib.h"
  6663 ;; Parameters:    Size  Location     Type
  6664 ;;		None
  6665 ;; Auto vars:     Size  Location     Type
  6666 ;;		None
  6667 ;; Return value:  Size  Location     Type
  6668 ;;                  1    wreg      void 
  6669 ;; Registers used:
  6670 ;;		wreg, status,2, status,0, pclath, cstack
  6671 ;; Tracked objects:
  6672 ;;		On entry : 0/0
  6673 ;;		On exit  : 0/0
  6674 ;;		Unchanged: 0/0
  6675 ;; Data sizes:     COMMON   BANK0   BANK1   BANK3   BANK2
  6676 ;;      Params:         0       0       0       0       0
  6677 ;;      Locals:         0       0       0       0       0
  6678 ;;      Temps:          0       0       0       0       0
  6679 ;;      Totals:         0       0       0       0       0
  6680 ;;Total ram usage:        0 bytes
  6681 ;; Hardware stack levels used:    1
  6682 ;; Hardware stack levels required when called:    2
  6683 ;; This function calls:
  6684 ;;		_I2C_Master_Wait
  6685 ;; This function is called by:
  6686 ;;		_I2C_ConfigM
  6687 ;;		_I2C_WWW
  6688 ;; This function uses a non-reentrant model
  6689 ;;
  6690                           
  6691                           
  6692                           ;psect for function _I2C_Master_Start
  6693  17C1                     _I2C_Master_Start:
  6694  17C1                     l1982:	
  6695                           ;incstack = 0
  6696                           ; Regs used in _I2C_Master_Start: [wreg+status,2+status,0+pclath+cstack]
  6697                           
  6698                           
  6699                           ;./I2Clib.h: 20:     I2C_Master_Wait();
  6700  17C1  160A  118A  27F3  160A  118A  	fcall	_I2C_Master_Wait
  6701  17C6                     l1984:
  6702                           
  6703                           ;./I2Clib.h: 21:     SEN = 1;
  6704  17C6  1683               	bsf	3,5	;RP0=1, select bank1
  6705  17C7  1303               	bcf	3,6	;RP1=0, select bank1
  6706  17C8  1411               	bsf	17,0	;volatile
  6707  17C9                     l88:
  6708  17C9  0008               	return
  6709  17CA                     __end_of_I2C_Master_Start:
  6710                           
  6711                           	psect	text26
  6712  17F3                     __ptext26:	
  6713 ;; *************** function _I2C_Master_Wait *****************
  6714 ;; Defined at:
  6715 ;;		line 13 in file "./I2Clib.h"
  6716 ;; Parameters:    Size  Location     Type
  6717 ;;		None
  6718 ;; Auto vars:     Size  Location     Type
  6719 ;;		None
  6720 ;; Return value:  Size  Location     Type
  6721 ;;                  1    wreg      void 
  6722 ;; Registers used:
  6723 ;;		wreg, status,2
  6724 ;; Tracked objects:
  6725 ;;		On entry : 0/0
  6726 ;;		On exit  : 0/0
  6727 ;;		Unchanged: 0/0
  6728 ;; Data sizes:     COMMON   BANK0   BANK1   BANK3   BANK2
  6729 ;;      Params:         0       0       0       0       0
  6730 ;;      Locals:         0       0       0       0       0
  6731 ;;      Temps:          0       0       0       0       0
  6732 ;;      Totals:         0       0       0       0       0
  6733 ;;Total ram usage:        0 bytes
  6734 ;; Hardware stack levels used:    1
  6735 ;; Hardware stack levels required when called:    1
  6736 ;; This function calls:
  6737 ;;		Nothing
  6738 ;; This function is called by:
  6739 ;;		_I2C_Master_Start
  6740 ;;		_I2C_Master_RepeatedStart
  6741 ;;		_I2C_Master_Stop
  6742 ;;		_I2C_Master_Write
  6743 ;;		_I2C_Master_Read
  6744 ;; This function uses a non-reentrant model
  6745 ;;
  6746                           
  6747                           
  6748                           ;psect for function _I2C_Master_Wait
  6749  17F3                     _I2C_Master_Wait:
  6750  17F3                     l1700:	
  6751                           ;incstack = 0
  6752                           ; Regs used in _I2C_Master_Wait: [wreg+status,2]
  6753                           
  6754  17F3                     l82:	
  6755                           ;./I2Clib.h: 15:     while ((SSPSTAT & 0x04) || (SSPCON2 & 0x1F));
  6756                           
  6757  17F3  1683               	bsf	3,5	;RP0=1, select bank1
  6758  17F4  1303               	bcf	3,6	;RP1=0, select bank1
  6759  17F5  1914               	btfsc	20,2	;volatile
  6760  17F6  2FF8               	goto	u1711
  6761  17F7  2FF9               	goto	u1710
  6762  17F8                     u1711:
  6763  17F8  2FF3               	goto	l82
  6764  17F9                     u1710:
  6765  17F9                     l1702:
  6766  17F9  0811               	movf	17,w	;volatile
  6767  17FA  391F               	andlw	31
  6768  17FB  1D03               	btfss	3,2
  6769  17FC  2FFE               	goto	u1721
  6770  17FD  2FFF               	goto	u1720
  6771  17FE                     u1721:
  6772  17FE  2FF3               	goto	l82
  6773  17FF                     u1720:
  6774  17FF                     l85:
  6775  17FF  0008               	return
  6776  1800                     __end_of_I2C_Master_Wait:
  6777                           
  6778                           	psect	text27
  6779  0847                     __ptext27:	
  6780 ;; *************** function _ISR *****************
  6781 ;; Defined at:
  6782 ;;		line 97 in file "newmain.c"
  6783 ;; Parameters:    Size  Location     Type
  6784 ;;		None
  6785 ;; Auto vars:     Size  Location     Type
  6786 ;;		None
  6787 ;; Return value:  Size  Location     Type
  6788 ;;                  1    wreg      void 
  6789 ;; Registers used:
  6790 ;;		wreg
  6791 ;; Tracked objects:
  6792 ;;		On entry : 0/0
  6793 ;;		On exit  : 0/0
  6794 ;;		Unchanged: 0/0
  6795 ;; Data sizes:     COMMON   BANK0   BANK1   BANK3   BANK2
  6796 ;;      Params:         0       0       0       0       0
  6797 ;;      Locals:         0       0       0       0       0
  6798 ;;      Temps:          3       0       0       0       0
  6799 ;;      Totals:         3       0       0       0       0
  6800 ;;Total ram usage:        3 bytes
  6801 ;; Hardware stack levels used:    1
  6802 ;; This function calls:
  6803 ;;		Nothing
  6804 ;; This function is called by:
  6805 ;;		Interrupt level 1
  6806 ;; This function uses a non-reentrant model
  6807 ;;
  6808                           
  6809                           
  6810                           ;psect for function _ISR
  6811  0847                     _ISR:
  6812  0847                     i1l2528:
  6813                           
  6814                           ;newmain.c: 98:     if (PIR1bits.RCIF == 1) {
  6815  0847  1283               	bcf	3,5	;RP0=0, select bank0
  6816  0848  1303               	bcf	3,6	;RP1=0, select bank0
  6817  0849  1E8C               	btfss	12,5	;volatile
  6818  084A  284C               	goto	u340_21
  6819  084B  284D               	goto	u340_20
  6820  084C                     u340_21:
  6821  084C  2852               	goto	i1l143
  6822  084D                     u340_20:
  6823  084D                     i1l2530:
  6824                           
  6825                           ;newmain.c: 99:         ledsu=RCREG;
  6826  084D  081A               	movf	26,w	;volatile
  6827  084E  00F0               	movwf	??_ISR
  6828  084F  0870               	movf	??_ISR,w
  6829  0850  00E0               	movwf	_ledsu
  6830  0851                     i1l2532:
  6831                           
  6832                           ;newmain.c: 100:         PIR1bits.RCIF = 0;
  6833  0851  128C               	bcf	12,5	;volatile
  6834  0852                     i1l143:
  6835  0852  0872               	movf	??_ISR+2,w
  6836  0853  008A               	movwf	10
  6837  0854  0E71               	swapf	??_ISR+1,w
  6838  0855  0083               	movwf	3
  6839  0856  0EFE               	swapf	btemp,f
  6840  0857  0E7E               	swapf	btemp,w
  6841  0858  0009               	retfie
  6842  0859                     __end_of_ISR:
  6843  007E                     btemp	set	126	;btemp
  6844  007E                     wtemp0	set	126
  6845                           
  6846                           	psect	intentry
  6847  0004                     __pintentry:	
  6848                           ;incstack = 0
  6849                           ; Regs used in _ISR: [wreg]
  6850                           
  6851  0004                     interrupt_function:
  6852  007E                     saved_w	set	btemp
  6853  0004  00FE               	movwf	btemp
  6854  0005  0E03               	swapf	3,w
  6855  0006  00F1               	movwf	??_ISR+1
  6856  0007  080A               	movf	10,w
  6857  0008  00F2               	movwf	??_ISR+2
  6858  0009  120A  158A  2847   	ljmp	_ISR
  6859                           
  6860                           	psect	config
  6861                           
  6862                           ;Config register CONFIG1 @ 0x2007
  6863                           ;	Oscillator Selection bits
  6864                           ;	FOSC = INTRC_NOCLKOUT, INTOSCIO oscillator: I/O function on RA6/OSC2/CLKOUT pin, I/O f
      +                          unction on RA7/OSC1/CLKIN
  6865                           ;	Watchdog Timer Enable bit
  6866                           ;	WDTE = OFF, WDT disabled and can be enabled by SWDTEN bit of the WDTCON register
  6867                           ;	Power-up Timer Enable bit
  6868                           ;	PWRTE = OFF, PWRT disabled
  6869                           ;	RE3/MCLR pin function select bit
  6870                           ;	MCLRE = OFF, RE3/MCLR pin function is digital input, MCLR internally tied to VDD
  6871                           ;	Code Protection bit
  6872                           ;	CP = OFF, Program memory code protection is disabled
  6873                           ;	Data Code Protection bit
  6874                           ;	CPD = OFF, Data memory code protection is disabled
  6875                           ;	Brown Out Reset Selection bits
  6876                           ;	BOREN = OFF, BOR disabled
  6877                           ;	Internal External Switchover bit
  6878                           ;	IESO = OFF, Internal/External Switchover mode is disabled
  6879                           ;	Fail-Safe Clock Monitor Enabled bit
  6880                           ;	FCMEN = OFF, Fail-Safe Clock Monitor is disabled
  6881                           ;	Low Voltage Programming Enable bit
  6882                           ;	LVP = OFF, RB3 pin has digital I/O, HV on MCLR must be used for programming
  6883                           ;	In-Circuit Debugger Mode bit
  6884                           ;	DEBUG = 0x1, unprogrammed default
  6885  2007                     	org	8199
  6886  2007  20D4               	dw	8404
  6887                           
  6888                           ;Config register CONFIG2 @ 0x2008
  6889                           ;	Brown-out Reset Selection bit
  6890                           ;	BOR4V = BOR40V, Brown-out Reset set to 4.0V
  6891                           ;	Flash Program Memory Self Write Enable bits
  6892                           ;	WRT = OFF, Write protection off
  6893  2008                     	org	8200
  6894  2008  3FFF               	dw	16383

Data Sizes:
    Strings     11
    Constant    40
    Data        0
    BSS         30
    Persistent  0
    Stack       0

Auto Spaces:
    Space          Size  Autos    Used
    COMMON           14     11      11
    BANK0            80     64      77
    BANK1            80      0      17
    BANK3            96      0       0
    BANK2            96      0       0

Pointer List with Targets:

    ftoa@status	PTR int  size(1) Largest target is 2
		 -> main@status(BANK0[2]), 

    sprintf@f	PTR const unsigned char  size(1) Largest target is 11
		 -> STR_1(CODE[11]), 

    sprintf@sp	PTR unsigned char  size(1) Largest target is 17
		 -> ftoa@buf(BANK1[17]), 

    sprintf@ap	PTR void [1] size(1) Largest target is 2
		 -> ?_sprintf(BANK0[2]), 

    ftoa@cp	PTR unsigned char  size(1) Largest target is 17
		 -> ftoa@buf(BANK1[17]), 

    UARTSendString@str	PTR const unsigned char  size(1) Largest target is 17
		 -> ftoa@buf(BANK1[17]), 

    sp__ftoa	PTR unsigned char  size(1) Largest target is 17
		 -> ftoa@buf(BANK1[17]), 

    main@regs	PTR unsigned char  size(1) Largest target is 17
		 -> ftoa@buf(BANK1[17]), 

    I2C_WWW@dato	PTR float  size(1) Largest target is 12
		 -> I2gato(BANK0[12]), 


Critical Paths under _main in COMMON

    _ftoa->___flge
    _ftoa->___xxtofl
    _sprintf->___lldiv
    ___llmod->___lldiv
    ___flsub->___fladd
    ___flsub->___xxtofl
    _UARTSendString->_UARTSendChar
    _I2C_WWW->___xxtofl
    ___flmul->___xxtofl
    _I2C_Master_Init->___lldiv
    _I2C_ConfigM->_I2C_Master_Write

Critical Paths under _ISR in COMMON

    None.

Critical Paths under _main in BANK0

    _main->_ftoa
    _ftoa->___fltol
    _sprintf->___llmod
    ___llmod->___lldiv
    ___fltol->___flmul
    ___flsub->___fladd
    _I2C_WWW->___flmul
    ___flmul->___xxtofl
    _I2C_Master_Init->___lldiv

Critical Paths under _ISR in BANK0

    None.

Critical Paths under _main in BANK1

    None.

Critical Paths under _ISR in BANK1

    None.

Critical Paths under _main in BANK3

    None.

Critical Paths under _ISR in BANK3

    None.

Critical Paths under _main in BANK2

    None.

Critical Paths under _ISR in BANK2

    None.

Call Graph Tables:

 ---------------------------------------------------------------------------------
 (Depth) Function   	        Calls       Base Space   Used Autos Params    Refs
 ---------------------------------------------------------------------------------
 (0) _main                                                 6     6      0   16844
                                             58 BANK0      6     6      0
                        _I2C_ConfigM
                    _I2C_Master_Init
                            _I2C_WWW
                       _UARTSendChar
                     _UARTSendString
                               _ftoa
                              _setup
 ---------------------------------------------------------------------------------
 (1) _setup                                                0     0      0       0
 ---------------------------------------------------------------------------------
 (1) _ftoa                                                15    10      5    9612
                                             43 BANK0     15    10      5
                             ___flge
                            ___flmul
                            ___flneg
                            ___flsub
                            ___fltol
                           ___xxtofl
                            _sprintf
 ---------------------------------------------------------------------------------
 (2) _sprintf                                             34    25      9    2262
                                             16 BANK0     26    17      9
                            ___lldiv
                            ___llmod
                             ___wmul
                            _isdigit
 ---------------------------------------------------------------------------------
 (3) _isdigit                                              2     2      0      68
                                              3 COMMON     2     2      0
 ---------------------------------------------------------------------------------
 (3) ___wmul                                               6     2      4     396
                                              3 COMMON     6     2      4
 ---------------------------------------------------------------------------------
 (3) ___llmod                                             10     2      8     311
                                              6 BANK0     10     2      8
                            ___lldiv (ARG)
 ---------------------------------------------------------------------------------
 (2) ___fltol                                             11     7      4     381
                                             32 BANK0     11     7      4
                            ___flmul (ARG)
 ---------------------------------------------------------------------------------
 (2) ___flsub                                              8     0      8    2333
                                             12 BANK0      8     0      8
                            ___fladd
                           ___xxtofl (ARG)
 ---------------------------------------------------------------------------------
 (3) ___fladd                                             20    12      8    2136
                                              3 COMMON     8     0      8
                                              0 BANK0     12    12      0
 ---------------------------------------------------------------------------------
 (2) ___flneg                                              4     0      4     121
                                              3 COMMON     4     0      4
 ---------------------------------------------------------------------------------
 (2) ___flge                                              12     4      8     334
                                              3 COMMON     8     0      8
                                              0 BANK0      4     4      0
 ---------------------------------------------------------------------------------
 (1) _UARTSendString                                       5     4      1     484
                                              4 COMMON     5     4      1
                       _UARTSendChar
 ---------------------------------------------------------------------------------
 (2) _UARTSendChar                                         1     1      0      22
                                              3 COMMON     1     1      0
 ---------------------------------------------------------------------------------
 (1) _I2C_WWW                                             21    21      0    5093
                                             32 BANK0     21    21      0
                    _I2C_Master_Read
           _I2C_Master_RepeatedStart
                   _I2C_Master_Start
                    _I2C_Master_Stop
                   _I2C_Master_Write
                            ___flmul
                           ___xxtofl
 ---------------------------------------------------------------------------------
 (2) ___xxtofl                                            14    10      4     626
                                              3 COMMON     8     4      4
                                              0 BANK0      6     6      0
 ---------------------------------------------------------------------------------
 (2) ___flmul                                             26    18      8    2873
                                              6 BANK0     26    18      8
                          __Umul8_16
                           ___xxtofl (ARG)
 ---------------------------------------------------------------------------------
 (3) __Umul8_16                                            9     7      2     799
                                              3 COMMON     4     2      2
                                              0 BANK0      5     5      0
 ---------------------------------------------------------------------------------
 (2) _I2C_Master_RepeatedStart                             0     0      0       0
                    _I2C_Master_Wait
 ---------------------------------------------------------------------------------
 (2) _I2C_Master_Read                                      6     4      2     197
                                              3 COMMON     6     4      2
                    _I2C_Master_Wait
 ---------------------------------------------------------------------------------
 (1) _I2C_Master_Init                                      8     4      4     564
                                              6 BANK0      8     4      4
                            ___lldiv
 ---------------------------------------------------------------------------------
 (3) ___lldiv                                             14     6      8     466
                                              3 COMMON     8     0      8
                                              0 BANK0      6     6      0
 ---------------------------------------------------------------------------------
 (1) _I2C_ConfigM                                          0     0      0     934
                   _I2C_Master_Start
                    _I2C_Master_Stop
                   _I2C_Master_Write
 ---------------------------------------------------------------------------------
 (2) _I2C_Master_Write                                     2     0      2     934
                                              3 COMMON     2     0      2
                    _I2C_Master_Wait
 ---------------------------------------------------------------------------------
 (2) _I2C_Master_Stop                                      0     0      0       0
                    _I2C_Master_Wait
 ---------------------------------------------------------------------------------
 (2) _I2C_Master_Start                                     0     0      0       0
                    _I2C_Master_Wait
 ---------------------------------------------------------------------------------
 (3) _I2C_Master_Wait                                      0     0      0       0
 ---------------------------------------------------------------------------------
 Estimated maximum stack depth 3
 ---------------------------------------------------------------------------------
 (Depth) Function   	        Calls       Base Space   Used Autos Params    Refs
 ---------------------------------------------------------------------------------
 (4) _ISR                                                  3     3      0       0
                                              0 COMMON     3     3      0
 ---------------------------------------------------------------------------------
 Estimated maximum stack depth 4
 ---------------------------------------------------------------------------------

 Call Graph Graphs:

 _main (ROOT)
   _I2C_ConfigM
     _I2C_Master_Start
       _I2C_Master_Wait
     _I2C_Master_Stop
       _I2C_Master_Wait
     _I2C_Master_Write
       _I2C_Master_Wait
   _I2C_Master_Init
     ___lldiv
   _I2C_WWW
     _I2C_Master_Read
       _I2C_Master_Wait
     _I2C_Master_RepeatedStart
       _I2C_Master_Wait
     _I2C_Master_Start
       _I2C_Master_Wait
     _I2C_Master_Stop
       _I2C_Master_Wait
     _I2C_Master_Write
       _I2C_Master_Wait
     ___flmul
       __Umul8_16
       ___xxtofl (ARG)
     ___xxtofl
   _UARTSendChar
   _UARTSendString
     _UARTSendChar
   _ftoa
     ___flge
     ___flmul
       __Umul8_16
       ___xxtofl (ARG)
     ___flneg
     ___flsub
       ___fladd
       ___xxtofl (ARG)
     ___fltol
       ___flmul (ARG)
         __Umul8_16
         ___xxtofl (ARG)
     ___xxtofl
     _sprintf
       ___lldiv
       ___llmod
         ___lldiv (ARG)
       ___wmul
       _isdigit
   _setup

 _ISR (ROOT)

 Address spaces:
Name               Size   Autos  Total    Cost      Usage
BITCOMMON            E      0       0       0        0.0%
EEDATA             100      0       0       0        0.0%
NULL                 0      0       0       0        0.0%
CODE                 0      0       0       0        0.0%
COMMON               E      B       B       1       78.6%
BITSFR0              0      0       0       1        0.0%
SFR0                 0      0       0       1        0.0%
BITSFR1              0      0       0       2        0.0%
SFR1                 0      0       0       2        0.0%
STACK                0      0       0       2        0.0%
ABS                  0      0      69       3        0.0%
BITBANK0            50      0       0       4        0.0%
BITSFR3              0      0       0       4        0.0%
SFR3                 0      0       0       4        0.0%
BANK0               50     40      4D       5       96.2%
BITSFR2              0      0       0       5        0.0%
SFR2                 0      0       0       5        0.0%
BITBANK1            50      0       0       6        0.0%
BANK1               50      0      11       7       21.2%
BITBANK3            60      0       0       8        0.0%
BANK3               60      0       0       9        0.0%
BITBANK2            60      0       0      10        0.0%
BANK2               60      0       0      11        0.0%
DATA                 0      0      69      12        0.0%


Microchip Technology PIC Macro Assembler V2.31 build 20201012212115 
Symbol Table                                                                                   Wed Mar 10 23:51:04 2021

                                pc 0002                                 l82 17F3  
                               l91 17DB                                 l85 17FF  
                               l94 17D2                                 l79 0999  
                               l88 17C9                                 l97 0842  
                               fsr 0004                ___wmul@multiplicand 0075  
              __Umul8_16@word_mpld 0022               __size_of_I2C_ConfigM 0063  
                              l100 0846                                l103 093D  
                              l106 0960                                l116 0755  
                              l109 0A52                                l137 088D  
                              l146 17E8                                l243 08BE  
                              l420 07E0                                l149 17F2  
                              l157 092F                                l421 07F9  
                              l245 08D6                                l417 0774  
                              l425 17E6                                l540 048F  
                              l436 0B21                                l429 0B36  
                              l542 0466                                l279 0ABA  
                              l439 0B36                                l632 0384  
                              l536 03E8                                l561 057E  
                              l465 09EF                                l570 05DE  
                              l651 08ED                                l644 0378  
                              l653 08FF                                l557 055A  
                              l549 060C                                l725 0E76  
                              l638 02F0                                l582 08B1  
                              l567 05A0                                l752 086A  
                              l736 0F46                                l728 0E9C  
                              l690 0BC8                                l682 0BA0  
                              l578 0600                                l579 060C  
                              l747 0FFF                                l676 0B5B  
                              l678 0BF2                                l689 0BBC  
                              l699 0CC7                                _PEN 048A  
                              _ISR 0847                                _SEN 0488  
                  __end_of_I2C_WWW 0756                                fsr0 0004  
                              indf 0000                       ___flmul@aexp 0038  
                     ___flmul@bexp 0039                       ___flmul@sign 0033  
                     ___flmul@temp 003E                       ___flmul@prod 003A  
                             ?_ISR 0070                       ___fltol@exp1 004A  
                             l2000 0935                               l2010 095C  
                             l2002 0943                               l2004 094A  
                             l2100 0040                               l2020 076C  
                             l2006 094F                               l2110 005D  
                             l2102 0048                               l2014 17E8  
                             l2030 07BC                               l2022 0788  
                             l2008 095B                               l2200 0308  
                             l2120 0074                               l2112 0061  
                             l2104 004A                               l2016 17EE  
                             l2032 07F6                               l2024 0790  
                             l2040 17E4                               l2210 0343  
                             l2202 030C                               l2122 0076  
                             l2114 0062                               l2106 0052  
                             l2034 07F8                               l2026 0794  
                             l2018 0756                               l2042 17E6  
                             l2220 0370                               l2212 0352  
                             l2204 0325                               l2140 00E7  
                             l2132 0091                               l2124 007E  
                             l2116 0067                               l2108 0057  
                             l2028 07B8                               l2060 0AF1  
                             l2052 0AD1                               l2300 0E36  
                             l2222 0371                               l2214 035C  
                             l2206 032B                               l2150 0164  
                             l2142 0113                               l2134 00A1  
                             l2126 0083                               l2118 006C  
                             l2230 0B3F                               l2038 17DC  
                             l2062 0AF5                               l2070 0B0F  
                             l2054 0AE6                               l2046 0ABB  
                             l2310 0E78                               l2302 0E4B  
                             l2224 037C                               l2216 035E  
                             l2208 0338                               l2160 01E4  
                             l2152 0181                               l2144 012F  
                             l2136 00AE                               l2128 0088  
                             l2240 0B6C                               l2232 0B43  
                             l2080 0B2B                               l2056 0AE7  
                             l2048 0AC8                               l2320 0EB3  
                             l2304 0E5E                               l2218 036C  
                             l2170 029C                               l2162 0211  
                             l2154 0191                               l2146 014B  
                             l2138 00CB                               l2090 002B  
                             l2250 0B97                               l2242 0B71  
                             l2234 0B53                               l2410 0672  
                             l2402 0639                               l2082 088E  
                             l2058 0AEF                               l2330 0ED9  
                             l2322 0EC1                               l2314 0E7D  
                             l2306 0E62                               l1700 17F3  
                             l2180 02C1                               l2172 02A5  
                             l2164 0221                               l2156 01AE  
                             l2148 0154                               l2092 0031  
                             l2260 0BCA                               l2252 0BA7  
                             l2244 0B7E                               l2236 0B63  
                             l2228 0B3A                               l2420 0696  
                             l2404 064B                               l2084 0892  
                             l2076 0B16                               l2068 0AFD  
                             l2340 0F12                               l2324 0EC5  
                             l2316 0EA0                               l2308 0E73  
                             l1702 17F9                               l2190 02D9  
                             l2182 02CA                               l2174 02B3  
                             l2166 024E                               l2158 01C7  
                             l2094 0035                               l2262 0BE0  
                             l2254 0BB2                               l2246 0B85  
                             l2422 06A3                               l2406 0651  
                             l2078 0B26                               l1710 08C5  
                             l2350 0F53                               l2342 0F1C  
                             l2326 0ECB                               l2318 0EAE  
                             l2430 0872                               l2510 0D41  
                             l2502 0CFB                               l1720 0A65  
                             l2192 02ED                               l2176 02BC  
                             l2184 02D0                               l2168 0274  
                             l2096 0036                               l2088 0024  
                             l2264 0BE5                               l2256 0BB6  
                             l2248 0B89                               l2416 0676  
                             l2408 065E                               l1800 03DD  
                             l1712 08CC                               l1704 08B2  
                             l2360 0F74                               l2352 0F5F  
                             l2344 0F27                               l2336 0EDB  
                             l2328 0ED3                               l2280 0DCE  
                             l2272 0DB7                               l2440 087B  
                             l2432 0873                               l2424 086B  
                             l2520 0D9F                               l2512 0D60  
                             l2504 0D13                               l1730 0A94  
                             l1722 0A68                               l2186 02D4  
                             l2178 02C0                               l2098 003B  
                             l2266 0BE9                               l2258 0BC0  
                             l2418 0690                               l1810 03F6  
                             l1802 03DE                               l1714 08D2  
                             l1706 08B4                               l2362 0F81  
                             l2354 0F63                               l2346 0F2E  
                             l2290 0E0D                               l2282 0DD1  
                             l2274 0DBC                               l2370 0FE9  
                             l2450 0885                               l2442 087C  
                             l2434 0876                               l2426 086F  
                             l2522 0DA5                               l2514 0D70  
                             l2506 0D31                               l1732 0AA2  
                             l1724 0A75                               l2380 0961  
                             l2196 02F5                               l2188 02D5  
                             l2268 0BEA                               l1820 040A  
                             l1812 03FA                               l1804 03E0  
                             l1708 08B8                               l2364 0FD0  
                             l2356 0F69                               l2348 0F3D  
                             l2372 0FFB                               l2292 0E11  
                             l2284 0DE1                               l2276 0DC2  
                             l2460 0C1B                               l2452 0889  
                             l2444 087D                               l2436 0877  
                             l2428 0871                               l2516 0D8F  
                             l2508 0D3B                               l1734 0AA3  
                             l1726 0A79                               l1718 0A53  
                             l2390 0998                               l2382 0965  
                             l2198 02FA                               l1910 0585  
                             l1902 0570                               l1830 041E  
                             l1822 040E                               l1814 03FE  
                             l1806 03EE                               l1750 09B8  
                             l1742 099A                               l2366 0FD7  
                             l2358 0F70                               l2286 0DE5  
                             l2294 0E21                               l2278 0DC9  
                             l2470 0CAC                               l2462 0C1F  
                             l2454 0BF3                               l2446 087F  
                             l2438 087A                               l2518 0D99  
                             l2392 09F0                               l1736 0AAC  
                             l1728 0A82                               l2384 0968  
                             l2480 0911                               l1920 0593  
                             l1912 0587                               l1904 0579  
                             l1832 0422                               l1824 0412  
                             l1816 0402                               l1808 03F2  
                             l1840 0432                               l1752 09CA  
                             l1744 09A4                               l2368 0FDB  
                             l2296 0E2F                               l2288 0DFA  
                             l2472 0CC6                               l2464 0C36  
                             l2456 0BF9                               l2448 0883  
                             l1738 0AB2                               l2386 0995  
                             l2394 0610                               l2482 0917  
                             l1930 05AA                               l1922 0597  
                             l1914 058C                               l1906 057D  
                             l1850 0475                               l1842 0433  
                             l1834 0426                               l1826 0416  
                             l1818 0406                               l1770 0397  
                             l1762 0385                               l1754 09D8  
                             l1746 09A7                               l2298 0E33  
                             l2466 0C4F                               l2458 0C12  
                             l2490 0CEA                               l2388 0997  
                             l2396 0635                               l2484 0924  
                             l2476 0901                               l1940 05E8  
                             l1932 05B8                               l1924 059D  
                             l1908 0582                               l1916 058E  
                             l1860 0493                               l1852 0479  
                             l1844 044A                               l1836 042A  
                             l1828 041A                               l1772 039C  
                             l1780 03AC                               l1764 038C  
                             l1756 09E1                               l1748 09B4  
                             l2468 0C7E                               l2492 0CF0  
                             l2478 0906                               l1950 05FC  
                             l1942 05F0                               l1934 05BC  
                             l1870 04BC                               l1918 0592  
                             l1862 0498                               l1854 047A  
                             l1846 046A                               l1838 042E  
                             l1790 03C6                               l1782 03B4  
                             l1774 03A1                               l1766 0392  
                             l1758 09E7                               l2574 0D05  
                             l2494 0CF2                               l2486 0CC8  
                             l1960 08E3                               l1952 0607  
                             l1944 05F5                               l1936 05DA  
                             l1928 05A5                               l1880 04D0  
                             l1872 04C0                               l1856 0483  
                             l1848 0473                               l1792 03CA  
                             l1784 03B9                               l1776 03A9  
                             l1768 0396                               l2576 0E91  
                             l2496 0CF5                               l2488 0CDC  
                             l1962 08E7                               l1954 060B  
                             l1946 05F6                               l1938 05E3  
                             l1890 0538                               l1882 04D9  
                             l1874 04C9                               l1866 04A1  
                             l1858 0487                               l1794 03CB  
                             l1786 03BF                               l1778 03AA  
                             l1970 085A                               l2498 0CF8  
                             l1964 08F6                               l1956 08DA  
                             l1948 05FA                               l1892 053D  
                             l1876 04CB                               l1868 04B8  
                             l1884 04DE                               l1796 03D0  
                             l1788 03C0                               l1972 085B  
                             l1982 17C1                               l1990 17CA  
                             l1966 08FB                               l1958 08DC  
                             l1886 04F4                               l1894 054C  
                             l1878 04CF                               l1798 03D5  
                             l1974 0861                               l1984 17C6  
                             l1992 17CF                               l1896 0562  
                             l1888 0532                               l1976 0867  
                             l1994 0839                               l1986 17D3  
                             l1898 0567                               l1978 0869  
                             l1996 083E                               l1988 17D8  
                             l1998 0930                               STR_1 082E  
                             u2000 0453                               u2001 0451  
                             u2010 0454                               u2100 04C0  
                             u2020 046A                               u2101 04BF  
                             u2021 0469                               u2110 04CF  
                             u2030 0479                               u2111 04CE  
                             u2031 0478                               u3000 0370  
                             u2200 057D                               u3001 036F  
                             u2201 057C                               u3010 0B3F  
                             u2210 0582                               u2130 04F4  
                             u2050 048F                               u3011 0B3E  
                             u2211 0581                               u2131 04F3  
                             u2051 048E                               u3100 0BBC  
                             u3020 0B43                               u2300 05DA  
                             u2220 058C                               u2060 0493  
                             u3101 0BBB                               u3021 0B42  
                             u2301 05D9                               u2221 058B  
                             u2141 050B                               u2133 04F0  
                             u2125 04D2                               u2061 0492  
                             u2045 047C                               u3110 0BC0  
                             u3030 0B63                               u2310 05E3  
                             u2230 0592                               u2150 051F  
                             u2142 050C                               u2070 0498  
                             u3111 0BBF                               u3031 0B62  
                             u2311 05E2                               u2231 0591  
                             u2151 0520                               u2143 0511  
                             u2071 0497                               u3120 0BD5  
                             u2320 05E8                               u2240 0597  
                             u2160 053D                               u2152 0525  
                             u2144 0512                               u2400 0867  
                             u3200 0EA0                               u2321 05E7  
                             u2241 0596                               u2161 053C  
                             u2153 0526                               u2145 0517  
                             u2081 04AA                               u2401 0866  
                             u3201 0E9F                               u2410 0846  
                             u3130 0BE5                               u3050 0B84  
                             u2330 05F5                               u2250 059D  
                             u2170 0562                               u2146 0518  
                             u2090 04BC                               u2082 04B1  
                             u3210 0ECB                               u2411 0845  
                             u3131 0BE4                               u3051 0B83  
                             u2331 05F4                               u2251 059C  
                             u2171 0561                               u2091 04BB  
                             u2083 04B8                               u3211 0ECA  
                             u2420 0943                               u3140 0BE9  
                             u2500 07BC                               u2340 05FA  
                             u2260 05A4                               u2180 0567  
                             u3300 0F80                               u3220 0ED3  
                             u2421 0942                               u3141 0BE8  
                             u3125 0BD0                               u3045 0B76  
                             u2501 07BB                               u2341 05F9  
                             u2261 05A3                               u2181 0566  
                             u3301 0F7F                               u3221 0ED2  
                             u1710 17F9                               u2430 0958  
                             u3070 0BA6                               u2350 060B  
                             u2270 05AA                               u3150 0DC2  
                             u1711 17F8                               u2431 0954  
                             u3071 0BA5                               u2511 07CB  
                             u2351 060A                               u2271 05A9  
                             u3151 0DC1                               u1720 17FF  
                             u2360 08E7                               u2520 07F6  
                             u2512 07CC                               u2280 05BC  
                             u2600 0B15                               u3320 0FE9  
                             u3240 0F11                               u3160 0DE1  
                             u1721 17FE                               u2361 08E6  
                             u3065 0B98                               u2521 07F5  
                             u2513 07D1                               u2281 05BB  
                             u2601 0B14                               u3321 0FE8  
                             u3241 0F10                               u3161 0DE0  
                             u1810 0A94                               u3090 0BB6  
                             u2450 17EE                               u2514 07D2  
                             u2530 17E4                               u2290 05CB  
                             u1730 08B8                               u3330 0FFB  
                             u3250 0F1C                               u3170 0E21  
                             u1811 0A93                               u3091 0BB5  
                             u2451 17ED                               u2515 07D7  
                             u2531 17E3                               u2195 0572  
                             u1731 08B7                               u3331 0FFA  
                             u3315 0F8C                               u3251 0F1B  
                             u3235 0EDE                               u3171 0E20  
                             u3340 0978                               u2444 095B  
                             u2380 08FB                               u2700 0083  
                             u2516 07D8                               u2460 076C  
                             u1900 0396                               u2620 0B26  
                             u2540 0AC8                               u3260 0F27  
                             u3180 0E2F                               u1805 0A7B  
                             u2381 08FA                               u2701 0082  
                             u3085 0BAB                               u2525 07F2  
                             u2461 076B                               u1901 0395  
                             u2621 0B25                               u2541 0AC7  
                             u3261 0F26                               u3245 0F0D  
                             u3181 0E2E                               u1830 0AB2  
                             u2710 0088                               u3350 065E  
                             u2470 0788                               u1910 039C  
                             u2630 0B2B                               u2550 0ADF  
                             u2390 0861                               u3270 0F3D  
                             u3190 0E72                               u1831 0AB1  
                             u1815 0A90                               u2375 08EE  
                             u2711 0087                               u3351 065D  
                             u2471 0787                               u2295 05C6  
                             u1911 039B                               u2631 0B2A  
                             u2615 0B18                               u2391 0860  
                             u3271 0F3C                               u3191 0E71  
                             _PIE1 008C                               u2640 0035  
                             u3360 06A3                               u2480 0794  
                             u1920 03A1                               u2560 0AF5  
                             u1840 09A4                               u1760 08D2  
                             u3280 0F53                               u1825 0AA4  
                             u3345 0973                               u2801 01D6  
                             u2721 00D9                               u2641 0034  
                             u3361 06A2                               u2481 0793  
                             u1921 03A0                               u2561 0AF4  
                             u1841 09A3                               u1761 08D1  
                             u1745 08BF                               u3281 0F52  
                             u3265 0F23                               u3417 0CE4  
                             u1770 0A65                               u2802 01DD  
                             u2722 00E0                               u2650 003B  
                             u1930 03BF                               u2570 0AFC  
                             u3290 0F69                               u3370 0C12  
                             u1771 0A64                               u2811 0203  
                             u2803 01E4                               u2731 00F5  
                             u2723 00E7                               u2651 003A  
                             u3355 065A                               u2491 07A3  
                             u1931 03BE                               u2571 0AFB  
                             u2555 0ADA                               u1755 08C6  
                             u3291 0F68                               u3275 0F39  
                             u3371 0C11                               u3427 0DAB  
                             u2812 020A                               u2732 00FC  
                             u2660 0040                               u3380 0924  
                             u2492 07A4                               u1940 03CA  
                             u1860 09B8                               u2821 0230  
                             u2813 0211                               u2741 0121  
                             u2733 0103                               u2661 003F  
                             u3365 069F                               u3381 0923  
                             u2493 07A9                               u1941 03C9  
                             u1861 09B7                               u3285 0F4F  
                             u1790 0A79                               u2910 02D4  
                             u2830 025A                               u2822 0237  
                             u2742 0128                               u2670 0061  
                             u3390 092F                               u2494 07AA  
                             u1950 03D0                               u2590 0B0E  
                             u1870 09CA                               u1791 0A78  
                             u2911 02D3                               u2823 023E  
                             u2751 013D                               u2743 012F  
                             u2671 0060                               u3391 092E  
                             u2495 07AF                               u1951 03CF  
                             u2591 0B0D                               u1871 09C9  
                             u1855 09A9                               u2920 02D9  
                             u2752 0144                               u2680 0067  
                             u2496 07B0                               u1960 03D5  
                             u1785 0A6A                               u2921 02D8  
                             u2905 02C3                               u2841 0266  
                             u2753 014B                               u2681 0066  
                             u3385 0920                               u1961 03D4  
                             u2585 0AFE                               u2930 02ED  
                             u2850 0282                               u2842 026D  
                             u2690 006C                               u1970 03EE  
                             u1890 09E7                               u2931 02EC  
                             u2843 0274                               u2835 0255  
                             u2771 0173                               u2691 006B  
                             u1971 03ED                               u1891 09E6  
                             u1875 09C6                               u2940 02F4  
                             u2772 017A                               u1980 03F2  
                             u2941 02F3                               u2861 028E  
                             u2781 01A0                               u2773 0181  
                             u2765 014D                               u1981 03F1  
                             u1885 09D9                               u2950 02FA  
                             u2862 0295                               u2782 01A7  
                             u1990 044A                               u2951 02F9  
                             u2863 029C                               u2855 027D  
                             u2783 01AE                               u1991 0449  
                             u2960 030C                               u2961 030B  
                             u2970 031B                               u2890 02C0  
                             u2891 02BF                               u2875 029E  
                             u2795 01B0                               u1995 0446  
                             u2980 0338                               _RCEN 048B  
                             u2981 0337                               u2885 02B5  
                             u2990 0352                               u2991 0351  
                             u2975 0316                               u2985 0334  
                             u2995 034E                               _RSEN 0489  
 __end_of_I2C_Master_RepeatedStart 17DC                               _main 0CC8  
                             _ftoa 0BF3                               btemp 007E  
                             start 000C                              ??_ISR 0070  
                 ?_I2C_Master_Init 0026                   ?_I2C_Master_Read 0073  
                 ?_I2C_Master_Wait 0070                   ?_I2C_Master_Stop 0070  
                    ___fltol@sign1 0049                    __end_of___fladd 060D  
                            ?_main 0070                              _ACKEN 048C  
                            ?_ftoa 004B                              _ACKDT 048D  
                  __end_of___flneg 17E7                    __end_of___flmul 0385  
                  __end_of___flsub 08B2                    __end_of___fltol 0B37  
                            _ANSEL 0188                    __end_of___lldiv 0ABB  
                  __end_of___llmod 09F0                              i1l143 0852  
                            _RCREG 001A                              _RCSTA 0018  
                            _SPBRG 0099                              _PORTA 0005  
                            _PORTB 0006                              _PORTD 0008  
                            _TRISA 0085                              _TRISB 0086  
                            _TRISC 0087                              _TRISD 0088  
                            _TRISE 0089                              _SSPIF 0063  
                            _TXREG 0019                              _TXSTA 0098  
                  __end_of_dpowers 082E                              _ledsu 0060  
                  __end_of_isdigit 086B                              _setup 086B  
                            ftoa@f 004B                              ftoa@l 0055  
                            pclath 000A                              status 0003  
                            wtemp0 007E                    __end_of_sprintf 1000  
                  __initialization 000F                       __end_of_main 0DB4  
                     __end_of_ftoa 0CC8                          ??_I2C_WWW 0040  
                           ??_main 005A                             ??_ftoa 0050  
                ?_I2C_Master_Start 0070                  ?_I2C_Master_Write 0073  
               ??_I2C_Master_Start 0073                 ??_I2C_Master_Write 0075  
                 ___llmod@dividend 002A                             ?_setup 0070  
                           _ANSELH 0189                             _I2gato 0061  
                           i1l2530 084D                             i1l2532 0851  
                           i1l2528 0847                             _INTCON 000B  
                           u340_20 084D                             u340_21 084C  
                           _SSPADD 0093                             _TRISC3 043B  
                           _TRISC4 043C                             _SSPCON 0014  
                           _SSPBUF 0013                   __end_of___xxtofl 0BF3  
         _I2C_Master_RepeatedStart 17D3                             ___flge 0756  
                        ??___fladd 0020                             ___wmul 08B2  
                        ??___flneg 0077                          ??___flmul 002E  
                        ??___flsub 007B                          ??___fltol 0044  
                        ??___lldiv 0020                          ??___llmod 002E  
          __size_of_UARTSendString 0030                             ftoa@cp 0059  
                        ??_isdigit 0073                 __size_of__Umul8_16 0029  
                           saved_w 007E                          ??_sprintf 0039  
                       ___flge@ff1 0073                         ___flge@ff2 0077  
                     ___xxtofl@arg 0022                       ___xxtofl@exp 0021  
                     ___xxtofl@val 0073            __end_of__initialization 0020  
                       ___flneg@f1 0073                         ___fltol@f1 0040  
                   __pcstackCOMMON 0070                      __end_of_setup 088E  
         UARTSendString@max_length 0074                       I2C_WWW@i_166 0053  
                     sprintf@width 0045                            ??_setup 0073  
                       __pbssBANK0 0060                         __pbssBANK1 00A0  
                __end_of__Umul8_16 0900                         __pmaintext 0CC8  
                          ?___flge 0073                            ?___wmul 0073  
                    ??_I2C_ConfigM 0075                         __pintentry 0004  
                          _I2C_WWW 060D                          ?___xxtofl 0073  
                          _SSPCON2 0091                            _SSPSTAT 0094  
                       __stringtab 0800                      ?_UARTSendChar 0070  
                  __size_of___flge 00A4                            ___fladd 0385  
                          ___flneg 17DC                            ___flmul 0024  
                          ___flsub 088E                            ___fltol 0ABB  
                          ___lldiv 0A53                    __size_of___wmul 0025  
                          ___llmod 099A                     _UARTSendString 0900  
                          __ptext1 086B                            __ptext2 0BF3  
                          __ptext3 0DB4                            __ptext4 0859  
                          __ptext5 08B2                            __ptext6 099A  
                          __ptext7 0ABB                            __ptext8 088E  
                          __ptext9 0385                       __size_of_ISR 0012  
                          _dpowers 0806                            _isdigit 0859  
              __end_of_I2C_ConfigM 0A53                         ??___xxtofl 0077  
         __size_of_I2C_Master_Init 0039           __size_of_I2C_Master_Read 0031  
         __size_of_I2C_Master_Wait 000D           __size_of_I2C_Master_Stop 0009  
                          _sprintf 0DB4                            clrloop0 17BA  
             end_of_initialization 0020                     ??_UARTSendChar 0073  
                          ftoa@buf 00A0                            ftoa@rem 0051  
       ??_I2C_Master_RepeatedStart 0073          __size_of_I2C_Master_Start 0009  
        __size_of_I2C_Master_Write 000E                    ___lldiv@divisor 0073  
                  ___lldiv@counter 0025             __end_of_UARTSendString 0930  
                 I2C_Master_Init@c 0026                   I2C_Master_Read@a 0073  
                      ___fladd@grs 002B                      ___xxtofl@sign 0020  
                      ___flmul@grs 0034                          _TXSTAbits 0098  
                       main@status 005D                    ?_UARTSendString 0074  
                   __end_of___flge 07FA                        _I2C_ConfigM 09F0  
                   __end_of___wmul 08D7                start_initialization 000F  
                      __end_of_ISR 0859                         ftoa@status 004F  
                         I2C_WWW@d 004A                           I2C_WWW@e 0044  
                         I2C_WWW@i 0050                  ??_I2C_Master_Init 002A  
                ??_I2C_Master_Read 0075                  ??_I2C_Master_Wait 0073  
                ??_I2C_Master_Stop 0073                    ___llmod@divisor 0026  
                  ___llmod@counter 002F                           ??___flge 0020  
                         ??___wmul 0077                          __Umul8_16 08D7  
                         ?_I2C_WWW 0070               __end_of_UARTSendChar 17F3  
                        ___fladd@a 0077                          ___fladd@b 0073  
                        ___flmul@a 002A                          ___flmul@b 0026  
                        ___flsub@a 002C                          ___flsub@b 0030  
                        ___latbits 0002                      __pcstackBANK0 0020  
                __size_of___xxtofl 00BC                        sprintf@flag 003E  
                      I2C_WWW@dato 0052                        sprintf@prec 0047  
                 _I2C_Master_Start 17C1                   _I2C_Master_Write 0839  
                    UARTSendChar@c 0073                           ?___fladd 0073  
                         ?___flneg 0073                           ?___flmul 0026  
                         ?___flsub 002C                           ?___fltol 0040  
                         ?___lldiv 0073                           ?___llmod 0026  
                       ?__Umul8_16 0073                          __pstrings 0800  
                         ?_isdigit 0070                           ?_sprintf 0030  
                   __size_of_setup 0023                  interrupt_function 0004  
                   ___wmul@product 0077                          clear_ram0 17B9  
                  UARTSendString@i 0077                           _PIR1bits 000C  
                 __size_of_I2C_WWW 0149                        __stringbase 0805  
                ___wmul@multiplier 0073                I2C_Master_Read@temp 0077  
                 ??_UARTSendString 0075              __size_of_UARTSendChar 000C  
                      ??__Umul8_16 0075  __size_of_I2C_Master_RepeatedStart 0009  
                 __size_of___fladd 0288                       ?_I2C_ConfigM 0070  
                 __size_of___flneg 000B                   __size_of___flmul 0361  
        ?_I2C_Master_RepeatedStart 0070                   __size_of___flsub 0024  
                 __size_of___fltol 007C                   __size_of___lldiv 0068  
                 __size_of___llmod 0056                 __end_of__stringtab 0806  
                      _isdigit$688 0073                         sprintf@val 0040  
                  _I2C_Master_Init 0961                    _I2C_Master_Read 0930  
                         ___xxtofl 0B37                    _I2C_Master_Wait 17F3  
                  _I2C_Master_Stop 17CA                   __size_of_isdigit 0012  
                         __ptext10 17DC                           __ptext11 0756  
                         __ptext20 0961                           __ptext12 0900  
                         __ptext21 0A53                           __ptext13 17E7  
                         __ptext22 09F0                           __ptext14 060D  
                         __ptext23 0839                           __ptext15 0B37  
                         __ptext24 17CA                           __ptext16 0024  
                         __ptext25 17C1                           __ptext17 08D7  
                         __ptext26 17F3                           __ptext18 17D3  
                         __ptext27 0847                           __ptext19 0930  
                 __size_of_sprintf 024C                       _UARTSendChar 17E7  
                    __size_of_main 00EC                      __size_of_ftoa 00D5  
                         main@regs 005F           __end_of_I2C_Master_Start 17CA  
         __end_of_I2C_Master_Write 0847                           isdigit@c 0074  
                UARTSendString@str 0076                           intlevel1 0000  
                        sprintf@ap 003F                          sprintf@sp 0044  
                 ___lldiv@dividend 0077                          stringcode 0800  
          __end_of_I2C_Master_Init 099A            __end_of_I2C_Master_Read 0961  
          __end_of_I2C_Master_Wait 1800            __end_of_I2C_Master_Stop 17D3  
           __Umul8_16@multiplicand 0073                           sprintf@c 0049  
                         sprintf@f 0030                   ___lldiv@quotient 0021  
                I2C_Master_Write@d 0073                           stringdir 0800  
                         stringtab 0800                      ___fladd@signs 0028  
                     ___fladd@aexp 0029                       ___fladd@bexp 002A  
             __Umul8_16@multiplier 0024                  __Umul8_16@product 0020  
